 game

 Timestamp is 5fc1a13d (Fri Nov 27 17:00:45 2020)

 Preferred load address is 0000000180000000

 Start         Length     Name                   Class
 0001:00000000 0004eed0H .text$mn                CODE
 0001:0004eed0 00000040H .text$mn$00             CODE
 0001:0004ef10 00000bc0H .text$x                 CODE
 0002:00000000 000002b0H .idata$5                DATA
 0002:000002b0 00000028H .00cfg                  DATA
 0002:000002d8 00000008H .CRT$XCA                DATA
 0002:000002e0 00000008H .CRT$XCZ                DATA
 0002:000002e8 00000008H .CRT$XIA                DATA
 0002:000002f0 00000018H .CRT$XIC                DATA
 0002:00000308 00000008H .CRT$XIZ                DATA
 0002:00000310 00000008H .CRT$XPA                DATA
 0002:00000318 00000010H .CRT$XPX                DATA
 0002:00000328 00000008H .CRT$XPXA               DATA
 0002:00000330 00000008H .CRT$XPZ                DATA
 0002:00000338 00000008H .CRT$XTA                DATA
 0002:00000340 00000010H .CRT$XTZ                DATA
 0002:00000348 00000000H .gehcont$y              DATA
 0002:00000348 00000000H .gfids$y                DATA
 0002:00000350 0000aa30H .rdata                  DATA
 0002:0000ad80 00000008H .rdata$CastGuardVftablesA DATA
 0002:0000ad88 00000008H .rdata$CastGuardVftablesC DATA
 0002:0000ad90 00000464H .rdata$r                DATA
 0002:0000b1f4 00000334H .rdata$zzzdbg           DATA
 0002:0000b528 00000008H .rtc$IAA                DATA
 0002:0000b530 00000008H .rtc$IZZ                DATA
 0002:0000b538 00000008H .rtc$TAA                DATA
 0002:0000b540 00000008H .rtc$TZZ                DATA
 0002:0000b548 000056c0H .xdata                  DATA
 0002:00010c08 00000088H .xdata$x                DATA
 0002:00010c90 00000078H .edata                  DATA
 0002:00010d08 00000014H .idata$2                DATA
 0002:00010d1c 00000014H .idata$3                DATA
 0002:00010d30 000002b0H .idata$4                DATA
 0002:00010fe0 0000064aH .idata$6                DATA
 0003:00000000 00000a80H .data                   DATA
 0003:00000a80 00000170H .data$r                 DATA
 0003:00000bf0 00001a90H .bss                    DATA
 0004:00000000 00004890H .pdata                  DATA
 0005:00000000 00000094H _RDATA                  DATA

  Address         Publics by Value              Rva+Base               Lib:Object

 0000:00000000       __hybrid_auxiliary_iat     0000000000000000     <absolute>
 0000:00000000       __guard_iat_table          0000000000000000     <absolute>
 0000:00000000       __arm64x_redirection_metadata_count 0000000000000000     <absolute>
 0000:00000000       __dynamic_value_reloc_table 0000000000000000     <absolute>
 0000:00000000       __AbsoluteZero             0000000000000000     <absolute>
 0000:00000000       __x64_code_ranges_to_entry_points_count 0000000000000000     <absolute>
 0000:00000000       __guard_longjmp_table      0000000000000000     <absolute>
 0000:00000000       __x64_code_ranges_to_entry_points 0000000000000000     <absolute>
 0000:00000000       ___safe_se_handler_count   0000000000000000     <absolute>
 0000:00000000       __arm64x_extra_rfe_table_size 0000000000000000     <absolute>
 0000:00000000       __volatile_metadata        0000000000000000     <absolute>
 0000:00000000       __enclave_config           0000000000000000     <absolute>
 0000:00000000       __hybrid_code_map          0000000000000000     <absolute>
 0000:00000000       __arm64x_native_entrypoint 0000000000000000     <absolute>
 0000:00000000       __guard_fids_table         0000000000000000     <absolute>
 0000:00000000       __guard_eh_cont_count      0000000000000000     <absolute>
 0000:00000000       ___safe_se_handler_table   0000000000000000     <absolute>
 0000:00000000       __guard_eh_cont_table      0000000000000000     <absolute>
 0000:00000000       __hybrid_code_map_count    0000000000000000     <absolute>
 0000:00000000       __arm64x_extra_rfe_table   0000000000000000     <absolute>
 0000:00000000       __guard_longjmp_count      0000000000000000     <absolute>
 0000:00000000       __arm64x_redirection_metadata 0000000000000000     <absolute>
 0000:00000000       __guard_fids_count         0000000000000000     <absolute>
 0000:00000000       __guard_iat_count          0000000000000000     <absolute>
 0000:00000100       __guard_flags              0000000000000100     <absolute>
 0000:00000000       __ImageBase                0000000180000000     <linker-defined>
 0001:00000090       ?Game_EndStub@@YAXPEAUgame_state@@PEAUmemory_arena@@PEAUworker_thread_queue@@@Z 0000000180001090 f   game.obj
 0001:000000b0       ?Game_StartStub@@YAXPEAUgame_state@@PEAUmemory_arena@@PEAUworker_thread_queue@@@Z 00000001800010b0 f   game.obj
 0001:000000d0       ?Game_UpdateAndRenderStub@@YAXPEAUgame_state@@PEAUmemory_arena@@PEAUworker_thread_queue@@@Z 00000001800010d0 f   game.obj
 0001:000000f0       ?Game_Start@@YAXPEAUgame_state@@PEAUmemory_arena@@PEAUworker_thread_queue@@@Z 00000001800010f0 f   game.obj
 0001:00000160       ?Game_UpdateAndRender@@YAXPEAUgame_state@@PEAUmemory_arena@@PEAUworker_thread_queue@@@Z 0000000180001160 f   game.obj
 0001:00000180       ?Game_End@@YAXPEAUgame_state@@PEAUmemory_arena@@PEAUworker_thread_queue@@@Z 0000000180001180 f   game.obj
 0001:00000190       ?EnterTheDarkness@@YAXPEAUgame_state@@@Z 0000000180001190 f i game.obj
 0001:000001c0       __local_stdio_printf_options 00000001800011c0 f i game.obj
 0001:000001d0       _vfprintf_l                00000001800011d0 f i game.obj
 0001:00000220       fprintf                    0000000180001220 f i game.obj
 0001:000005ac       _CRT_INIT                  00000001800015ac f   LIBCMT:dll_dllmain.obj
 0001:000005b4       _DllMainCRTStartup         00000001800015b4 f   LIBCMT:dll_dllmain.obj
 0001:00000660       __security_init_cookie     0000000180001660 f   LIBCMT:gs_support.obj
 0001:0000070c       DllMain                    000000018000170c f   LIBCMT:dll_dllmain_stub.obj
 0001:00000714       ?__scrt_initialize_type_info@@YAXXZ 0000000180001714 f   LIBCMT:tncleanup.obj
 0001:00000724       ?__scrt_uninitialize_type_info@@YAXXZ 0000000180001724 f   LIBCMT:tncleanup.obj
 0001:00000730       __local_stdio_scanf_options 0000000180001730 f i LIBCMT:default_local_stdio_options.obj
 0001:00000738       __scrt_initialize_default_local_stdio_options 0000000180001738 f   LIBCMT:default_local_stdio_options.obj
 0001:00000754       ?configure_argv@__scrt_narrow_argv_policy@@SAHXZ 0000000180001754 f i LIBCMT:utility.obj
 0001:000007b4       ?initialize_environment@__scrt_narrow_environment_policy@@SAHXZ 00000001800017b4 f i LIBCMT:utility.obj
 0001:000007ec       NtCurrentTeb               00000001800017ec f i LIBCMT:utility.obj
 0001:000007f8       __scrt_acquire_startup_lock 00000001800017f8 f   LIBCMT:utility.obj
 0001:00000834       __scrt_dllmain_after_initialize_c 0000000180001834 f   LIBCMT:utility.obj
 0001:00000868       __scrt_dllmain_before_initialize_c 0000000180001868 f   LIBCMT:utility.obj
 0001:00000880       __scrt_dllmain_crt_thread_attach 0000000180001880 f   LIBCMT:utility.obj
 0001:000008a8       __scrt_dllmain_crt_thread_detach 00000001800018a8 f   LIBCMT:utility.obj
 0001:000008c0       __scrt_dllmain_exception_filter 00000001800018c0 f   LIBCMT:utility.obj
 0001:00000920       __scrt_dllmain_uninitialize_c 0000000180001920 f   LIBCMT:utility.obj
 0001:00000950       __scrt_dllmain_uninitialize_critical 0000000180001950 f   LIBCMT:utility.obj
 0001:00000964       __scrt_initialize_crt      0000000180001964 f   LIBCMT:utility.obj
 0001:000009b0       __scrt_initialize_onexit_tables 00000001800019b0 f   LIBCMT:utility.obj
 0001:00000a3c       __scrt_is_nonwritable_in_current_image 0000000180001a3c f   LIBCMT:utility.obj
 0001:00000ad4       __scrt_release_startup_lock 0000000180001ad4 f   LIBCMT:utility.obj
 0001:00000af8       __scrt_uninitialize_crt    0000000180001af8 f   LIBCMT:utility.obj
 0001:00000b24       _onexit                    0000000180001b24 f   LIBCMT:utility.obj
 0001:00000b60       at_quick_exit              0000000180001b60 f   LIBCMT:utility.obj
 0001:00000b80       atexit                     0000000180001b80 f   LIBCMT:utility.obj
 0001:00000b98       __scrt_get_dyn_tls_init_callback 0000000180001b98 f   LIBCMT:dyn_tls_init.obj
 0001:00000ba0       __crt_debugger_hook        0000000180001ba0 f   LIBCMT:utility_desktop.obj
 0001:00000ba8       __scrt_fastfail            0000000180001ba8 f   LIBCMT:utility_desktop.obj
 0001:00000cf4       __scrt_get_show_window_mode 0000000180001cf4 f   LIBCMT:utility_desktop.obj
 0001:00000d30       __scrt_initialize_mta      0000000180001d30 f   LIBCMT:utility_desktop.obj
 0001:00000d38       __scrt_initialize_winrt    0000000180001d38 f   LIBCMT:utility_desktop.obj
 0001:00000d3c       __scrt_is_managed_app      0000000180001d3c f   LIBCMT:utility_desktop.obj
 0001:00000d90       __scrt_set_unhandled_exception_filter 0000000180001d90 f   LIBCMT:utility_desktop.obj
 0001:00000da0       __scrt_stub_for_initialize_mta 0000000180001da0 f   LIBCMT:utility_desktop.obj
 0001:00000da0       __scrt_exe_initialize_mta  0000000180001da0 f   LIBCMT:utility_desktop.obj
 0001:00000da4       __scrt_unhandled_exception_filter 0000000180001da4 f   LIBCMT:utility_desktop.obj
 0001:00000e00       _RTC_Initialize            0000000180001e00 f   LIBCMT:initsect.obj
 0001:00000e3c       _RTC_Terminate             0000000180001e3c f   LIBCMT:initsect.obj
 0001:00000e78       _guard_check_icall_nop     0000000180001e78 f i LIBCMT:guard_support.obj
 0001:00000e7c       ReadNoFence64              0000000180001e7c f i LIBCMT:guard_support.obj
 0001:00000e80       ReadPointerNoFence         0000000180001e80 f i LIBCMT:guard_support.obj
 0001:00000e84       __castguard_check_failure_debugbreak 0000000180001e84 f i LIBCMT:guard_support.obj
 0001:00000ea0       __castguard_check_failure_fastfail 0000000180001ea0 f i LIBCMT:guard_support.obj
 0001:00000ec4       __castguard_check_failure_nop 0000000180001ec4 f i LIBCMT:guard_support.obj
 0001:00000ec8       __castguard_check_failure_os_handled 0000000180001ec8 f i LIBCMT:guard_support.obj
 0001:00000f28       __castguard_slow_path_check_debugbreak 0000000180001f28 f i LIBCMT:guard_support.obj
 0001:00000f5c       __castguard_slow_path_check_fastfail 0000000180001f5c f i LIBCMT:guard_support.obj
 0001:00000f98       __castguard_slow_path_check_nop 0000000180001f98 f i LIBCMT:guard_support.obj
 0001:00000f9c       __castguard_slow_path_check_os_handled 0000000180001f9c f i LIBCMT:guard_support.obj
 0001:00001010       _guard_icall_checks_enforced 0000000180002010 f i LIBCMT:guard_support.obj
 0001:00001028       _guard_rf_checks_enforced  0000000180002028 f i LIBCMT:guard_support.obj
 0001:0000102c       __isa_available_init       000000018000202c f   LIBCMT:cpu_disp.obj
 0001:000011d0       _get_startup_argv_mode     00000001800021d0 f   LIBCMT:argv_mode.obj
 0001:000011d8       __scrt_is_ucrt_dll_in_use  00000001800021d8 f   LIBCMT:ucrt_detection.obj
 0001:000011f0       QueryPerformanceCounter    00000001800021f0 f   kernel32:KERNEL32.dll
 0001:000011f6       GetCurrentProcessId        00000001800021f6 f   kernel32:KERNEL32.dll
 0001:000011fc       GetCurrentThreadId         00000001800021fc f   kernel32:KERNEL32.dll
 0001:00001202       GetSystemTimeAsFileTime    0000000180002202 f   kernel32:KERNEL32.dll
 0001:00001208       InitializeSListHead        0000000180002208 f   kernel32:KERNEL32.dll
 0001:0000120e       RtlCaptureContext          000000018000220e f   kernel32:KERNEL32.dll
 0001:00001214       RtlLookupFunctionEntry     0000000180002214 f   kernel32:KERNEL32.dll
 0001:0000121a       RtlVirtualUnwind           000000018000221a f   kernel32:KERNEL32.dll
 0001:00001220       IsDebuggerPresent          0000000180002220 f   kernel32:KERNEL32.dll
 0001:00001226       UnhandledExceptionFilter   0000000180002226 f   kernel32:KERNEL32.dll
 0001:0000122c       SetUnhandledExceptionFilter 000000018000222c f   kernel32:KERNEL32.dll
 0001:00001232       GetStartupInfoW            0000000180002232 f   kernel32:KERNEL32.dll
 0001:00001238       IsProcessorFeaturePresent  0000000180002238 f   kernel32:KERNEL32.dll
 0001:0000123e       GetModuleHandleW           000000018000223e f   kernel32:KERNEL32.dll
 0001:00001244       __C_specific_handler       0000000180002244 f   libvcruntime:riscchandler.obj
 0001:00001460       ??$?RD@__crt_internal_free_policy@@QEBAXQEBD@Z 0000000180002460 f i libvcruntime:std_type_info.obj
 0001:00001468       ??$?RX@__crt_internal_free_policy@@QEBAXQEBX@Z 0000000180002468 f i libvcruntime:std_type_info.obj
 0001:00001470       ??$__crt_interlocked_compare_exchange_pointer@$$CBDPEAD$$T@@YAPEBDPEDSEBDQEAD$$T@Z 0000000180002470 f i libvcruntime:std_type_info.obj
 0001:0000147c       ??$__crt_interlocked_read_pointer@$$CBD@@YAPEBDPEDSEBD@Z 000000018000247c f i libvcruntime:std_type_info.obj
 0001:00001480       ??0?$__crt_unique_heap_ptr@DU__crt_internal_free_policy@@@@QEAA@QEAD@Z 0000000180002480 f i libvcruntime:std_type_info.obj
 0001:00001488       ??0?$__crt_unique_heap_ptr@XU__crt_internal_free_policy@@@@QEAA@QEAX@Z 0000000180002488 f i libvcruntime:std_type_info.obj
 0001:00001490       ??1?$__crt_unique_heap_ptr@DU__crt_internal_free_policy@@@@QEAA@XZ 0000000180002490 f i libvcruntime:std_type_info.obj
 0001:000014ac       ??1?$__crt_unique_heap_ptr@XU__crt_internal_free_policy@@@@QEAA@XZ 00000001800024ac f i libvcruntime:std_type_info.obj
 0001:000014c8       ??B?$__crt_unique_heap_ptr@DU__crt_internal_free_policy@@@@QEBA_NXZ 00000001800024c8 f i libvcruntime:std_type_info.obj
 0001:000014d0       ??B?$__crt_unique_heap_ptr@XU__crt_internal_free_policy@@@@QEBA_NXZ 00000001800024d0 f i libvcruntime:std_type_info.obj
 0001:000014f8       ?__crt_interlocked_read_64@@YA_JPED_J@Z 00000001800024f8 f i libvcruntime:std_type_info.obj
 0001:000014fc       ?detach@?$__crt_unique_heap_ptr@XU__crt_internal_free_policy@@@@QEAAPEAXXZ 00000001800024fc f i libvcruntime:std_type_info.obj
 0001:00001504       ?get@?$__crt_unique_heap_ptr@DU__crt_internal_free_policy@@@@QEBAPEADXZ 0000000180002504 f i libvcruntime:std_type_info.obj
 0001:00001508       ?get@?$__crt_unique_heap_ptr@XU__crt_internal_free_policy@@@@QEBAPEAXXZ 0000000180002508 f i libvcruntime:std_type_info.obj
 0001:0000150c       ?is_valid@?$__crt_unique_heap_ptr@DU__crt_internal_free_policy@@@@QEBA_NXZ 000000018000250c f i libvcruntime:std_type_info.obj
 0001:00001514       ?is_valid@?$__crt_unique_heap_ptr@XU__crt_internal_free_policy@@@@QEBA_NXZ 0000000180002514 f i libvcruntime:std_type_info.obj
 0001:0000151c       ?release@?$__crt_unique_heap_ptr@DU__crt_internal_free_policy@@@@QEAAXXZ 000000018000251c f i libvcruntime:std_type_info.obj
 0001:00001538       ?release@?$__crt_unique_heap_ptr@XU__crt_internal_free_policy@@@@QEAAXXZ 0000000180002538 f i libvcruntime:std_type_info.obj
 0001:00001554       __std_type_info_compare    0000000180002554 f   libvcruntime:std_type_info.obj
 0001:0000157c       __std_type_info_destroy_list 000000018000257c f   libvcruntime:std_type_info.obj
 0001:000015a8       __std_type_info_hash       00000001800025a8 f   libvcruntime:std_type_info.obj
 0001:000015e0       __std_type_info_name       00000001800025e0 f   libvcruntime:std_type_info.obj
 0001:000016f8       __vcrt_initialize          00000001800026f8 f   libvcruntime:initialization.obj
 0001:00001720       __vcrt_thread_attach       0000000180002720 f   libvcruntime:initialization.obj
 0001:00001734       __vcrt_thread_detach       0000000180002734 f   libvcruntime:initialization.obj
 0001:00001748       __vcrt_uninitialize        0000000180002748 f   libvcruntime:initialization.obj
 0001:00001764       __vcrt_uninitialize_critical 0000000180002764 f   libvcruntime:initialization.obj
 0001:00001778       __DestructExceptionObject  0000000180002778 f   libvcruntime:ehhelpers.obj
 0001:000017e8       ?_CallMemberFunction0@@YAXQEAX0@Z 00000001800027e8 f i libvcruntime:ehhelpers.obj
 0001:00001844       ?raw_name@type_info@@QEBAPEBDXZ 0000000180002844 f i libvcruntime:ehhelpers.obj
 0001:0000184c       _IsExceptionObjectToBeDestroyed 000000018000284c f   libvcruntime:ehhelpers.obj
 0001:0000187c       _SetWinRTOutOfMemoryExceptionCallback 000000018000287c f   libvcruntime:ehhelpers.obj
 0001:00001884       __AdjustPointer            0000000180002884 f   libvcruntime:ehhelpers.obj
 0001:000018a8       __FrameUnwindFilter        00000001800028a8 f   libvcruntime:ehhelpers.obj
 0001:00001910       __GetPlatformExceptionInfo 0000000180002910 f   libvcruntime:ehhelpers.obj
 0001:0000196c       __current_exception        000000018000296c f   libvcruntime:ehhelpers.obj
 0001:00001980       __current_exception_context 0000000180002980 f   libvcruntime:ehhelpers.obj
 0001:00001994       __processing_throw         0000000180002994 f   libvcruntime:ehhelpers.obj
 0001:000019a8       __std_terminate            00000001800029a8 f   libvcruntime:ehhelpers.obj
 0001:000019b4       _is_exception_typeof       00000001800029b4 f   libvcruntime:ehhelpers.obj
 0001:00001a70       memset_repmovs             0000000180002a70 f   libvcruntime:memset.obj
 0001:00001a90       memset                     0000000180002a90 f   libvcruntime:memset.obj
 0001:00001c30       _NLG_Notify                0000000180002c30 f   libvcruntime:notify.obj
 0001:00001c50       __NLG_Dispatch2            0000000180002c50 f   libvcruntime:notify.obj
 0001:00001c60       __NLG_Return2              0000000180002c60 f   libvcruntime:notify.obj
 0001:00001c6c       __except_validate_context_record 0000000180002c6c f   libvcruntime:jbcxrval.obj
 0001:00001ca4       __except_validate_jump_buffer 0000000180002ca4 f   libvcruntime:jbcxrval.obj
 0001:00001ce4       __except_validate_jump_buffer_common 0000000180002ce4 f i libvcruntime:jbcxrval.obj
 0001:00001d40       ??$?0$00@DName@@QEAA@PEBDU?$StringLifeSelector@$00@@@Z 0000000180002d40 f i libvcruntime:undname.obj
 0001:00001d80       ??$?0$00@pcharNode@@QEAA@PEBDHU?$StringLifeSelector@$00@@@Z 0000000180002d80 f i libvcruntime:undname.obj
 0001:00001d98       ??$?0$01@DName@@QEAA@PEBDU?$StringLifeSelector@$01@@@Z 0000000180002d98 f i libvcruntime:undname.obj
 0001:00001dd8       ??$?0$01@pcharNode@@QEAA@PEBDHU?$StringLifeSelector@$01@@@Z 0000000180002dd8 f i libvcruntime:undname.obj
 0001:00001e4c       ??$?0$0A@@DName@@QEAA@PEBDU?$StringLifeSelector@$0A@@@@Z 0000000180002e4c f i libvcruntime:undname.obj
 0001:00001e8c       ??$?0$0A@@pcharNode@@QEAA@PEBDHU?$StringLifeSelector@$0A@@@@Z 0000000180002e8c f i libvcruntime:undname.obj
 0001:00001f00       ??$?0_K$0A@@?$optional@_K@std@@QEAA@$$QEA_K@Z 0000000180002f00 f i libvcruntime:undname.obj
 0001:00001f10       ??$?0_K@?$_Optional_construct_base@_K@std@@QEAA@Uin_place_t@1@$$QEA_K@Z 0000000180002f10 f i libvcruntime:undname.obj
 0001:00001f20       ??$?0_K@?$_Optional_destruct_base@_K$00@std@@QEAA@Uin_place_t@1@$$QEA_K@Z 0000000180002f20 f i libvcruntime:undname.obj
 0001:00001f30       ??$append@VDNameNode@@@DName@@AEAAXPEBVDNameNode@@@Z 0000000180002f30 f i libvcruntime:undname.obj
 0001:00001f94       ??$append@VDNameStatusNode@@@DName@@AEAAXPEBVDNameStatusNode@@@Z 0000000180002f94 f i libvcruntime:undname.obj
 0001:00001ff8       ??$append@VcharNode@@@DName@@AEAAXPEBVcharNode@@@Z 0000000180002ff8 f i libvcruntime:undname.obj
 0001:0000205c       ??$append@VpDNameNode@@@DName@@AEAAXPEBVpDNameNode@@@Z 000000018000305c f i libvcruntime:undname.obj
 0001:000020c0       ??$append@VpcharNode@@@DName@@AEAAXPEBVpcharNode@@@Z 00000001800030c0 f i libvcruntime:undname.obj
 0001:00002124       ??$doPchar@$00@DName@@AEAAXPEBDH@Z 0000000180003124 f i libvcruntime:undname.obj
 0001:000021c8       ??$doPchar@$01@DName@@AEAAXPEBDH@Z 00000001800031c8 f i libvcruntime:undname.obj
 0001:00002260       ??$doPchar@$0A@@DName@@AEAAXPEBDH@Z 0000000180003260 f i libvcruntime:undname.obj
 0001:000022f8       ??$forward@_K@std@@YA$$QEA_KAEA_K@Z 00000001800032f8 f i libvcruntime:undname.obj
 0001:000022fc       ??$size@D$04@std@@YA_KAEAY04$$CBD@Z 00000001800032fc f i libvcruntime:undname.obj
 0001:00002304       ??$size@D$0EB@@std@@YA_KAEAY0EB@$$CBD@Z 0000000180003304 f i libvcruntime:undname.obj
 0001:0000230c       ??0?$_Optional_construct_base@_K@std@@QEAA@XZ 000000018000330c f i libvcruntime:undname.obj
 0001:00002314       ??0?$_Optional_destruct_base@_K$00@std@@QEAA@XZ 0000000180003314 f i libvcruntime:undname.obj
 0001:0000231c       ??0?$optional@_K@std@@QEAA@XZ 000000018000331c f i libvcruntime:undname.obj
 0001:00002324       ??0Block@_HeapManager@@QEAA@XZ 0000000180003324 f i libvcruntime:undname.obj
 0001:0000232c       ??0DName@@QEAA@AEAPEBDD@Z  000000018000332c f   libvcruntime:undname.obj
 0001:000023dc       ??0DName@@QEAA@AEBUStringLiteral@@@Z 00000001800033dc f   libvcruntime:undname.obj
 0001:00002408       ??0DName@@QEAA@AEBV0@@Z    0000000180003408 f i libvcruntime:undname.obj
 0001:00002418       ??0DName@@QEAA@D@Z         0000000180003418 f   libvcruntime:undname.obj
 0001:00002438       ??0DName@@QEAA@PEAV0@@Z    0000000180003438 f   libvcruntime:undname.obj
 0001:000024bc       ??0DName@@QEAA@W4DNameStatus@@@Z 00000001800034bc f   libvcruntime:undname.obj
 0001:000024ec       ??0DName@@QEAA@XZ          00000001800034ec f i libvcruntime:undname.obj
 0001:000024f8       ??0DName@@QEAA@_J@Z        00000001800034f8 f   libvcruntime:undname.obj
 0001:000025a0       ??0DName@@QEAA@_K@Z        00000001800035a0 f   libvcruntime:undname.obj
 0001:00002628       ??0DNameNode@@IEAA@XZ      0000000180003628 f i libvcruntime:undname.obj
 0001:00002638       ??0Replicator@@QEAA@XZ     0000000180003638 f i libvcruntime:undname.obj
 0001:0000264c       ??0UnDecorator@@QEAA@PEBDP6APEADJ@ZK@Z 000000018000364c f i libvcruntime:undname.obj
 0001:0000269c       ??0_Nontrivial_dummy_type@std@@QEAA@XZ 000000018000369c f i libvcruntime:undname.obj
 0001:000026a0       ??0charNode@@QEAA@D@Z      00000001800036a0 f i libvcruntime:undname.obj
 0001:000026b4       ??0pDNameNode@@QEAA@PEAVDName@@@Z 00000001800036b4 f   libvcruntime:undname.obj
 0001:000026dc       ??0pairNode@@QEAA@PEBVDNameNode@@0@Z 00000001800036dc f i libvcruntime:undname.obj
 0001:00002700       ??2@YAPEAX_KAEAV_HeapManager@@H@Z 0000000180003700 f   libvcruntime:undname.obj
 0001:0000272c       ??4DName@@QEAAAEAV0@AEBUStringLiteral@@@Z 000000018000372c f   libvcruntime:undname.obj
 0001:00002754       ??4DName@@QEAAAEAV0@AEBV0@@Z 0000000180003754 f   libvcruntime:undname.obj
 0001:00002764       ??4DName@@QEAAAEAV0@D@Z    0000000180003764 f i libvcruntime:undname.obj
 0001:00002784       ??4DName@@QEAAAEAV0@PEAV0@@Z 0000000180003784 f   libvcruntime:undname.obj
 0001:000027fc       ??4DName@@QEAAAEAV0@W4DNameStatus@@@Z 00000001800037fc f   libvcruntime:undname.obj
 0001:0000281c       ??AReplicator@@QEBA?AVDName@@H@Z 000000018000381c f   libvcruntime:undname.obj
 0001:0000285c       ??B?$optional@_K@std@@QEBA_NXZ 000000018000385c f i libvcruntime:undname.obj
 0001:00002860       ??D?$optional@_K@std@@QEGAAAEA_KXZ 0000000180003860 f i libvcruntime:undname.obj
 0001:00002864       ??H@YA?AVDName@@AEBUStringLiteral@@AEBV0@@Z 0000000180003864 f i libvcruntime:undname.obj
 0001:0000289c       ??H@YA?AVDName@@DAEBV0@@Z  000000018000389c f i libvcruntime:undname.obj
 0001:000028e0       ??H@YA?AVDName@@W4DNameStatus@@AEBV0@@Z 00000001800038e0 f i libvcruntime:undname.obj
 0001:0000292c       ??HDName@@QEBA?AV0@AEBUStringLiteral@@@Z 000000018000392c f   libvcruntime:undname.obj
 0001:00002958       ??HDName@@QEBA?AV0@AEBV0@@Z 0000000180003958 f   libvcruntime:undname.obj
 0001:00002984       ??HDName@@QEBA?AV0@D@Z     0000000180003984 f   libvcruntime:undname.obj
 0001:000029b0       ??HDName@@QEBA?AV0@PEAV0@@Z 00000001800039b0 f   libvcruntime:undname.obj
 0001:000029dc       ??HDName@@QEBA?AV0@W4DNameStatus@@@Z 00000001800039dc f   libvcruntime:undname.obj
 0001:00002a08       ??HStringLiteral@@QEBA?AU0@H@Z 0000000180003a08 f i libvcruntime:undname.obj
 0001:00002a20       ??YDName@@QEAAAEAV0@AEBUStringLiteral@@@Z 0000000180003a20 f   libvcruntime:undname.obj
 0001:00002aa0       ??YDName@@QEAAAEAV0@AEBV0@@Z 0000000180003aa0 f   libvcruntime:undname.obj
 0001:00002b54       ??YDName@@QEAAAEAV0@D@Z    0000000180003b54 f   libvcruntime:undname.obj
 0001:00002bc0       ??YDName@@QEAAAEAV0@PEAV0@@Z 0000000180003bc0 f   libvcruntime:undname.obj
 0001:00002c54       ??YDName@@QEAAAEAV0@W4DNameStatus@@@Z 0000000180003c54 f   libvcruntime:undname.obj
 0001:00002cc0       ??YReplicator@@QEAAAEAV0@AEBVDName@@@Z 0000000180003cc0 f   libvcruntime:undname.obj
 0001:00002d18       ??_5DName@@QEAAAEAV0@AEBV0@@Z 0000000180003d18 f   libvcruntime:undname.obj
 0001:00002d2c       ??__K_l@@YA?AUStringLiteral@@PEBD_K@Z 0000000180003d2c f i libvcruntime:undname.obj
 0001:00002d38       ?Constructor@_HeapManager@@QEAAXP6APEAX_K@ZP6AXPEAX@Z@Z 0000000180003d38 f i libvcruntime:undname.obj
 0001:00002d50       ?Destructor@_HeapManager@@QEAAXXZ 0000000180003d50 f i libvcruntime:undname.obj
 0001:00002da4       ?UScore@UnDecorator@@SA?AUStringLiteral@@W4Tokens@@@Z 0000000180003da4 f   libvcruntime:undname.obj
 0001:00002df0       ?composeDeclaration@UnDecorator@@CA?AVDName@@AEBV2@@Z 0000000180003df0 f i libvcruntime:undname.obj
 0001:00003c98       ?doAccessSpecifiers@UnDecorator@@SAHXZ 0000000180004c98 f i libvcruntime:undname.obj
 0001:00003ca8       ?doAllocationLanguage@UnDecorator@@SAHXZ 0000000180004ca8 f i libvcruntime:undname.obj
 0001:00003cb8       ?doAllocationModel@UnDecorator@@SAHXZ 0000000180004cb8 f i libvcruntime:undname.obj
 0001:00003cc8       ?doEcsu@UnDecorator@@SAHXZ 0000000180004cc8 f i libvcruntime:undname.obj
 0001:00003cd8       ?doEllipsis@UnDecorator@@SAHXZ 0000000180004cd8 f i libvcruntime:undname.obj
 0001:00003ce8       ?doFunctionReturns@UnDecorator@@SAHXZ 0000000180004ce8 f i libvcruntime:undname.obj
 0001:00003cf8       ?doMSKeywords@UnDecorator@@SAHXZ 0000000180004cf8 f i libvcruntime:undname.obj
 0001:00003d08       ?doMemberTypes@UnDecorator@@SAHXZ 0000000180004d08 f i libvcruntime:undname.obj
 0001:00003d18       ?doNameOnly@UnDecorator@@SAHXZ 0000000180004d18 f i libvcruntime:undname.obj
 0001:00003d24       ?doNoIdentCharCheck@UnDecorator@@SAHXZ 0000000180004d24 f i libvcruntime:undname.obj
 0001:00003d30       ?doPchar@DName@@AEAAXD@Z   0000000180004d30 f   libvcruntime:undname.obj
 0001:00003d80       ?doPtr64@UnDecorator@@SAHXZ 0000000180004d80 f i libvcruntime:undname.obj
 0001:00003d90       ?doRestrictionSpec@UnDecorator@@SAHXZ 0000000180004d90 f i libvcruntime:undname.obj
 0001:00003da0       ?doThisTypes@UnDecorator@@SAHXZ 0000000180004da0 f i libvcruntime:undname.obj
 0001:00003db4       ?doThrowTypes@UnDecorator@@SAHXZ 0000000180004db4 f i libvcruntime:undname.obj
 0001:00003dc4       ?doTypeOnly@UnDecorator@@SAHXZ 0000000180004dc4 f i libvcruntime:undname.obj
 0001:00003dd0       ?doUnderScore@UnDecorator@@SAHXZ 0000000180004dd0 f i libvcruntime:undname.obj
 0001:00003ddc       ?getArgumentList@UnDecorator@@CA?AVDName@@XZ 0000000180004ddc f   libvcruntime:undname.obj
 0001:00003f70       ?getArgumentTypes@UnDecorator@@CA?AVDName@@XZ 0000000180004f70 f   libvcruntime:undname.obj
 0001:000040cc       ?getArrayObject@UnDecorator@@CA?AVDName@@XZ 00000001800050cc f   libvcruntime:undname.obj
 0001:00004194       ?getArrayType@UnDecorator@@CA?AVDName@@AEBV2@@Z 0000000180005194 f i libvcruntime:undname.obj
 0001:000043dc       ?getBasedType@UnDecorator@@CA?AVDName@@XZ 00000001800053dc f   libvcruntime:undname.obj
 0001:000044d4       ?getBasicDataType@UnDecorator@@CA?AVDName@@AEBV2@@Z 00000001800054d4 f   libvcruntime:undname.obj
 0001:00004a18       ?getCHPEName@UnDecorator@@QEAAPEADPEADH@Z 0000000180005a18 f i libvcruntime:undname.obj
 0001:00004b38       ?getCallIndex@UnDecorator@@CA?AVDName@@XZ 0000000180005b38 f i libvcruntime:undname.obj
 0001:00004b54       ?getCallingConvention@UnDecorator@@CA?AVDName@@XZ 0000000180005b54 f   libvcruntime:undname.obj
 0001:00004c94       ?getDataIndirectType@UnDecorator@@CA?AVDName@@AEBV2@W4IndirectionKind@@0H@Z 0000000180005c94 f   libvcruntime:undname.obj
 0001:0000552c       ?getDataIndirectType@UnDecorator@@CA?AVDName@@XZ 000000018000652c f i libvcruntime:undname.obj
 0001:00005568       ?getDataType@UnDecorator@@CA?AVDName@@PEAV2@@Z 0000000180006568 f   libvcruntime:undname.obj
 0001:0000567c       ?getDecoratedName@UnDecorator@@CA?AVDName@@XZ 000000018000667c f   libvcruntime:undname.obj
 0001:00005960       ?getDimension@UnDecorator@@CA?AVDName@@_N@Z 0000000180006960 f   libvcruntime:undname.obj
 0001:00005aac       ?getDispatchTarget@UnDecorator@@CA?AVDName@@XZ 0000000180006aac f   libvcruntime:undname.obj
 0001:00005af8       ?getDisplacement@UnDecorator@@CA?AVDName@@XZ 0000000180006af8 f i libvcruntime:undname.obj
 0001:00005b14       ?getECSUDataType@UnDecorator@@CA?AVDName@@XZ 0000000180006b14 f   libvcruntime:undname.obj
 0001:00005cf4       ?getECSUName@UnDecorator@@CA?AVDName@@XZ 0000000180006cf4 f i libvcruntime:undname.obj
 0001:00005d0c       ?getEnumType@UnDecorator@@CA?AVDName@@XZ 0000000180006d0c f i libvcruntime:undname.obj
 0001:00005e34       ?getExtendedDataIndirectType@UnDecorator@@CA?AVDName@@AEAW4IndirectionKind@@AEA_NH@Z 0000000180006e34 f   libvcruntime:undname.obj
 0001:0000603c       ?getExternalDataType@UnDecorator@@CA?AVDName@@AEBV2@@Z 000000018000703c f i libvcruntime:undname.obj
 0001:000060fc       ?getFloatingPoint@UnDecorator@@CA?AVDName@@H@Z 00000001800070fc f   libvcruntime:undname.obj
 0001:0000621c       ?getFunctionIndirectType@UnDecorator@@CA?AVDName@@AEBV2@@Z 000000018000721c f   libvcruntime:undname.obj
 0001:00006754       ?getGuardNumber@UnDecorator@@CA?AVDName@@XZ 0000000180007754 f i libvcruntime:undname.obj
 0001:00006770       ?getLastChar@DName@@QEBADXZ 0000000180007770 f i libvcruntime:undname.obj
 0001:0000678c       ?getLastChar@DNameStatusNode@@UEBADXZ 000000018000778c f i libvcruntime:undname.obj
 0001:00006798       ?getLastChar@charNode@@UEBADXZ 0000000180007798 f i libvcruntime:undname.obj
 0001:0000679c       ?getLastChar@pDNameNode@@UEBADXZ 000000018000779c f i libvcruntime:undname.obj
 0001:000067c8       ?getLastChar@pairNode@@UEBADXZ 00000001800077c8 f i libvcruntime:undname.obj
 0001:00006800       ?getLastChar@pcharNode@@UEBADXZ 0000000180007800 f i libvcruntime:undname.obj
 0001:00006814       ?getLexicalFrame@UnDecorator@@CA?AVDName@@XZ 0000000180007814 f i libvcruntime:undname.obj
 0001:00006878       ?getMemoryWithBuffer@_HeapManager@@QEAAPEAX_K@Z 0000000180007878 f   libvcruntime:undname.obj
 0001:00006908       ?getMemoryWithoutBuffer@_HeapManager@@QEAAPEAX_K@Z 0000000180007908 f   libvcruntime:undname.obj
 0001:0000691c       ?getNoexcept@UnDecorator@@CA?AVDName@@XZ 000000018000791c f   libvcruntime:undname.obj
 0001:00006980       ?getNumberOfDimensions@UnDecorator@@CAHXZ 0000000180007980 f   libvcruntime:undname.obj
 0001:000069f4       ?getOperatorName@UnDecorator@@CA?AVDName@@_NPEA_N@Z 00000001800079f4 f i libvcruntime:undname.obj
 0001:0000723c       ?getPointerType@UnDecorator@@CA?AVDName@@AEBV2@0@Z 000000018000823c f i libvcruntime:undname.obj
 0001:0000725c       ?getPointerTypeArray@UnDecorator@@CA?AVDName@@AEBV2@0@Z 000000018000825c f i libvcruntime:undname.obj
 0001:00007278       ?getPrimaryDataType@UnDecorator@@CA?AVDName@@AEBV2@@Z 0000000180008278 f   libvcruntime:undname.obj
 0001:0000752c       ?getPtrRefDataType@UnDecorator@@CA?AVDName@@AEBV2@H@Z 000000018000852c f   libvcruntime:undname.obj
 0001:000076f8       ?getPtrRefType@UnDecorator@@CA?AVDName@@AEBV2@0W4IndirectionKind@@@Z 00000001800086f8 f   libvcruntime:undname.obj
 0001:000078d0       ?getReferenceType@UnDecorator@@CA?AVDName@@AEBV2@0W4IndirectionKind@@@Z 00000001800088d0 f i libvcruntime:undname.obj
 0001:000078e8       ?getRestrictionSpec@UnDecorator@@CA?AVDName@@XZ 00000001800088e8 f   libvcruntime:undname.obj
 0001:00007ab4       ?getReturnType@UnDecorator@@CA?AVDName@@PEAV2@@Z 0000000180008ab4 f   libvcruntime:undname.obj
 0001:00007ae8       ?getScope@UnDecorator@@CA?AVDName@@XZ 0000000180008ae8 f   libvcruntime:undname.obj
 0001:00007f9c       ?getScopedName@UnDecorator@@CA?AVDName@@XZ 0000000180008f9c f   libvcruntime:undname.obj
 0001:000080d8       ?getSignedDimension@UnDecorator@@CA?AVDName@@XZ 00000001800090d8 f   libvcruntime:undname.obj
 0001:00008160       ?getStorageConvention@UnDecorator@@CA?AVDName@@XZ 0000000180009160 f i libvcruntime:undname.obj
 0001:0000819c       ?getString@DName@@QEBAPEADPEAD0@Z 000000018000919c f i libvcruntime:undname.obj
 0001:000081b8       ?getString@DName@@QEBAPEADPEADH@Z 00000001800091b8 f i libvcruntime:undname.obj
 0001:0000824c       ?getString@DNameStatusNode@@UEBAPEADPEAD0@Z 000000018000924c f i libvcruntime:undname.obj
 0001:00008294       ?getString@charNode@@UEBAPEADPEAD0@Z 0000000180009294 f i libvcruntime:undname.obj
 0001:000082a8       ?getString@pDNameNode@@UEBAPEADPEAD0@Z 00000001800092a8 f i libvcruntime:undname.obj
 0001:000082d8       ?getString@pairNode@@UEBAPEADPEAD0@Z 00000001800092d8 f i libvcruntime:undname.obj
 0001:00008324       ?getString@pcharNode@@UEBAPEADPEAD0@Z 0000000180009324 f i libvcruntime:undname.obj
 0001:0000835c       ?getStringEncoding@UnDecorator@@CA?AVDName@@W4PrefixKind@@H@Z 000000018000935c f   libvcruntime:undname.obj
 0001:00008440       ?getStringHelper@@YAPEADPEADPEBD1H@Z 0000000180009440 f i libvcruntime:undname.obj
 0001:00008470       ?getStringObject@UnDecorator@@CA?AVDName@@XZ 0000000180009470 f   libvcruntime:undname.obj
 0001:000084d8       ?getSymbolName@UnDecorator@@CA?AVDName@@XZ 00000001800094d8 f i libvcruntime:undname.obj
 0001:00008524       ?getTemplateArgumentList@UnDecorator@@CA?AVDName@@XZ 0000000180009524 f   libvcruntime:undname.obj
 0001:00008798       ?getTemplateName@UnDecorator@@CA?AVDName@@_N@Z 0000000180009798 f   libvcruntime:undname.obj
 0001:00008a2c       ?getTemplateNonTypeArgument@UnDecorator@@CA?AVDName@@XZ 0000000180009a2c f   libvcruntime:undname.obj
 0001:00008ea8       ?getTemplateTypeArgument@UnDecorator@@CA?AVDName@@XZ 0000000180009ea8 f   libvcruntime:undname.obj
 0001:00009010       ?getThisType@UnDecorator@@CA?AVDName@@XZ 000000018000a010 f i libvcruntime:undname.obj
 0001:00009050       ?getThrowTypes@UnDecorator@@CA?AVDName@@XZ 000000018000a050 f   libvcruntime:undname.obj
 0001:00009074       ?getTypeEncoding@UnDecorator@@CAHXZ 000000018000a074 f i libvcruntime:undname.obj
 0001:000093e8       ?getUndecoratedName@UnDecorator@@QEAAPEADPEADH@Z 000000018000a3e8 f i libvcruntime:undname.obj
 0001:0000953c       ?getVCallThunkType@UnDecorator@@CA?AVDName@@XZ 000000018000a53c f i libvcruntime:undname.obj
 0001:000095b4       ?getValue@UnDecorator@@CA?AV?$optional@_K@std@@XZ 000000018000a5b4 f   libvcruntime:undname.obj
 0001:00009628       ?getValueObject@UnDecorator@@CA?AVDName@@XZ 000000018000a628 f   libvcruntime:undname.obj
 0001:00009778       ?getVbTableType@UnDecorator@@CA?AVDName@@AEBV2@@Z 000000018000a778 f i libvcruntime:undname.obj
 0001:00009790       ?getVdispMapType@UnDecorator@@CA?AVDName@@AEBV2@@Z 000000018000a790 f i libvcruntime:undname.obj
 0001:0000980c       ?getVfTableType@UnDecorator@@CA?AVDName@@AEBV2@@Z 000000018000a80c f i libvcruntime:undname.obj
 0001:00009a14       ?getZName@UnDecorator@@CA?AVDName@@_N0@Z 000000018000aa14 f   libvcruntime:undname.obj
 0001:00009cfc       ?haveTemplateParameters@UnDecorator@@SAHXZ 000000018000acfc f i libvcruntime:undname.obj
 0001:00009d08       ?isArray@DName@@QEBAHXZ    000000018000ad08 f i libvcruntime:undname.obj
 0001:00009d14       ?isComArray@DName@@QEBAHXZ 000000018000ad14 f i libvcruntime:undname.obj
 0001:00009d20       ?isEmpty@DName@@QEBAHXZ    000000018000ad20 f i libvcruntime:undname.obj
 0001:00009d2c       ?isFull@Replicator@@QEBAHXZ 000000018000ad2c f i libvcruntime:undname.obj
 0001:00009d38       ?isNoTE@DName@@QEBAHXZ     000000018000ad38 f i libvcruntime:undname.obj
 0001:00009d44       ?isPinPtr@DName@@QEBAHXZ   000000018000ad44 f i libvcruntime:undname.obj
 0001:00009d50       ?isPtrRef@DName@@QEBAHXZ   000000018000ad50 f i libvcruntime:undname.obj
 0001:00009d5c       ?isUDC@DName@@QEBAHXZ      000000018000ad5c f i libvcruntime:undname.obj
 0001:00009d74       ?isUDTThunk@DName@@QEBAHXZ 000000018000ad74 f i libvcruntime:undname.obj
 0001:00009d8c       ?isVCallThunk@DName@@QEBAHXZ 000000018000ad8c f i libvcruntime:undname.obj
 0001:00009d98       ?isValid@DName@@QEBAHXZ    000000018000ad98 f i libvcruntime:undname.obj
 0001:00009da4       ?length@DName@@QEBAHXZ     000000018000ada4 f i libvcruntime:undname.obj
 0001:00009dbc       ?length@DNameStatusNode@@UEBAHXZ 000000018000adbc f i libvcruntime:undname.obj
 0001:00009dc0       ?length@charNode@@UEBAHXZ  000000018000adc0 f i libvcruntime:undname.obj
 0001:00009dc8       ?length@pDNameNode@@UEBAHXZ 000000018000adc8 f i libvcruntime:undname.obj
 0001:00009df0       ?length@pairNode@@UEBAHXZ  000000018000adf0 f i libvcruntime:undname.obj
 0001:00009e38       ?length@pcharNode@@UEBAHXZ 000000018000ae38 f i libvcruntime:undname.obj
 0001:00009e3c       ?make@DNameStatusNode@@SAPEBV1@W4DNameStatus@@@Z 000000018000ae3c f i libvcruntime:undname.obj
 0001:00009e5c       ?parseDecoratedName@UnDecorator@@CA?AVDName@@XZ 000000018000ae5c f   libvcruntime:undname.obj
 0001:00009f70       ?raw_length@DNameStatusNode@@UEBAHXZ 000000018000af70 f i libvcruntime:undname.obj
 0001:00009f74       ?raw_length@charNode@@UEBAHXZ 000000018000af74 f i libvcruntime:undname.obj
 0001:00009f7c       ?raw_length@pDNameNode@@UEBAHXZ 000000018000af7c f i libvcruntime:undname.obj
 0001:00009f80       ?raw_length@pairNode@@UEBAHXZ 000000018000af80 f i libvcruntime:undname.obj
 0001:00009f84       ?raw_length@pcharNode@@UEBAHXZ 000000018000af84 f i libvcruntime:undname.obj
 0001:00009f88       ?setIsArray@DName@@QEAAXXZ 000000018000af88 f i libvcruntime:undname.obj
 0001:00009f90       ?setIsComArray@DName@@QEAAXXZ 000000018000af90 f i libvcruntime:undname.obj
 0001:00009f98       ?setIsNoTE@DName@@QEAAXXZ  000000018000af98 f i libvcruntime:undname.obj
 0001:00009fa0       ?setIsPinPtr@DName@@QEAAXXZ 000000018000afa0 f i libvcruntime:undname.obj
 0001:00009fa8       ?setIsUDC@DName@@QEAAXXZ   000000018000afa8 f i libvcruntime:undname.obj
 0001:00009fb4       ?setIsVCallThunk@DName@@QEAAXXZ 000000018000afb4 f i libvcruntime:undname.obj
 0001:00009fbc       ?setPtrRef@DName@@QEAAAEAV1@XZ 000000018000afbc f i libvcruntime:undname.obj
 0001:00009fc8       ?status@DName@@QEBA?AW4DNameStatus@@XZ 000000018000afc8 f i libvcruntime:undname.obj
 0001:0000a02c       __unDName                  000000018000b02c f   libvcruntime:undname.obj
 0001:0000a054       __unDNameEx                000000018000b054 f   libvcruntime:undname.obj
 0001:0000a188       _vsprintf_s_l              000000018000b188 f i libvcruntime:undname.obj
 0001:0000a1ec       sprintf_s                  000000018000b1ec f i libvcruntime:undname.obj
 0001:0000a240       unDNameGenerateCHPE        000000018000b240 f   libvcruntime:undname.obj
 0001:0000a348       ??$?RU__vcrt_ptd@@@__crt_internal_free_policy@@QEBAXQEBU__vcrt_ptd@@@Z 000000018000b348 f i libvcruntime:per_thread_data.obj
 0001:0000a350       ??0?$__crt_unique_heap_ptr@U__vcrt_ptd@@U__crt_internal_free_policy@@@@QEAA@QEAU__vcrt_ptd@@@Z 000000018000b350 f i libvcruntime:per_thread_data.obj
 0001:0000a374       ??1?$__crt_unique_heap_ptr@U__vcrt_ptd@@U__crt_internal_free_policy@@@@QEAA@XZ 000000018000b374 f i libvcruntime:per_thread_data.obj
 0001:0000a39c       ??B?$__crt_unique_heap_ptr@U__vcrt_ptd@@U__crt_internal_free_policy@@@@QEBA_NXZ 000000018000b39c f i libvcruntime:per_thread_data.obj
 0001:0000a3a4       ?detach@?$__crt_unique_heap_ptr@U__vcrt_ptd@@U__crt_internal_free_policy@@@@QEAAPEAU__vcrt_ptd@@XZ 000000018000b3a4 f i libvcruntime:per_thread_data.obj
 0001:0000a3ac       ?get@?$__crt_unique_heap_ptr@U__vcrt_ptd@@U__crt_internal_free_policy@@@@QEBAPEAU__vcrt_ptd@@XZ 000000018000b3ac f i libvcruntime:per_thread_data.obj
 0001:0000a3b0       ?is_valid@?$__crt_unique_heap_ptr@U__vcrt_ptd@@U__crt_internal_free_policy@@@@QEBA_NXZ 000000018000b3b0 f i libvcruntime:per_thread_data.obj
 0001:0000a3b8       ?release@?$__crt_unique_heap_ptr@U__vcrt_ptd@@U__crt_internal_free_policy@@@@QEAAXXZ 000000018000b3b8 f i libvcruntime:per_thread_data.obj
 0001:0000a400       __vcrt_freefls             000000018000b400 f   libvcruntime:per_thread_data.obj
 0001:0000a420       __vcrt_freeptd             000000018000b420 f   libvcruntime:per_thread_data.obj
 0001:0000a470       __vcrt_getptd              000000018000b470 f   libvcruntime:per_thread_data.obj
 0001:0000a48c       __vcrt_getptd_noexit       000000018000b48c f   libvcruntime:per_thread_data.obj
 0001:0000a54c       __vcrt_getptd_noinit       000000018000b54c f   libvcruntime:per_thread_data.obj
 0001:0000a59c       __vcrt_initialize_ptd      000000018000b59c f   libvcruntime:per_thread_data.obj
 0001:0000a5e4       __vcrt_uninitialize_ptd    000000018000b5e4 f   libvcruntime:per_thread_data.obj
 0001:0000a608       __vcrt_initialize_locks    000000018000b608 f   libvcruntime:locks.obj
 0001:0000a63c       __vcrt_lock                000000018000b63c f   libvcruntime:locks.obj
 0001:0000a658       __vcrt_uninitialize_locks  000000018000b658 f   libvcruntime:locks.obj
 0001:0000a690       __vcrt_unlock              000000018000b690 f   libvcruntime:locks.obj
 0001:0000a6ac       ??$__crt_interlocked_exchange_pointer@$$A6AXXZP6AXXZ@@YAP6AXXZPEDS6AXXZQ6AXXZ@Z 000000018000b6ac f i libvcruntime:purevirt.obj
 0001:0000a6b4       ??$__crt_interlocked_read_pointer@$$A6AXXZ@@YAP6AXXZPEDS6AXXZ@Z 000000018000b6b4 f i libvcruntime:purevirt.obj
 0001:0000a6b8       _get_purecall_handler      000000018000b6b8 f   libvcruntime:purevirt.obj
 0001:0000a6c0       _purecall                  000000018000b6c0 f   libvcruntime:purevirt.obj
 0001:0000a6dc       _set_purecall_handler      000000018000b6dc f   libvcruntime:purevirt.obj
 0001:0000a6e8       ??$?0AEAViterator@TryBlockMap4@FH4@@AEAV012@$0A@@?$pair@Viterator@TryBlockMap4@FH4@@V123@@std@@QEAA@AEAViterator@TryBlockMap4@FH4@@0@Z 000000018000b6e8 f i libvcruntime:risctrnsctrl.obj
 0001:0000a6fc       ??$?0AEAViterator@TryBlockMap@__FrameHandler3@@AEAV012@$0A@@?$pair@Viterator@TryBlockMap@__FrameHandler3@@V123@@std@@QEAA@AEAViterator@TryBlockMap@__FrameHandler3@@0@Z 000000018000b6fc f i libvcruntime:risctrnsctrl.obj
 0001:0000a84c       ??$_CallSETranslator@V__FrameHandler3@@@@YAHPEAUEHExceptionRecord@@PEA_KPEAU_CONTEXT@@PEAU_xDISPATCHER_CONTEXT@@PEBU_s_FuncInfo@@K1H@Z 000000018000b84c f i libvcruntime:risctrnsctrl.obj
 0001:0000a8a0       ??$_CallSETranslator@V__FrameHandler4@@@@YAHPEAUEHExceptionRecord@@PEA_KPEAU_CONTEXT@@PEAU_xDISPATCHER_CONTEXT@@PEAUFuncInfo4@FH4@@K1H@Z 000000018000b8a0 f i libvcruntime:risctrnsctrl.obj
 0001:0000a8f4       ??$forward@AEAViterator@TryBlockMap4@FH4@@@std@@YAAEAViterator@TryBlockMap4@FH4@@AEAV123@@Z 000000018000b8f4 f i libvcruntime:risctrnsctrl.obj
 0001:0000a8f8       ??$forward@AEAViterator@TryBlockMap@__FrameHandler3@@@std@@YAAEAViterator@TryBlockMap@__FrameHandler3@@AEAV123@@Z 000000018000b8f8 f i libvcruntime:risctrnsctrl.obj
 0001:0000a8fc       ??0FuncInfo4@FH4@@QEAA@XZ  000000018000b8fc f i libvcruntime:risctrnsctrl.obj
 0001:0000a910       ??0FuncInfoHeader@FH4@@QEAA@XZ 000000018000b910 f i libvcruntime:risctrnsctrl.obj
 0001:0000a918       ??0iterator@TryBlockMap4@FH4@@QEAA@AEAV12@I@Z 000000018000b918 f i libvcruntime:risctrnsctrl.obj
 0001:0000a924       ??0iterator@TryBlockMap@__FrameHandler3@@QEAA@AEAV12@I@Z 000000018000b924 f i libvcruntime:risctrnsctrl.obj
 0001:0000a930       ??4iterator@TryBlockMap4@FH4@@QEAAAEAV012@AEBV012@@Z 000000018000b930 f i libvcruntime:risctrnsctrl.obj
 0001:0000a93c       ??9iterator@TryBlockMap4@FH4@@QEBA_NAEBV012@@Z 000000018000b93c f i libvcruntime:risctrnsctrl.obj
 0001:0000a948       ??Diterator@TryBlockMap4@FH4@@QEAA?AUTryBlockMapEntry4@2@XZ 000000018000b948 f i libvcruntime:risctrnsctrl.obj
 0001:0000a958       ??Eiterator@TryBlockMap4@FH4@@QEAAAEAV012@XZ 000000018000b958 f i libvcruntime:risctrnsctrl.obj
 0001:0000a9f4       ?CatchTryBlock@__FrameHandler3@@SAPEBU_s_TryBlockMapEntry@@PEBU_s_FuncInfo@@H@Z 000000018000b9f4 f   libvcruntime:risctrnsctrl.obj
 0001:0000aa48       ?DecompFuncInfo@FH4@@YA_JPEAEAEAUFuncInfo4@1@_KH@Z 000000018000ba48 f i libvcruntime:risctrnsctrl.obj
 0001:0000aa5c       ?DecompFuncInfo@FH4@@YA_JPEAEAEAUFuncInfo4@1@_KH_N@Z 000000018000ba5c f i libvcruntime:risctrnsctrl.obj
 0001:0000ab80       ?DecompTryBlock@TryBlockMap4@FH4@@AEAAXXZ 000000018000bb80 f i libvcruntime:risctrnsctrl.obj
 0001:0000ac14       ?ExecutionInCatch@__FrameHandler3@@SA_NPEAU_xDISPATCHER_CONTEXT@@PEBU_s_FuncInfo@@@Z 000000018000bc14 f   libvcruntime:risctrnsctrl.obj
 0001:0000ac40       ?ExecutionInCatch@__FrameHandler4@@SA_NPEAU_xDISPATCHER_CONTEXT@@PEAUFuncInfo4@FH4@@@Z 000000018000bc40 f   libvcruntime:risctrnsctrl.obj
 0001:0000ac48       ?FrameUnwindToEmptyState@__FrameHandler3@@SAXPEA_KPEAU_xDISPATCHER_CONTEXT@@PEBU_s_FuncInfo@@@Z 000000018000bc48 f   libvcruntime:risctrnsctrl.obj
 0001:0000acac       ?FrameUnwindToEmptyState@__FrameHandler4@@SAXPEA_KPEAU_xDISPATCHER_CONTEXT@@PEAUFuncInfo4@FH4@@@Z 000000018000bcac f   libvcruntime:risctrnsctrl.obj
 0001:0000ace0       ?GetEstablisherFrame@__FrameHandler3@@SAPEA_KPEA_KPEAU_xDISPATCHER_CONTEXT@@PEBU_s_FuncInfo@@0@Z 000000018000bce0 f   libvcruntime:risctrnsctrl.obj
 0001:0000adac       ?GetEstablisherFrame@__FrameHandler4@@SAPEA_KPEA_KPEAU_xDISPATCHER_CONTEXT@@PEAUFuncInfo4@FH4@@0@Z 000000018000bdac f   libvcruntime:risctrnsctrl.obj
 0001:0000add0       ?GetRangeOfTrysToCheck@__FrameHandler3@@SA?AU?$pair@Viterator@TryBlockMap@__FrameHandler3@@V123@@std@@AEAVTryBlockMap@1@HPEAU_xDISPATCHER_CONTEXT@@PEBU_s_FuncInfo@@H@Z 000000018000bdd0 f   libvcruntime:risctrnsctrl.obj
 0001:0000af10       ?GetRangeOfTrysToCheck@__FrameHandler4@@SA?AU?$pair@Viterator@TryBlockMap4@FH4@@V123@@std@@AEAVTryBlockMap4@FH4@@HPEAU_xDISPATCHER_CONTEXT@@PEAUFuncInfo4@5@H@Z 000000018000bf10 f   libvcruntime:risctrnsctrl.obj
 0001:0000b078       ?ReadInt@FH4@@YAHPEAPEAE@Z 000000018000c078 f i libvcruntime:risctrnsctrl.obj
 0001:0000b088       ?ReadUnsigned@FH4@@YAIPEAPEAE@Z 000000018000c088 f i libvcruntime:risctrnsctrl.obj
 0001:0000b0b8       ?UnwindNestedFrames@__FrameHandler3@@SAXPEA_KPEAUEHExceptionRecord@@PEAU_CONTEXT@@0PEAXPEBU_s_FuncInfo@@HHPEBU_s_HandlerType@@PEAU_xDISPATCHER_CONTEXT@@E@Z 000000018000c0b8 f   libvcruntime:risctrnsctrl.obj
 0001:0000b1bc       ?UnwindNestedFrames@__FrameHandler4@@SAXPEA_KPEAUEHExceptionRecord@@PEAU_CONTEXT@@0PEAXPEAUFuncInfo4@FH4@@HHPEAUHandlerType4@5@PEAU_xDISPATCHER_CONTEXT@@E@Z 000000018000c1bc f   libvcruntime:risctrnsctrl.obj
 0001:0000b2dc       ?begin@TryBlockMap4@FH4@@QEAA?AViterator@12@XZ 000000018000c2dc f i libvcruntime:risctrnsctrl.obj
 0001:0000b2e8       ?end@TryBlockMap4@FH4@@QEAA?AViterator@12@XZ 000000018000c2e8 f i libvcruntime:risctrnsctrl.obj
 0001:0000b2f4       ?imageRelToByteBuffer@FH4@@YAPEAE_KH@Z 000000018000c2f4 f i libvcruntime:risctrnsctrl.obj
 0001:0000b2fc       ?incrementToSentinel@iterator@TryBlockMap4@FH4@@QEAAXXZ 000000018000c2fc f i libvcruntime:risctrnsctrl.obj
 0001:0000b300       ?setBuffer@TryBlockMap4@FH4@@QEAAXViterator@12@@Z 000000018000c300 f i libvcruntime:risctrnsctrl.obj
 0001:0000b4c0       _CreateFrameInfo           000000018000c4c0 f   libvcruntime:risctrnsctrl.obj
 0001:0000b4fc       _FindAndUnlinkFrame        000000018000c4fc f   libvcruntime:risctrnsctrl.obj
 0001:0000b550       _GetImageBase              000000018000c550 f   libvcruntime:risctrnsctrl.obj
 0001:0000b564       _GetThrowImageBase         000000018000c564 f   libvcruntime:risctrnsctrl.obj
 0001:0000b578       _SetImageBase              000000018000c578 f   libvcruntime:risctrnsctrl.obj
 0001:0000b590       _SetThrowImageBase         000000018000c590 f   libvcruntime:risctrnsctrl.obj
 0001:0000b5a8       __CxxFrameHandler          000000018000c5a8 f   libvcruntime:risctrnsctrl.obj
 0001:0000b5b0       __CxxFrameHandler2         000000018000c5b0 f   libvcruntime:risctrnsctrl.obj
 0001:0000b5b8       __CxxFrameHandler3         000000018000c5b8 f   libvcruntime:risctrnsctrl.obj
 0001:0000b640       __CxxFrameHandler4         000000018000c640 f   libvcruntime:risctrnsctrl.obj
 0001:0000b710       memcpy_repmovs             000000018000c710 f   libvcruntime:memcpy.obj
 0001:0000b730       memmove                    000000018000c730 f   libvcruntime:memcpy.obj
 0001:0000b730       memcpy                     000000018000c730 f   libvcruntime:memcpy.obj
 0001:0000bb08       ??$__crt_interlocked_exchange_pointer@UHINSTANCE__@@PEAU1@@@YAPEAUHINSTANCE__@@PEDSEAU0@QEAU0@@Z 000000018000cb08 f i libvcruntime:winapi_downlevel.obj
 0001:0000bb10       ??$__crt_interlocked_exchange_pointer@UHINSTANCE__@@PEAX@@YAPEAUHINSTANCE__@@PEDSEAU0@QEAX@Z 000000018000cb10 f i libvcruntime:winapi_downlevel.obj
 0001:0000bb18       ??$__crt_interlocked_exchange_pointer@XPEAX@@YAPEAXPEDSEAXQEAX@Z 000000018000cb18 f i libvcruntime:winapi_downlevel.obj
 0001:0000bb20       ??$__crt_interlocked_read_pointer@UHINSTANCE__@@@@YAPEAUHINSTANCE__@@PEDSEAU0@@Z 000000018000cb20 f i libvcruntime:winapi_downlevel.obj
 0001:0000bb24       ??$__crt_interlocked_read_pointer@X@@YAPEAXPEDSEAX@Z 000000018000cb24 f i libvcruntime:winapi_downlevel.obj
 0001:0000c058       __vcrt_FlsAlloc            000000018000d058 f   libvcruntime:winapi_downlevel.obj
 0001:0000c0a0       __vcrt_FlsFree             000000018000d0a0 f   libvcruntime:winapi_downlevel.obj
 0001:0000c0e8       __vcrt_FlsGetValue         000000018000d0e8 f   libvcruntime:winapi_downlevel.obj
 0001:0000c130       __vcrt_FlsSetValue         000000018000d130 f   libvcruntime:winapi_downlevel.obj
 0001:0000c184       __vcrt_InitializeCriticalSectionEx 000000018000d184 f   libvcruntime:winapi_downlevel.obj
 0001:0000c1e8       ?GetCurrentState@__FrameHandler3@@SAHPEA_KPEAU_xDISPATCHER_CONTEXT@@PEBU_s_FuncInfo@@@Z 000000018000d1e8 f   libvcruntime:ehstate.obj
 0001:0000c210       ?GetUnwindTryBlock@__FrameHandler3@@SAHPEA_KPEAU_xDISPATCHER_CONTEXT@@PEBU_s_FuncInfo@@@Z 000000018000d210 f   libvcruntime:ehstate.obj
 0001:0000c23c       ?SetState@__FrameHandler3@@SAXPEA_KPEBU_s_FuncInfo@@H@Z 000000018000d23c f   libvcruntime:ehstate.obj
 0001:0000c248       ?SetUnwindTryBlock@__FrameHandler3@@SAXPEA_KPEAU_xDISPATCHER_CONTEXT@@PEBU_s_FuncInfo@@H@Z 000000018000d248 f   libvcruntime:ehstate.obj
 0001:0000c284       ?StateFromControlPc@__FrameHandler3@@SAHPEBU_s_FuncInfo@@PEAU_xDISPATCHER_CONTEXT@@@Z 000000018000d284 f   libvcruntime:ehstate.obj
 0001:0000c28c       ?StateFromControlPc@__FrameHandler4@@SAHPEAUFuncInfo4@FH4@@PEAU_xDISPATCHER_CONTEXT@@@Z 000000018000d28c f   libvcruntime:ehstate.obj
 0001:0000c294       ?StateFromIp@__FrameHandler3@@SAHPEBU_s_FuncInfo@@PEAU_xDISPATCHER_CONTEXT@@_K@Z 000000018000d294 f   libvcruntime:ehstate.obj
 0001:0000c2fc       ?StateFromIp@__FrameHandler4@@SAHPEAUFuncInfo4@FH4@@PEAU_xDISPATCHER_CONTEXT@@_K@Z 000000018000d2fc f   libvcruntime:ehstate.obj
 0001:0000c3e4       ?__FuncRelToRealOffset@@YA_KPEAU_xDISPATCHER_CONTEXT@@I@Z 000000018000d3e4 f i libvcruntime:ehstate.obj
 0001:0000c3f4       ?__RVAtoRealOffset@@YA_KPEAU_xDISPATCHER_CONTEXT@@H@Z 000000018000d3f4 f i libvcruntime:ehstate.obj
 0001:0000da38       ??$TypeMatchHelper@V__FrameHandler3@@@@YAHPEBU_s_HandlerType@@PEBU_s_CatchableType@@PEBU_s_ThrowInfo@@@Z 000000018000ea38 f i libvcruntime:frame.obj
 0001:0000db78       ??$TypeMatchHelper@V__FrameHandler4@@@@YAHPEAUHandlerType4@FH4@@PEBU_s_CatchableType@@PEBU_s_ThrowInfo@@@Z 000000018000eb78 f i libvcruntime:frame.obj
 0001:0000dcbc       ??$__InternalCxxFrameHandler@V__FrameHandler3@@@@YA?AW4_EXCEPTION_DISPOSITION@@PEAUEHExceptionRecord@@PEA_KPEAU_CONTEXT@@PEAU_xDISPATCHER_CONTEXT@@PEBU_s_FuncInfo@@H1E@Z 000000018000ecbc f i libvcruntime:frame.obj
 0001:0000def4       ??$__InternalCxxFrameHandler@V__FrameHandler4@@@@YA?AW4_EXCEPTION_DISPOSITION@@PEAUEHExceptionRecord@@PEA_KPEAU_CONTEXT@@PEAU_xDISPATCHER_CONTEXT@@PEAUFuncInfo4@FH4@@H1E@Z 000000018000eef4 f i libvcruntime:frame.obj
 0001:0000e188       ??0HandlerMap4@FH4@@QEAA@PEBUTryBlockMapEntry4@1@_KH@Z 000000018000f188 f i libvcruntime:frame.obj
 0001:0000e204       ??0HandlerMap@__FrameHandler3@@QEAA@PEBU_s_TryBlockMapEntry@@_KI@Z 000000018000f204 f i libvcruntime:frame.obj
 0001:0000e218       ??0HandlerType4@FH4@@QEAA@XZ 000000018000f218 f i libvcruntime:frame.obj
 0001:0000e230       ??0TryBlockMap4@FH4@@QEAA@PEBUFuncInfo4@1@_K@Z 000000018000f230 f i libvcruntime:frame.obj
 0001:0000e308       ??0TryBlockMap@__FrameHandler3@@QEAA@PEBU_s_FuncInfo@@_K@Z 000000018000f308 f i libvcruntime:frame.obj
 0001:0000e314       ??0UWMap4@FH4@@QEAA@PEBUFuncInfo4@1@_K@Z 000000018000f314 f i libvcruntime:frame.obj
 0001:0000e358       ??0bad_exception@std@@QEAA@AEBV01@@Z 000000018000f358 f i libvcruntime:frame.obj
 0001:0000e394       ??0bad_exception@std@@QEAA@XZ 000000018000f394 f i libvcruntime:frame.obj
 0001:0000e3b4       ??0exception@std@@QEAA@AEBV01@@Z 000000018000f3b4 f i libvcruntime:frame.obj
 0001:0000e3e8       ??0exception@std@@QEAA@QEBDH@Z 000000018000f3e8 f i libvcruntime:frame.obj
 0001:0000e400       ??0iterator@HandlerMap4@FH4@@QEAA@AEAV12@I@Z 000000018000f400 f i libvcruntime:frame.obj
 0001:0000e40c       ??0iterator@HandlerMap@__FrameHandler3@@QEAA@AEAV12@I@Z 000000018000f40c f i libvcruntime:frame.obj
 0001:0000e418       ??0iterator@UWMap4@FH4@@QEAA@AEAV12@PEAE@Z 000000018000f418 f i libvcruntime:frame.obj
 0001:0000e424       ??1bad_exception@std@@UEAA@XZ 000000018000f424 f i libvcruntime:frame.obj
 0001:0000e438       ??1exception@std@@UEAA@XZ  000000018000f438 f i libvcruntime:frame.obj
 0001:0000e44c       ??4iterator@UWMap4@FH4@@QEAAAEAV012@AEBV012@@Z 000000018000f44c f i libvcruntime:frame.obj
 0001:0000e46c       ??8iterator@HandlerMap4@FH4@@QEBA_NAEBV012@@Z 000000018000f46c f i libvcruntime:frame.obj
 0001:0000e478       ??8iterator@HandlerMap@__FrameHandler3@@QEBA_NAEBV012@@Z 000000018000f478 f i libvcruntime:frame.obj
 0001:0000e484       ??8type_info@@QEBA_NAEBV0@@Z 000000018000f484 f i libvcruntime:frame.obj
 0001:0000e4a0       ??9iterator@HandlerMap4@FH4@@QEBA_NAEBV012@@Z 000000018000f4a0 f i libvcruntime:frame.obj
 0001:0000e4ac       ??9iterator@HandlerMap@__FrameHandler3@@QEBA_NAEBV012@@Z 000000018000f4ac f i libvcruntime:frame.obj
 0001:0000e4b8       ??Diterator@HandlerMap4@FH4@@QEAA?AUHandlerType4@2@XZ 000000018000f4b8 f i libvcruntime:frame.obj
 0001:0000e4d8       ??Diterator@HandlerMap@__FrameHandler3@@QEAA?BU_s_HandlerType@@XZ 000000018000f4d8 f i libvcruntime:frame.obj
 0001:0000e4fc       ??Diterator@TryBlockMap@__FrameHandler3@@QEAA?BU_s_TryBlockMapEntry@@XZ 000000018000f4fc f i libvcruntime:frame.obj
 0001:0000e52c       ??Diterator@UWMap4@FH4@@QEAA?AUUnwindMapEntry4@2@XZ 000000018000f52c f i libvcruntime:frame.obj
 0001:0000e580       ??Eiterator@HandlerMap4@FH4@@QEAAAEAV012@XZ 000000018000f580 f i libvcruntime:frame.obj
 0001:0000e5a0       ??Eiterator@HandlerMap@__FrameHandler3@@QEAAAEAV012@XZ 000000018000f5a0 f i libvcruntime:frame.obj
 0001:0000e5a8       ??Eiterator@TryBlockMap@__FrameHandler3@@QEAAAEAV012@XZ 000000018000f5a8 f i libvcruntime:frame.obj
 0001:0000e5b0       ??Eiterator@UWMap4@FH4@@QEAAAEAV012@XZ 000000018000f5b0 f i libvcruntime:frame.obj
 0001:0000e5d0       ??Giterator@UWMap4@FH4@@QEBA_JAEBV012@@Z 000000018000f5d0 f i libvcruntime:frame.obj
 0001:0000e5dc       ??Miterator@TryBlockMap4@FH4@@QEBA_NAEBV012@@Z 000000018000f5dc f i libvcruntime:frame.obj
 0001:0000e5e8       ??Miterator@TryBlockMap@__FrameHandler3@@QEBA_NAEBV012@@Z 000000018000f5e8 f i libvcruntime:frame.obj
 0001:0000e5f4       ??Oiterator@UWMap4@FH4@@QEBA_NAEBV012@@Z 000000018000f5f4 f i libvcruntime:frame.obj
 0001:0000e600       ??Piterator@UWMap4@FH4@@QEBA_NAEBV012@@Z 000000018000f600 f i libvcruntime:frame.obj
 0001:0000e60c       ??_Gbad_exception@std@@UEAAPEAXI@Z 000000018000f60c f i libvcruntime:frame.obj
 0001:0000e60c       ??_Ebad_exception@std@@UEAAPEAXI@Z 000000018000f60c f i libvcruntime:frame.obj
 0001:0000e650       ??_Gexception@std@@UEAAPEAXI@Z 000000018000f650 f i libvcruntime:frame.obj
 0001:0000e650       ??_Eexception@std@@UEAAPEAXI@Z 000000018000f650 f i libvcruntime:frame.obj
 0001:0000e694       ?BuildCatchObject@__FrameHandler3@@SAXPEAUEHExceptionRecord@@PEAXPEBU_s_HandlerType@@PEBU_s_CatchableType@@@Z 000000018000f694 f   libvcruntime:frame.obj
 0001:0000e69c       ?BuildCatchObject@__FrameHandler4@@SAXPEAUEHExceptionRecord@@PEAXPEAUHandlerType4@FH4@@PEBU_s_CatchableType@@@Z 000000018000f69c f   libvcruntime:frame.obj
 0001:0000e6a4       ?BuildCatchObjectHelper@__FrameHandler3@@SAHPEAUEHExceptionRecord@@PEAXPEBU_s_HandlerType@@PEBU_s_CatchableType@@@Z 000000018000f6a4 f   libvcruntime:frame.obj
 0001:0000e6ac       ?BuildCatchObjectHelper@__FrameHandler4@@SAHPEAUEHExceptionRecord@@PEAXPEAUHandlerType4@FH4@@PEBU_s_CatchableType@@@Z 000000018000f6ac f   libvcruntime:frame.obj
 0001:0000e6b4       ?CxxCallCatchBlock@__FrameHandler3@@SAPEAXPEAU_EXCEPTION_RECORD@@@Z 000000018000f6b4 f   libvcruntime:frame.obj
 0001:0000e8a0       ?CxxCallCatchBlock@__FrameHandler4@@SAPEAXPEAU_EXCEPTION_RECORD@@@Z 000000018000f8a0 f   libvcruntime:frame.obj
 0001:0000eaf0       ?DecompHandler@HandlerMap4@FH4@@AEAAXXZ 000000018000faf0 f i libvcruntime:frame.obj
 0001:0000ed30       ?FrameUnwindToState@__FrameHandler3@@SAXPEA_KPEAU_xDISPATCHER_CONTEXT@@PEBU_s_FuncInfo@@H@Z 000000018000fd30 f   libvcruntime:frame.obj
 0001:0000eebc       ?FrameUnwindToState@__FrameHandler4@@SAXPEA_KPEAU_xDISPATCHER_CONTEXT@@PEAUFuncInfo4@FH4@@H@Z 000000018000febc f   libvcruntime:frame.obj
 0001:0000f1a4       ?GetHandlerSearchState@__FrameHandler3@@SAHPEA_KPEAU_xDISPATCHER_CONTEXT@@PEBU_s_FuncInfo@@@Z 00000001800101a4 f i libvcruntime:frame.obj
 0001:0000f23c       ?GetHandlerSearchState@__FrameHandler4@@SAHPEA_KPEAU_xDISPATCHER_CONTEXT@@PEAUFuncInfo4@FH4@@@Z 000000018001023c f i libvcruntime:frame.obj
 0001:0000f2a0       ?GetMaxState@__FrameHandler3@@SAHPEAU_xDISPATCHER_CONTEXT@@PEBU_s_FuncInfo@@@Z 00000001800102a0 f i libvcruntime:frame.obj
 0001:0000f2a4       ?GetMaxState@__FrameHandler4@@SAHPEAU_xDISPATCHER_CONTEXT@@PEAUFuncInfo4@FH4@@@Z 00000001800102a4 f i libvcruntime:frame.obj
 0001:0000f454       ?ReadEntry@UWMap4@FH4@@AEAAXPEAPEAE@Z 0000000180010454 f i libvcruntime:frame.obj
 0001:0000f4f4       ?TypeMatch@__FrameHandler3@@SAHPEBU_s_HandlerType@@PEBU_s_CatchableType@@PEBU_s_ThrowInfo@@@Z 00000001800104f4 f   libvcruntime:frame.obj
 0001:0000f4fc       ?TypeMatch@__FrameHandler4@@SAHPEAUHandlerType4@FH4@@PEBU_s_CatchableType@@PEBU_s_ThrowInfo@@@Z 00000001800104fc f   libvcruntime:frame.obj
 0001:0000f504       ?WalkBack@UWMap4@FH4@@AEAAXPEAPEAE@Z 0000000180010504 f i libvcruntime:frame.obj
 0001:0000f53c       ?WalkBack@iterator@UWMap4@FH4@@QEAAXXZ 000000018001053c f i libvcruntime:frame.obj
 0001:0000f57c       ?WalkForward@UWMap4@FH4@@AEAAXPEAPEAE@Z 000000018001057c f i libvcruntime:frame.obj
 0001:0000f584       ?_CallMemberFunction1@@YAXQEAX00@Z 0000000180010584 f i libvcruntime:frame.obj
 0001:0000f590       ?_CallMemberFunction2@@YAXQEAX00H@Z 0000000180010590 f i libvcruntime:frame.obj
 0001:0000f5b4       ?begin@HandlerMap4@FH4@@QEAA?AViterator@12@XZ 00000001800105b4 f i libvcruntime:frame.obj
 0001:0000f5c0       ?begin@HandlerMap@__FrameHandler3@@QEAA?AViterator@12@XZ 00000001800105c0 f i libvcruntime:frame.obj
 0001:0000f5cc       ?begin@UWMap4@FH4@@QEAA?AViterator@12@XZ 00000001800105cc f i libvcruntime:frame.obj
 0001:0000f5dc       ?end@HandlerMap4@FH4@@QEAA?AViterator@12@XZ 00000001800105dc f i libvcruntime:frame.obj
 0001:0000f5e8       ?end@HandlerMap@__FrameHandler3@@QEAA?AViterator@12@XZ 00000001800105e8 f i libvcruntime:frame.obj
 0001:0000f5f4       ?getESTypes@__FrameHandler3@@SAPEBU_s_ESTypeList@@PEBU_s_FuncInfo@@@Z 00000001800105f4 f i libvcruntime:frame.obj
 0001:0000f61c       ?getESTypes@__FrameHandler4@@SAPEBU_s_ESTypeList@@PEAUFuncInfo4@FH4@@@Z 000000018001061c f i libvcruntime:frame.obj
 0001:0000f620       ?getLastEntry@HandlerMap4@FH4@@QEAAPEAUHandlerType4@2@XZ 0000000180010620 f i libvcruntime:frame.obj
 0001:0000f670       ?getLastEntry@HandlerMap@__FrameHandler3@@QEAAPEBU_s_HandlerType@@XZ 0000000180010670 f i libvcruntime:frame.obj
 0001:0000f684       ?getMagicNum@__FrameHandler3@@SAIPEBU_s_FuncInfo@@@Z 0000000180010684 f i libvcruntime:frame.obj
 0001:0000f68c       ?getMagicNum@__FrameHandler4@@SAIPEAUFuncInfo4@FH4@@@Z 000000018001068c f i libvcruntime:frame.obj
 0001:0000f694       ?getNumTryBlocks@TryBlockMap4@FH4@@QEAAIXZ 0000000180010694 f i libvcruntime:frame.obj
 0001:0000f698       ?getNumTryBlocks@TryBlockMap@__FrameHandler3@@QEAAIXZ 0000000180010698 f i libvcruntime:frame.obj
 0001:0000f6a0       ?getStartStop@UWMap4@FH4@@QEAAXHHAEAViterator@12@0@Z 00000001800106a0 f i libvcruntime:frame.obj
 0001:0000f770       ?getStateFromIterators@UWMap4@FH4@@SAHAEBViterator@12@H0H0@Z 0000000180010770 f i libvcruntime:frame.obj
 0001:0000f838       ?isEHs@__FrameHandler3@@SA_NPEBU_s_FuncInfo@@@Z 0000000180010838 f i libvcruntime:frame.obj
 0001:0000f840       ?isEHs@__FrameHandler4@@SA_NPEAUFuncInfo4@FH4@@@Z 0000000180010840 f i libvcruntime:frame.obj
 0001:0000f848       ?isNoExcept@__FrameHandler3@@SA_NPEBU_s_FuncInfo@@@Z 0000000180010848 f i libvcruntime:frame.obj
 0001:0000f854       ?isNoExcept@__FrameHandler4@@SA_NPEAUFuncInfo4@FH4@@@Z 0000000180010854 f i libvcruntime:frame.obj
 0001:0000f85c       ?reset@HandlerType4@FH4@@QEAAXXZ 000000018001085c f i libvcruntime:frame.obj
 0001:0000f870       ?resetBuffer@HandlerMap4@FH4@@QEAAXXZ 0000000180010870 f i libvcruntime:frame.obj
 0001:0000f880       ?setBuffer@HandlerMap4@FH4@@QEAAXI@Z 0000000180010880 f i libvcruntime:frame.obj
 0001:0000f8bc       ?what@exception@std@@UEBAPEBDXZ 00000001800108bc f i libvcruntime:frame.obj
 0001:0000f8d0       __BuildCatchObject         00000001800108d0 f   libvcruntime:frame.obj
 0001:0000f8d8       __BuildCatchObjectHelper   00000001800108d8 f   libvcruntime:frame.obj
 0001:0000f8e0       __TypeMatch                00000001800108e0 f   libvcruntime:frame.obj
 0001:0000f8e8       __vcrt_EncodePointer       00000001800108e8 f i libvcruntime:frame.obj
 0001:0000f900       _CallSettingFrame          0000000180010900 f   libvcruntime:handlers.obj
 0001:0000f950       _CallSettingFrame_LookupContinuationIndex 0000000180010950 f   libvcruntime:handlers.obj
 0001:0000f980       _CallSettingFrame_NotifyContinuationAddr 0000000180010980 f   libvcruntime:handlers.obj
 0001:0000f9b0       _CallSettingFrameEncoded   00000001800109b0 f   libvcruntime:handlers.obj
 0001:0000f9f8       ??$?RD@__crt_public_free_policy@@QEBAXQEBD@Z 00000001800109f8 f i libvcruntime:std_exception.obj
 0001:0000fa00       ??0?$__crt_unique_heap_ptr@DU__crt_public_free_policy@@@@QEAA@QEAD@Z 0000000180010a00 f i libvcruntime:std_exception.obj
 0001:0000fa08       ??1?$__crt_unique_heap_ptr@DU__crt_public_free_policy@@@@QEAA@XZ 0000000180010a08 f i libvcruntime:std_exception.obj
 0001:0000fa24       ??B?$__crt_unique_heap_ptr@DU__crt_public_free_policy@@@@QEBA_NXZ 0000000180010a24 f i libvcruntime:std_exception.obj
 0001:0000fa2c       ?detach@?$__crt_unique_heap_ptr@DU__crt_public_free_policy@@@@QEAAPEADXZ 0000000180010a2c f i libvcruntime:std_exception.obj
 0001:0000fa34       ?get@?$__crt_unique_heap_ptr@DU__crt_public_free_policy@@@@QEBAPEADXZ 0000000180010a34 f i libvcruntime:std_exception.obj
 0001:0000fa38       ?is_valid@?$__crt_unique_heap_ptr@DU__crt_public_free_policy@@@@QEBA_NXZ 0000000180010a38 f i libvcruntime:std_exception.obj
 0001:0000fa40       ?release@?$__crt_unique_heap_ptr@DU__crt_public_free_policy@@@@QEAAXXZ 0000000180010a40 f i libvcruntime:std_exception.obj
 0001:0000fa5c       __std_exception_copy       0000000180010a5c f   libvcruntime:std_exception.obj
 0001:0000faec       __std_exception_destroy    0000000180010aec f   libvcruntime:std_exception.obj
 0001:0000fb14       _CxxThrowException         0000000180010b14 f   libvcruntime:throw.obj
 0001:0000fbb4       ??$?RPEAU__crt_stdio_stream_data@@@__crt_internal_free_policy@@QEBAXQEBQEAU__crt_stdio_stream_data@@@Z 0000000180010bb4 f i libucrt:_file.obj
 0001:0000fbbc       ??0?$__crt_unique_heap_ptr@PEAU__crt_stdio_stream_data@@U__crt_internal_free_policy@@@@QEAA@QEAPEAU__crt_stdio_stream_data@@@Z 0000000180010bbc f i libucrt:_file.obj
 0001:0000fbc4       ??0__crt_stdio_stream@@QEAA@QEAU_iobuf@@@Z 0000000180010bc4 f i libucrt:_file.obj
 0001:0000fbcc       ??1?$__crt_unique_heap_ptr@PEAU__crt_stdio_stream_data@@U__crt_internal_free_policy@@@@QEAA@XZ 0000000180010bcc f i libucrt:_file.obj
 0001:0000fbe8       ??C__crt_stdio_stream@@QEBAPEAU__crt_stdio_stream_data@@XZ 0000000180010be8 f i libucrt:_file.obj
 0001:0000fbec       ?detach@?$__crt_unique_heap_ptr@PEAU__crt_stdio_stream_data@@U__crt_internal_free_policy@@@@QEAAPEAPEAU__crt_stdio_stream_data@@XZ 0000000180010bec f i libucrt:_file.obj
 0001:0000fbf4       ?release@?$__crt_unique_heap_ptr@PEAU__crt_stdio_stream_data@@U__crt_internal_free_policy@@@@QEAAXXZ 0000000180010bf4 f i libucrt:_file.obj
 0001:0000fc10       __acrt_initialize_stdio    0000000180010c10 f   libucrt:_file.obj
 0001:0000fd30       __acrt_iob_func            0000000180010d30 f   libucrt:_file.obj
 0001:0000fd44       __acrt_uninitialize_stdio  0000000180010d44 f   libucrt:_file.obj
 0001:0000fda0       _get_stream_buffer_pointers 0000000180010da0 f   libucrt:_file.obj
 0001:0000fde8       _lock_file                 0000000180010de8 f   libucrt:_file.obj
 0001:0000fdf4       _unlock_file               0000000180010df4 f   libucrt:_file.obj
 0001:0000fe00       ??$__crt_interlocked_read@J@@YAJPEDJ@Z 0000000180010e00 f i libucrt:fclose.obj
 0001:0000fe04       ?__crt_interlocked_read_32@@YAHPEDH@Z 0000000180010e04 f i libucrt:fclose.obj
 0001:0000fe08       ?get_flags@__crt_stdio_stream@@QEBAJXZ 0000000180010e08 f i libucrt:fclose.obj
 0001:0000fe10       ?is_in_use@__crt_stdio_stream@@QEBA_NXZ 0000000180010e10 f i libucrt:fclose.obj
 0001:0000fe1c       ?is_string_backed@__crt_stdio_stream@@QEBA_NXZ 0000000180010e1c f i libucrt:fclose.obj
 0001:0000fe28       ?public_stream@__crt_stdio_stream@@QEBAPEAU_iobuf@@XZ 0000000180010e28 f i libucrt:fclose.obj
 0001:0000fe2c       ?valid@__crt_stdio_stream@@QEBA_NXZ 0000000180010e2c f i libucrt:fclose.obj
 0001:0000fe34       _fclose_nolock             0000000180010e34 f   libucrt:fclose.obj
 0001:0000feb8       fclose                     0000000180010eb8 f   libucrt:fclose.obj
 0001:0001014c       ??$open_file@AEBQEBDAEBQEBDAEBHPEAU_iobuf@@@?$__crt_char_traits@D@@SAPEAU_iobuf@@AEBQEBD0AEBH$$QEAPEAU1@@Z 000000018001114c f i libucrt:fopen.obj
 0001:00010160       ??$open_file@AEBQEB_WAEBQEB_WAEBHPEAU_iobuf@@@?$__crt_char_traits@_W@@SAPEAU_iobuf@@AEBQEB_W0AEBH$$QEAPEAU1@@Z 0000000180011160 f i libucrt:fopen.obj
 0001:00010174       ?unlock@__crt_stdio_stream@@QEBAXXZ 0000000180011174 f i libucrt:fopen.obj
 0001:0001017c       _fsopen                    000000018001117c f   libucrt:fopen.obj
 0001:00010184       _wfopen                    0000000180011184 f   libucrt:fopen.obj
 0001:00010190       _wfopen_s                  0000000180011190 f   libucrt:fopen.obj
 0001:000101e8       _wfsopen                   00000001800111e8 f   libucrt:fopen.obj
 0001:000101f0       fopen                      00000001800111f0 f   libucrt:fopen.obj
 0001:000101fc       fopen_s                    00000001800111fc f   libucrt:fopen.obj
 0001:000103dc       ?detach@?$__crt_unique_heap_ptr@DU__crt_internal_free_policy@@@@QEAAPEADXZ 00000001800113dc f i libucrt:setvbuf.obj
 0001:000103fc       ?set_flags@__crt_stdio_stream@@QEBA_NJ@Z 00000001800113fc f i libucrt:setvbuf.obj
 0001:0001041c       ?unset_flags@__crt_stdio_stream@@QEBA_NJ@Z 000000018001141c f i libucrt:setvbuf.obj
 0001:00010444       setvbuf                    0000000180011444 f   libucrt:setvbuf.obj
 0001:000104e0       ??$?0AEBV?$stream_output_adapter@D@__crt_stdio_output@@AEB_KAEBQEBDAEBQEAU__crt_locale_pointers@@AEBQEAD@?$format_validation_base@DV?$stream_output_adapter@D@__crt_stdio_output@@@__crt_stdio_output@@IEAA@AEBV?$stream_output_adapter@D@1@AEB_KAEBQEBDAEBQEAU__crt_locale_pointers@@AEBQEAD@Z 00000001800114e0 f i libucrt:output.obj
 0001:00010564       ??$?0AEBV?$stream_output_adapter@D@__crt_stdio_output@@AEB_KAEBQEBDAEBQEAU__crt_locale_pointers@@AEBQEAD@?$positional_parameter_base@DV?$stream_output_adapter@D@__crt_stdio_output@@@__crt_stdio_output@@IEAA@AEBV?$stream_output_adapter@D@1@AEB_KAEBQEBDAEBQEAU__crt_locale_pointers@@AEBQEAD@Z 0000000180011564 f i libucrt:output.obj
 0001:00010604       ??$?0AEBV?$stream_output_adapter@D@__crt_stdio_output@@AEB_KAEBQEBDAEBQEAU__crt_locale_pointers@@AEBQEAD@?$standard_base@DV?$stream_output_adapter@D@__crt_stdio_output@@@__crt_stdio_output@@IEAA@AEBV?$stream_output_adapter@D@1@AEB_KAEBQEBDAEBQEAU__crt_locale_pointers@@AEBQEAD@Z 0000000180011604 f i libucrt:output.obj
 0001:00010688       ??$?0AEBV?$stream_output_adapter@_W@__crt_stdio_output@@AEB_KAEBQEB_WAEBQEAU__crt_locale_pointers@@AEBQEAD@?$format_validation_base@_WV?$stream_output_adapter@_W@__crt_stdio_output@@@__crt_stdio_output@@IEAA@AEBV?$stream_output_adapter@_W@1@AEB_KAEBQEB_WAEBQEAU__crt_locale_pointers@@AEBQEAD@Z 0000000180011688 f i libucrt:output.obj
 0001:00010710       ??$?0AEBV?$stream_output_adapter@_W@__crt_stdio_output@@AEB_KAEBQEB_WAEBQEAU__crt_locale_pointers@@AEBQEAD@?$positional_parameter_base@_WV?$stream_output_adapter@_W@__crt_stdio_output@@@__crt_stdio_output@@IEAA@AEBV?$stream_output_adapter@_W@1@AEB_KAEBQEB_WAEBQEAU__crt_locale_pointers@@AEBQEAD@Z 0000000180011710 f i libucrt:output.obj
 0001:000107b4       ??$?0AEBV?$stream_output_adapter@_W@__crt_stdio_output@@AEB_KAEBQEB_WAEBQEAU__crt_locale_pointers@@AEBQEAD@?$standard_base@_WV?$stream_output_adapter@_W@__crt_stdio_output@@@__crt_stdio_output@@IEAA@AEBV?$stream_output_adapter@_W@1@AEB_KAEBQEB_WAEBQEAU__crt_locale_pointers@@AEBQEAD@Z 00000001800117b4 f i libucrt:output.obj
 0001:0001083c       ??$?0AEBV?$string_output_adapter@D@__crt_stdio_output@@AEB_KAEBQEBDAEBQEAU__crt_locale_pointers@@AEBQEAD@?$format_validation_base@DV?$string_output_adapter@D@__crt_stdio_output@@@__crt_stdio_output@@IEAA@AEBV?$string_output_adapter@D@1@AEB_KAEBQEBDAEBQEAU__crt_locale_pointers@@AEBQEAD@Z 000000018001183c f i libucrt:output.obj
 0001:000108c0       ??$?0AEBV?$string_output_adapter@D@__crt_stdio_output@@AEB_KAEBQEBDAEBQEAU__crt_locale_pointers@@AEBQEAD@?$positional_parameter_base@DV?$string_output_adapter@D@__crt_stdio_output@@@__crt_stdio_output@@IEAA@AEBV?$string_output_adapter@D@1@AEB_KAEBQEBDAEBQEAU__crt_locale_pointers@@AEBQEAD@Z 00000001800118c0 f i libucrt:output.obj
 0001:00010960       ??$?0AEBV?$string_output_adapter@D@__crt_stdio_output@@AEB_KAEBQEBDAEBQEAU__crt_locale_pointers@@AEBQEAD@?$standard_base@DV?$string_output_adapter@D@__crt_stdio_output@@@__crt_stdio_output@@IEAA@AEBV?$string_output_adapter@D@1@AEB_KAEBQEBDAEBQEAU__crt_locale_pointers@@AEBQEAD@Z 0000000180011960 f i libucrt:output.obj
 0001:000109e4       ??$?0AEBV?$string_output_adapter@_W@__crt_stdio_output@@AEB_KAEBQEB_WAEBQEAU__crt_locale_pointers@@AEBQEAD@?$format_validation_base@_WV?$string_output_adapter@_W@__crt_stdio_output@@@__crt_stdio_output@@IEAA@AEBV?$string_output_adapter@_W@1@AEB_KAEBQEB_WAEBQEAU__crt_locale_pointers@@AEBQEAD@Z 00000001800119e4 f i libucrt:output.obj
 0001:00010a6c       ??$?0AEBV?$string_output_adapter@_W@__crt_stdio_output@@AEB_KAEBQEB_WAEBQEAU__crt_locale_pointers@@AEBQEAD@?$positional_parameter_base@_WV?$string_output_adapter@_W@__crt_stdio_output@@@__crt_stdio_output@@IEAA@AEBV?$string_output_adapter@_W@1@AEB_KAEBQEB_WAEBQEAU__crt_locale_pointers@@AEBQEAD@Z 0000000180011a6c f i libucrt:output.obj
 0001:00010b10       ??$?0AEBV?$string_output_adapter@_W@__crt_stdio_output@@AEB_KAEBQEB_WAEBQEAU__crt_locale_pointers@@AEBQEAD@?$standard_base@_WV?$string_output_adapter@_W@__crt_stdio_output@@@__crt_stdio_output@@IEAA@AEBV?$string_output_adapter@_W@1@AEB_KAEBQEB_WAEBQEAU__crt_locale_pointers@@AEBQEAD@Z 0000000180011b10 f i libucrt:output.obj
 0001:00011f50       ??$count@D@formatting_buffer@__crt_stdio_output@@QEBA_KXZ 0000000180012f50 f i libucrt:output.obj
 0001:00011f6c       ??$count@_W@formatting_buffer@__crt_stdio_output@@QEBA_KXZ 0000000180012f6c f i libucrt:output.obj
 0001:00011f88       ??$data@D@formatting_buffer@__crt_stdio_output@@QEAAPEADXZ 0000000180012f88 f i libucrt:output.obj
 0001:00011f98       ??$data@_W@formatting_buffer@__crt_stdio_output@@QEAAPEA_WXZ 0000000180012f98 f i libucrt:output.obj
 0001:00011fa8       ??$ensure_buffer_is_big_enough@D@formatting_buffer@__crt_stdio_output@@QEAA_N_K@Z 0000000180012fa8 f i libucrt:output.obj
 0001:00012050       ??$ensure_buffer_is_big_enough@_W@formatting_buffer@__crt_stdio_output@@QEAA_N_K@Z 0000000180013050 f i libucrt:output.obj
 0001:000120fc       ??$extract_argument_from_va_list@C_J@?$positional_parameter_base@DV?$stream_output_adapter@D@__crt_stdio_output@@@__crt_stdio_output@@IEAA_NAEA_J@Z 00000001800130fc f i libucrt:output.obj
 0001:000121b8       ??$extract_argument_from_va_list@C_J@?$positional_parameter_base@DV?$string_output_adapter@D@__crt_stdio_output@@@__crt_stdio_output@@IEAA_NAEA_J@Z 00000001800131b8 f i libucrt:output.obj
 0001:00012274       ??$extract_argument_from_va_list@C_J@?$positional_parameter_base@_WV?$stream_output_adapter@_W@__crt_stdio_output@@@__crt_stdio_output@@IEAA_NAEA_J@Z 0000000180013274 f i libucrt:output.obj
 0001:00012334       ??$extract_argument_from_va_list@C_J@?$positional_parameter_base@_WV?$string_output_adapter@_W@__crt_stdio_output@@@__crt_stdio_output@@IEAA_NAEA_J@Z 0000000180013334 f i libucrt:output.obj
 0001:000123f4       ??$extract_argument_from_va_list@C_J@?$standard_base@DV?$stream_output_adapter@D@__crt_stdio_output@@@__crt_stdio_output@@IEAA_NAEA_J@Z 00000001800133f4 f i libucrt:output.obj
 0001:00012408       ??$extract_argument_from_va_list@C_J@?$standard_base@DV?$string_output_adapter@D@__crt_stdio_output@@@__crt_stdio_output@@IEAA_NAEA_J@Z 0000000180013408 f i libucrt:output.obj
 0001:0001241c       ??$extract_argument_from_va_list@C_J@?$standard_base@_WV?$stream_output_adapter@_W@__crt_stdio_output@@@__crt_stdio_output@@IEAA_NAEA_J@Z 000000018001341c f i libucrt:output.obj
 0001:00012430       ??$extract_argument_from_va_list@C_J@?$standard_base@_WV?$string_output_adapter@_W@__crt_stdio_output@@@__crt_stdio_output@@IEAA_NAEA_J@Z 0000000180013430 f i libucrt:output.obj
 0001:00012444       ??$extract_argument_from_va_list@E_J@?$positional_parameter_base@DV?$stream_output_adapter@D@__crt_stdio_output@@@__crt_stdio_output@@IEAA_NAEA_J@Z 0000000180013444 f i libucrt:output.obj
 0001:00012500       ??$extract_argument_from_va_list@E_J@?$positional_parameter_base@DV?$string_output_adapter@D@__crt_stdio_output@@@__crt_stdio_output@@IEAA_NAEA_J@Z 0000000180013500 f i libucrt:output.obj
 0001:000125bc       ??$extract_argument_from_va_list@E_J@?$positional_parameter_base@_WV?$stream_output_adapter@_W@__crt_stdio_output@@@__crt_stdio_output@@IEAA_NAEA_J@Z 00000001800135bc f i libucrt:output.obj
 0001:0001267c       ??$extract_argument_from_va_list@E_J@?$positional_parameter_base@_WV?$string_output_adapter@_W@__crt_stdio_output@@@__crt_stdio_output@@IEAA_NAEA_J@Z 000000018001367c f i libucrt:output.obj
 0001:0001273c       ??$extract_argument_from_va_list@E_J@?$standard_base@DV?$stream_output_adapter@D@__crt_stdio_output@@@__crt_stdio_output@@IEAA_NAEA_J@Z 000000018001373c f i libucrt:output.obj
 0001:00012750       ??$extract_argument_from_va_list@E_J@?$standard_base@DV?$string_output_adapter@D@__crt_stdio_output@@@__crt_stdio_output@@IEAA_NAEA_J@Z 0000000180013750 f i libucrt:output.obj
 0001:00012764       ??$extract_argument_from_va_list@E_J@?$standard_base@_WV?$stream_output_adapter@_W@__crt_stdio_output@@@__crt_stdio_output@@IEAA_NAEA_J@Z 0000000180013764 f i libucrt:output.obj
 0001:00012778       ??$extract_argument_from_va_list@E_J@?$standard_base@_WV?$string_output_adapter@_W@__crt_stdio_output@@@__crt_stdio_output@@IEAA_NAEA_J@Z 0000000180013778 f i libucrt:output.obj
 0001:0001278c       ??$extract_argument_from_va_list@F_J@?$positional_parameter_base@DV?$stream_output_adapter@D@__crt_stdio_output@@@__crt_stdio_output@@IEAA_NAEA_J@Z 000000018001378c f i libucrt:output.obj
 0001:00012848       ??$extract_argument_from_va_list@F_J@?$positional_parameter_base@DV?$string_output_adapter@D@__crt_stdio_output@@@__crt_stdio_output@@IEAA_NAEA_J@Z 0000000180013848 f i libucrt:output.obj
 0001:00012904       ??$extract_argument_from_va_list@F_J@?$positional_parameter_base@_WV?$stream_output_adapter@_W@__crt_stdio_output@@@__crt_stdio_output@@IEAA_NAEA_J@Z 0000000180013904 f i libucrt:output.obj
 0001:000129c4       ??$extract_argument_from_va_list@F_J@?$positional_parameter_base@_WV?$string_output_adapter@_W@__crt_stdio_output@@@__crt_stdio_output@@IEAA_NAEA_J@Z 00000001800139c4 f i libucrt:output.obj
 0001:00012a84       ??$extract_argument_from_va_list@F_J@?$standard_base@DV?$stream_output_adapter@D@__crt_stdio_output@@@__crt_stdio_output@@IEAA_NAEA_J@Z 0000000180013a84 f i libucrt:output.obj
 0001:00012a98       ??$extract_argument_from_va_list@F_J@?$standard_base@DV?$string_output_adapter@D@__crt_stdio_output@@@__crt_stdio_output@@IEAA_NAEA_J@Z 0000000180013a98 f i libucrt:output.obj
 0001:00012aac       ??$extract_argument_from_va_list@F_J@?$standard_base@_WV?$stream_output_adapter@_W@__crt_stdio_output@@@__crt_stdio_output@@IEAA_NAEA_J@Z 0000000180013aac f i libucrt:output.obj
 0001:00012ac0       ??$extract_argument_from_va_list@F_J@?$standard_base@_WV?$string_output_adapter@_W@__crt_stdio_output@@@__crt_stdio_output@@IEAA_NAEA_J@Z 0000000180013ac0 f i libucrt:output.obj
 0001:00012ad4       ??$extract_argument_from_va_list@GD@?$positional_parameter_base@DV?$stream_output_adapter@D@__crt_stdio_output@@@__crt_stdio_output@@IEAA_NAEAD@Z 0000000180013ad4 f i libucrt:output.obj
 0001:00012b8c       ??$extract_argument_from_va_list@GD@?$positional_parameter_base@DV?$string_output_adapter@D@__crt_stdio_output@@@__crt_stdio_output@@IEAA_NAEAD@Z 0000000180013b8c f i libucrt:output.obj
 0001:00012c44       ??$extract_argument_from_va_list@GD@?$standard_base@DV?$stream_output_adapter@D@__crt_stdio_output@@@__crt_stdio_output@@IEAA_NAEAD@Z 0000000180013c44 f i libucrt:output.obj
 0001:00012c58       ??$extract_argument_from_va_list@GD@?$standard_base@DV?$string_output_adapter@D@__crt_stdio_output@@@__crt_stdio_output@@IEAA_NAEAD@Z 0000000180013c58 f i libucrt:output.obj
 0001:00012c6c       ??$extract_argument_from_va_list@G_J@?$positional_parameter_base@DV?$stream_output_adapter@D@__crt_stdio_output@@@__crt_stdio_output@@IEAA_NAEA_J@Z 0000000180013c6c f i libucrt:output.obj
 0001:00012d28       ??$extract_argument_from_va_list@G_J@?$positional_parameter_base@DV?$string_output_adapter@D@__crt_stdio_output@@@__crt_stdio_output@@IEAA_NAEA_J@Z 0000000180013d28 f i libucrt:output.obj
 0001:00012de4       ??$extract_argument_from_va_list@G_J@?$positional_parameter_base@_WV?$stream_output_adapter@_W@__crt_stdio_output@@@__crt_stdio_output@@IEAA_NAEA_J@Z 0000000180013de4 f i libucrt:output.obj
 0001:00012ea4       ??$extract_argument_from_va_list@G_J@?$positional_parameter_base@_WV?$string_output_adapter@_W@__crt_stdio_output@@@__crt_stdio_output@@IEAA_NAEA_J@Z 0000000180013ea4 f i libucrt:output.obj
 0001:00012f64       ??$extract_argument_from_va_list@G_J@?$standard_base@DV?$stream_output_adapter@D@__crt_stdio_output@@@__crt_stdio_output@@IEAA_NAEA_J@Z 0000000180013f64 f i libucrt:output.obj
 0001:00012f78       ??$extract_argument_from_va_list@G_J@?$standard_base@DV?$string_output_adapter@D@__crt_stdio_output@@@__crt_stdio_output@@IEAA_NAEA_J@Z 0000000180013f78 f i libucrt:output.obj
 0001:00012f8c       ??$extract_argument_from_va_list@G_J@?$standard_base@_WV?$stream_output_adapter@_W@__crt_stdio_output@@@__crt_stdio_output@@IEAA_NAEA_J@Z 0000000180013f8c f i libucrt:output.obj
 0001:00012fa0       ??$extract_argument_from_va_list@G_J@?$standard_base@_WV?$string_output_adapter@_W@__crt_stdio_output@@@__crt_stdio_output@@IEAA_NAEA_J@Z 0000000180013fa0 f i libucrt:output.obj
 0001:00012fb4       ??$extract_argument_from_va_list@H_J@?$positional_parameter_base@DV?$stream_output_adapter@D@__crt_stdio_output@@@__crt_stdio_output@@IEAA_NAEA_J@Z 0000000180013fb4 f i libucrt:output.obj
 0001:00013070       ??$extract_argument_from_va_list@H_J@?$positional_parameter_base@DV?$string_output_adapter@D@__crt_stdio_output@@@__crt_stdio_output@@IEAA_NAEA_J@Z 0000000180014070 f i libucrt:output.obj
 0001:0001312c       ??$extract_argument_from_va_list@H_J@?$positional_parameter_base@_WV?$stream_output_adapter@_W@__crt_stdio_output@@@__crt_stdio_output@@IEAA_NAEA_J@Z 000000018001412c f i libucrt:output.obj
 0001:000131e8       ??$extract_argument_from_va_list@H_J@?$positional_parameter_base@_WV?$string_output_adapter@_W@__crt_stdio_output@@@__crt_stdio_output@@IEAA_NAEA_J@Z 00000001800141e8 f i libucrt:output.obj
 0001:000132a4       ??$extract_argument_from_va_list@H_J@?$standard_base@DV?$stream_output_adapter@D@__crt_stdio_output@@@__crt_stdio_output@@IEAA_NAEA_J@Z 00000001800142a4 f i libucrt:output.obj
 0001:000132b8       ??$extract_argument_from_va_list@H_J@?$standard_base@DV?$string_output_adapter@D@__crt_stdio_output@@@__crt_stdio_output@@IEAA_NAEA_J@Z 00000001800142b8 f i libucrt:output.obj
 0001:000132cc       ??$extract_argument_from_va_list@H_J@?$standard_base@_WV?$stream_output_adapter@_W@__crt_stdio_output@@@__crt_stdio_output@@IEAA_NAEA_J@Z 00000001800142cc f i libucrt:output.obj
 0001:000132e0       ??$extract_argument_from_va_list@H_J@?$standard_base@_WV?$string_output_adapter@_W@__crt_stdio_output@@@__crt_stdio_output@@IEAA_NAEA_J@Z 00000001800142e0 f i libucrt:output.obj
 0001:000132f4       ??$extract_argument_from_va_list@I_J@?$positional_parameter_base@DV?$stream_output_adapter@D@__crt_stdio_output@@@__crt_stdio_output@@IEAA_NAEA_J@Z 00000001800142f4 f i libucrt:output.obj
 0001:000133b0       ??$extract_argument_from_va_list@I_J@?$positional_parameter_base@DV?$string_output_adapter@D@__crt_stdio_output@@@__crt_stdio_output@@IEAA_NAEA_J@Z 00000001800143b0 f i libucrt:output.obj
 0001:0001346c       ??$extract_argument_from_va_list@I_J@?$positional_parameter_base@_WV?$stream_output_adapter@_W@__crt_stdio_output@@@__crt_stdio_output@@IEAA_NAEA_J@Z 000000018001446c f i libucrt:output.obj
 0001:00013528       ??$extract_argument_from_va_list@I_J@?$positional_parameter_base@_WV?$string_output_adapter@_W@__crt_stdio_output@@@__crt_stdio_output@@IEAA_NAEA_J@Z 0000000180014528 f i libucrt:output.obj
 0001:000135e4       ??$extract_argument_from_va_list@I_J@?$standard_base@DV?$stream_output_adapter@D@__crt_stdio_output@@@__crt_stdio_output@@IEAA_NAEA_J@Z 00000001800145e4 f i libucrt:output.obj
 0001:000135f8       ??$extract_argument_from_va_list@I_J@?$standard_base@DV?$string_output_adapter@D@__crt_stdio_output@@@__crt_stdio_output@@IEAA_NAEA_J@Z 00000001800145f8 f i libucrt:output.obj
 0001:0001360c       ??$extract_argument_from_va_list@I_J@?$standard_base@_WV?$stream_output_adapter@_W@__crt_stdio_output@@@__crt_stdio_output@@IEAA_NAEA_J@Z 000000018001460c f i libucrt:output.obj
 0001:00013620       ??$extract_argument_from_va_list@I_J@?$standard_base@_WV?$string_output_adapter@_W@__crt_stdio_output@@@__crt_stdio_output@@IEAA_NAEA_J@Z 0000000180014620 f i libucrt:output.obj
 0001:00013634       ??$extract_argument_from_va_list@PEADPEAD@?$positional_parameter_base@DV?$stream_output_adapter@D@__crt_stdio_output@@@__crt_stdio_output@@IEAA_NAEAPEAD@Z 0000000180014634 f i libucrt:output.obj
 0001:000136f0       ??$extract_argument_from_va_list@PEADPEAD@?$positional_parameter_base@DV?$string_output_adapter@D@__crt_stdio_output@@@__crt_stdio_output@@IEAA_NAEAPEAD@Z 00000001800146f0 f i libucrt:output.obj
 0001:000137ac       ??$extract_argument_from_va_list@PEADPEAD@?$positional_parameter_base@_WV?$stream_output_adapter@_W@__crt_stdio_output@@@__crt_stdio_output@@IEAA_NAEAPEAD@Z 00000001800147ac f i libucrt:output.obj
 0001:00013868       ??$extract_argument_from_va_list@PEADPEAD@?$positional_parameter_base@_WV?$string_output_adapter@_W@__crt_stdio_output@@@__crt_stdio_output@@IEAA_NAEAPEAD@Z 0000000180014868 f i libucrt:output.obj
 0001:00013924       ??$extract_argument_from_va_list@PEADPEAD@?$standard_base@DV?$stream_output_adapter@D@__crt_stdio_output@@@__crt_stdio_output@@IEAA_NAEAPEAD@Z 0000000180014924 f i libucrt:output.obj
 0001:00013938       ??$extract_argument_from_va_list@PEADPEAD@?$standard_base@DV?$string_output_adapter@D@__crt_stdio_output@@@__crt_stdio_output@@IEAA_NAEAPEAD@Z 0000000180014938 f i libucrt:output.obj
 0001:0001394c       ??$extract_argument_from_va_list@PEADPEAD@?$standard_base@_WV?$stream_output_adapter@_W@__crt_stdio_output@@@__crt_stdio_output@@IEAA_NAEAPEAD@Z 000000018001494c f i libucrt:output.obj
 0001:00013960       ??$extract_argument_from_va_list@PEADPEAD@?$standard_base@_WV?$string_output_adapter@_W@__crt_stdio_output@@@__crt_stdio_output@@IEAA_NAEAPEAD@Z 0000000180014960 f i libucrt:output.obj
 0001:00013d54       ??$extract_argument_from_va_list@PEAXPEAX@?$positional_parameter_base@DV?$stream_output_adapter@D@__crt_stdio_output@@@__crt_stdio_output@@IEAA_NAEAPEAX@Z 0000000180014d54 f i libucrt:output.obj
 0001:00013e10       ??$extract_argument_from_va_list@PEAXPEAX@?$positional_parameter_base@DV?$string_output_adapter@D@__crt_stdio_output@@@__crt_stdio_output@@IEAA_NAEAPEAX@Z 0000000180014e10 f i libucrt:output.obj
 0001:00013ecc       ??$extract_argument_from_va_list@PEAXPEAX@?$positional_parameter_base@_WV?$stream_output_adapter@_W@__crt_stdio_output@@@__crt_stdio_output@@IEAA_NAEAPEAX@Z 0000000180014ecc f i libucrt:output.obj
 0001:00013f88       ??$extract_argument_from_va_list@PEAXPEAX@?$positional_parameter_base@_WV?$string_output_adapter@_W@__crt_stdio_output@@@__crt_stdio_output@@IEAA_NAEAPEAX@Z 0000000180014f88 f i libucrt:output.obj
 0001:00014044       ??$extract_argument_from_va_list@PEAXPEAX@?$standard_base@DV?$stream_output_adapter@D@__crt_stdio_output@@@__crt_stdio_output@@IEAA_NAEAPEAX@Z 0000000180015044 f i libucrt:output.obj
 0001:00014058       ??$extract_argument_from_va_list@PEAXPEAX@?$standard_base@DV?$string_output_adapter@D@__crt_stdio_output@@@__crt_stdio_output@@IEAA_NAEAPEAX@Z 0000000180015058 f i libucrt:output.obj
 0001:0001406c       ??$extract_argument_from_va_list@PEAXPEAX@?$standard_base@_WV?$stream_output_adapter@_W@__crt_stdio_output@@@__crt_stdio_output@@IEAA_NAEAPEAX@Z 000000018001506c f i libucrt:output.obj
 0001:00014080       ??$extract_argument_from_va_list@PEAXPEAX@?$standard_base@_WV?$string_output_adapter@_W@__crt_stdio_output@@@__crt_stdio_output@@IEAA_NAEAPEAX@Z 0000000180015080 f i libucrt:output.obj
 0001:00014094       ??$extract_argument_from_va_list@U_CRT_DOUBLE@@U1@@?$positional_parameter_base@DV?$stream_output_adapter@D@__crt_stdio_output@@@__crt_stdio_output@@IEAA_NAEAU_CRT_DOUBLE@@@Z 0000000180015094 f i libucrt:output.obj
 0001:00014150       ??$extract_argument_from_va_list@U_CRT_DOUBLE@@U1@@?$positional_parameter_base@DV?$string_output_adapter@D@__crt_stdio_output@@@__crt_stdio_output@@IEAA_NAEAU_CRT_DOUBLE@@@Z 0000000180015150 f i libucrt:output.obj
 0001:0001420c       ??$extract_argument_from_va_list@U_CRT_DOUBLE@@U1@@?$positional_parameter_base@_WV?$stream_output_adapter@_W@__crt_stdio_output@@@__crt_stdio_output@@IEAA_NAEAU_CRT_DOUBLE@@@Z 000000018001520c f i libucrt:output.obj
 0001:000142c8       ??$extract_argument_from_va_list@U_CRT_DOUBLE@@U1@@?$positional_parameter_base@_WV?$string_output_adapter@_W@__crt_stdio_output@@@__crt_stdio_output@@IEAA_NAEAU_CRT_DOUBLE@@@Z 00000001800152c8 f i libucrt:output.obj
 0001:00014384       ??$extract_argument_from_va_list@U_CRT_DOUBLE@@U1@@?$standard_base@DV?$stream_output_adapter@D@__crt_stdio_output@@@__crt_stdio_output@@IEAA_NAEAU_CRT_DOUBLE@@@Z 0000000180015384 f i libucrt:output.obj
 0001:0001439c       ??$extract_argument_from_va_list@U_CRT_DOUBLE@@U1@@?$standard_base@DV?$string_output_adapter@D@__crt_stdio_output@@@__crt_stdio_output@@IEAA_NAEAU_CRT_DOUBLE@@@Z 000000018001539c f i libucrt:output.obj
 0001:000143b4       ??$extract_argument_from_va_list@U_CRT_DOUBLE@@U1@@?$standard_base@_WV?$stream_output_adapter@_W@__crt_stdio_output@@@__crt_stdio_output@@IEAA_NAEAU_CRT_DOUBLE@@@Z 00000001800153b4 f i libucrt:output.obj
 0001:000143cc       ??$extract_argument_from_va_list@U_CRT_DOUBLE@@U1@@?$standard_base@_WV?$string_output_adapter@_W@__crt_stdio_output@@@__crt_stdio_output@@IEAA_NAEAU_CRT_DOUBLE@@@Z 00000001800153cc f i libucrt:output.obj
 0001:000143e4       ??$extract_argument_from_va_list@_J_J@?$positional_parameter_base@DV?$stream_output_adapter@D@__crt_stdio_output@@@__crt_stdio_output@@IEAA_NAEA_J@Z 00000001800153e4 f i libucrt:output.obj
 0001:000144a0       ??$extract_argument_from_va_list@_J_J@?$positional_parameter_base@DV?$string_output_adapter@D@__crt_stdio_output@@@__crt_stdio_output@@IEAA_NAEA_J@Z 00000001800154a0 f i libucrt:output.obj
 0001:0001455c       ??$extract_argument_from_va_list@_J_J@?$positional_parameter_base@_WV?$stream_output_adapter@_W@__crt_stdio_output@@@__crt_stdio_output@@IEAA_NAEA_J@Z 000000018001555c f i libucrt:output.obj
 0001:00014618       ??$extract_argument_from_va_list@_J_J@?$positional_parameter_base@_WV?$string_output_adapter@_W@__crt_stdio_output@@@__crt_stdio_output@@IEAA_NAEA_J@Z 0000000180015618 f i libucrt:output.obj
 0001:000146d4       ??$extract_argument_from_va_list@_J_J@?$standard_base@DV?$stream_output_adapter@D@__crt_stdio_output@@@__crt_stdio_output@@IEAA_NAEA_J@Z 00000001800156d4 f i libucrt:output.obj
 0001:000146e8       ??$extract_argument_from_va_list@_J_J@?$standard_base@DV?$string_output_adapter@D@__crt_stdio_output@@@__crt_stdio_output@@IEAA_NAEA_J@Z 00000001800156e8 f i libucrt:output.obj
 0001:000146fc       ??$extract_argument_from_va_list@_J_J@?$standard_base@_WV?$stream_output_adapter@_W@__crt_stdio_output@@@__crt_stdio_output@@IEAA_NAEA_J@Z 00000001800156fc f i libucrt:output.obj
 0001:00014710       ??$extract_argument_from_va_list@_J_J@?$standard_base@_WV?$string_output_adapter@_W@__crt_stdio_output@@@__crt_stdio_output@@IEAA_NAEA_J@Z 0000000180015710 f i libucrt:output.obj
 0001:00014724       ??$extract_argument_from_va_list@_K_J@?$positional_parameter_base@DV?$stream_output_adapter@D@__crt_stdio_output@@@__crt_stdio_output@@IEAA_NAEA_J@Z 0000000180015724 f i libucrt:output.obj
 0001:000147e0       ??$extract_argument_from_va_list@_K_J@?$positional_parameter_base@DV?$string_output_adapter@D@__crt_stdio_output@@@__crt_stdio_output@@IEAA_NAEA_J@Z 00000001800157e0 f i libucrt:output.obj
 0001:0001489c       ??$extract_argument_from_va_list@_K_J@?$positional_parameter_base@_WV?$stream_output_adapter@_W@__crt_stdio_output@@@__crt_stdio_output@@IEAA_NAEA_J@Z 000000018001589c f i libucrt:output.obj
 0001:00014958       ??$extract_argument_from_va_list@_K_J@?$positional_parameter_base@_WV?$string_output_adapter@_W@__crt_stdio_output@@@__crt_stdio_output@@IEAA_NAEA_J@Z 0000000180015958 f i libucrt:output.obj
 0001:00014a14       ??$extract_argument_from_va_list@_K_J@?$standard_base@DV?$stream_output_adapter@D@__crt_stdio_output@@@__crt_stdio_output@@IEAA_NAEA_J@Z 0000000180015a14 f i libucrt:output.obj
 0001:00014a28       ??$extract_argument_from_va_list@_K_J@?$standard_base@DV?$string_output_adapter@D@__crt_stdio_output@@@__crt_stdio_output@@IEAA_NAEA_J@Z 0000000180015a28 f i libucrt:output.obj
 0001:00014a3c       ??$extract_argument_from_va_list@_K_J@?$standard_base@_WV?$stream_output_adapter@_W@__crt_stdio_output@@@__crt_stdio_output@@IEAA_NAEA_J@Z 0000000180015a3c f i libucrt:output.obj
 0001:00014a50       ??$extract_argument_from_va_list@_K_J@?$standard_base@_WV?$string_output_adapter@_W@__crt_stdio_output@@@__crt_stdio_output@@IEAA_NAEA_J@Z 0000000180015a50 f i libucrt:output.obj
 0001:00014a64       ??$extract_argument_from_va_list@_W_W@?$positional_parameter_base@DV?$stream_output_adapter@D@__crt_stdio_output@@@__crt_stdio_output@@IEAA_NAEA_W@Z 0000000180015a64 f i libucrt:output.obj
 0001:00014b20       ??$extract_argument_from_va_list@_W_W@?$positional_parameter_base@DV?$string_output_adapter@D@__crt_stdio_output@@@__crt_stdio_output@@IEAA_NAEA_W@Z 0000000180015b20 f i libucrt:output.obj
 0001:00014bdc       ??$extract_argument_from_va_list@_W_W@?$positional_parameter_base@_WV?$stream_output_adapter@_W@__crt_stdio_output@@@__crt_stdio_output@@IEAA_NAEA_W@Z 0000000180015bdc f i libucrt:output.obj
 0001:00014c9c       ??$extract_argument_from_va_list@_W_W@?$positional_parameter_base@_WV?$string_output_adapter@_W@__crt_stdio_output@@@__crt_stdio_output@@IEAA_NAEA_W@Z 0000000180015c9c f i libucrt:output.obj
 0001:00014d5c       ??$extract_argument_from_va_list@_W_W@?$standard_base@DV?$stream_output_adapter@D@__crt_stdio_output@@@__crt_stdio_output@@IEAA_NAEA_W@Z 0000000180015d5c f i libucrt:output.obj
 0001:00014d70       ??$extract_argument_from_va_list@_W_W@?$standard_base@DV?$string_output_adapter@D@__crt_stdio_output@@@__crt_stdio_output@@IEAA_NAEA_W@Z 0000000180015d70 f i libucrt:output.obj
 0001:00014d84       ??$extract_argument_from_va_list@_W_W@?$standard_base@_WV?$stream_output_adapter@_W@__crt_stdio_output@@@__crt_stdio_output@@IEAA_NAEA_W@Z 0000000180015d84 f i libucrt:output.obj
 0001:00014d98       ??$extract_argument_from_va_list@_W_W@?$standard_base@_WV?$string_output_adapter@_W@__crt_stdio_output@@@__crt_stdio_output@@IEAA_NAEA_W@Z 0000000180015d98 f i libucrt:output.obj
 0001:00014dac       ??$get_parameter_type@D@?$positional_parameter_base@DV?$stream_output_adapter@D@__crt_stdio_output@@@__crt_stdio_output@@CA?AW4parameter_type@01@PEAD@Z 0000000180015dac f i libucrt:output.obj
 0001:00014db4       ??$get_parameter_type@D@?$positional_parameter_base@DV?$string_output_adapter@D@__crt_stdio_output@@@__crt_stdio_output@@CA?AW4parameter_type@01@PEAD@Z 0000000180015db4 f i libucrt:output.obj
 0001:00014dbc       ??$get_parameter_type@D@?$positional_parameter_base@_WV?$stream_output_adapter@_W@__crt_stdio_output@@@__crt_stdio_output@@CA?AW4parameter_type@01@PEAD@Z 0000000180015dbc f i libucrt:output.obj
 0001:00014dc4       ??$get_parameter_type@D@?$positional_parameter_base@_WV?$string_output_adapter@_W@__crt_stdio_output@@@__crt_stdio_output@@CA?AW4parameter_type@01@PEAD@Z 0000000180015dc4 f i libucrt:output.obj
 0001:00014dec       ??$get_parameter_type@X@?$positional_parameter_base@DV?$stream_output_adapter@D@__crt_stdio_output@@@__crt_stdio_output@@CA?AW4parameter_type@01@PEAX@Z 0000000180015dec f i libucrt:output.obj
 0001:00014df4       ??$get_parameter_type@X@?$positional_parameter_base@DV?$string_output_adapter@D@__crt_stdio_output@@@__crt_stdio_output@@CA?AW4parameter_type@01@PEAX@Z 0000000180015df4 f i libucrt:output.obj
 0001:00014dfc       ??$get_parameter_type@X@?$positional_parameter_base@_WV?$stream_output_adapter@_W@__crt_stdio_output@@@__crt_stdio_output@@CA?AW4parameter_type@01@PEAX@Z 0000000180015dfc f i libucrt:output.obj
 0001:00014e04       ??$get_parameter_type@X@?$positional_parameter_base@_WV?$string_output_adapter@_W@__crt_stdio_output@@@__crt_stdio_output@@CA?AW4parameter_type@01@PEAX@Z 0000000180015e04 f i libucrt:output.obj
 0001:00014e0c       ??$is_character_specifier@D@?$positional_parameter_base@DV?$stream_output_adapter@D@__crt_stdio_output@@@__crt_stdio_output@@CA_ND@Z 0000000180015e0c f i libucrt:output.obj
 0001:00014e18       ??$is_character_specifier@D@?$positional_parameter_base@DV?$string_output_adapter@D@__crt_stdio_output@@@__crt_stdio_output@@CA_ND@Z 0000000180015e18 f i libucrt:output.obj
 0001:00014e24       ??$is_character_specifier@_W@?$positional_parameter_base@_WV?$stream_output_adapter@_W@__crt_stdio_output@@@__crt_stdio_output@@CA_N_W@Z 0000000180015e24 f i libucrt:output.obj
 0001:00014e34       ??$is_character_specifier@_W@?$positional_parameter_base@_WV?$string_output_adapter@_W@__crt_stdio_output@@@__crt_stdio_output@@CA_N_W@Z 0000000180015e34 f i libucrt:output.obj
 0001:00014e44       ??$is_integral_specifier@D@?$positional_parameter_base@DV?$stream_output_adapter@D@__crt_stdio_output@@@__crt_stdio_output@@CA_ND@Z 0000000180015e44 f i libucrt:output.obj
 0001:00014e6c       ??$is_integral_specifier@D@?$positional_parameter_base@DV?$string_output_adapter@D@__crt_stdio_output@@@__crt_stdio_output@@CA_ND@Z 0000000180015e6c f i libucrt:output.obj
 0001:00014e94       ??$is_integral_specifier@_W@?$positional_parameter_base@_WV?$stream_output_adapter@_W@__crt_stdio_output@@@__crt_stdio_output@@CA_N_W@Z 0000000180015e94 f i libucrt:output.obj
 0001:00014ebc       ??$is_integral_specifier@_W@?$positional_parameter_base@_WV?$string_output_adapter@_W@__crt_stdio_output@@@__crt_stdio_output@@CA_N_W@Z 0000000180015ebc f i libucrt:output.obj
 0001:00014ee4       ??$is_pointer_specifier@D@?$positional_parameter_base@DV?$stream_output_adapter@D@__crt_stdio_output@@@__crt_stdio_output@@CA_ND@Z 0000000180015ee4 f i libucrt:output.obj
 0001:00014eec       ??$is_pointer_specifier@D@?$positional_parameter_base@DV?$string_output_adapter@D@__crt_stdio_output@@@__crt_stdio_output@@CA_ND@Z 0000000180015eec f i libucrt:output.obj
 0001:00014ef4       ??$is_pointer_specifier@_W@?$positional_parameter_base@_WV?$stream_output_adapter@_W@__crt_stdio_output@@@__crt_stdio_output@@CA_N_W@Z 0000000180015ef4 f i libucrt:output.obj
 0001:00014efc       ??$is_pointer_specifier@_W@?$positional_parameter_base@_WV?$string_output_adapter@_W@__crt_stdio_output@@@__crt_stdio_output@@CA_N_W@Z 0000000180015efc f i libucrt:output.obj
 0001:00014f04       ??$is_string_specifier@D@?$positional_parameter_base@DV?$stream_output_adapter@D@__crt_stdio_output@@@__crt_stdio_output@@CA_ND@Z 0000000180015f04 f i libucrt:output.obj
 0001:00014f10       ??$is_string_specifier@D@?$positional_parameter_base@DV?$string_output_adapter@D@__crt_stdio_output@@@__crt_stdio_output@@CA_ND@Z 0000000180015f10 f i libucrt:output.obj
 0001:00014f1c       ??$is_string_specifier@_W@?$positional_parameter_base@_WV?$stream_output_adapter@_W@__crt_stdio_output@@@__crt_stdio_output@@CA_N_W@Z 0000000180015f1c f i libucrt:output.obj
 0001:00014f2c       ??$is_string_specifier@_W@?$positional_parameter_base@_WV?$string_output_adapter@_W@__crt_stdio_output@@@__crt_stdio_output@@CA_N_W@Z 0000000180015f2c f i libucrt:output.obj
 0001:00014f3c       ??$is_wide_character_specifier@D@__crt_stdio_output@@YA_N_KDW4length_modifier@0@@Z 0000000180015f3c f i libucrt:output.obj
 0001:00014f64       ??$is_wide_character_specifier@_W@__crt_stdio_output@@YA_N_K_WW4length_modifier@0@@Z 0000000180015f64 f i libucrt:output.obj
 0001:00014fa4       ??$peek_va_arg@C@__crt_stdio_output@@YACPEAD@Z 0000000180015fa4 f i libucrt:output.obj
 0001:00014fa8       ??$peek_va_arg@E@__crt_stdio_output@@YAEPEAD@Z 0000000180015fa8 f i libucrt:output.obj
 0001:00014fac       ??$peek_va_arg@F@__crt_stdio_output@@YAFPEAD@Z 0000000180015fac f i libucrt:output.obj
 0001:00014fb0       ??$peek_va_arg@G@__crt_stdio_output@@YAGPEAD@Z 0000000180015fb0 f i libucrt:output.obj
 0001:00014fb4       ??$peek_va_arg@H@__crt_stdio_output@@YAHPEAD@Z 0000000180015fb4 f i libucrt:output.obj
 0001:00014fb8       ??$peek_va_arg@I@__crt_stdio_output@@YAIPEAD@Z 0000000180015fb8 f i libucrt:output.obj
 0001:00014fbc       ??$peek_va_arg@PEAD@__crt_stdio_output@@YAPEADPEAD@Z 0000000180015fbc f i libucrt:output.obj
 0001:00014fd0       ??$peek_va_arg@PEAX@__crt_stdio_output@@YAPEAXPEAD@Z 0000000180015fd0 f i libucrt:output.obj
 0001:00014fd4       ??$peek_va_arg@U_CRT_DOUBLE@@@__crt_stdio_output@@YA?AU_CRT_DOUBLE@@PEAD@Z 0000000180015fd4 f i libucrt:output.obj
 0001:00014fd8       ??$peek_va_arg@_J@__crt_stdio_output@@YA_JPEAD@Z 0000000180015fd8 f i libucrt:output.obj
 0001:00014fdc       ??$peek_va_arg@_K@__crt_stdio_output@@YA_KPEAD@Z 0000000180015fdc f i libucrt:output.obj
 0001:00014fe0       ??$peek_va_arg@_W@__crt_stdio_output@@YA_WPEAD@Z 0000000180015fe0 f i libucrt:output.obj
 0001:00014fe4       ??$puttc_nolock@AEBDPEAU_iobuf@@@?$__crt_char_traits@D@@SAHAEBD$$QEAPEAU_iobuf@@@Z 0000000180015fe4 f i libucrt:output.obj
 0001:00014ff0       ??$puttc_nolock@AEB_WPEAU_iobuf@@@?$__crt_char_traits@_W@@SAGAEB_W$$QEAPEAU_iobuf@@@Z 0000000180015ff0 f i libucrt:output.obj
 0001:00014ffc       ??$read_va_arg@C@__crt_stdio_output@@YACAEAPEAD@Z 0000000180015ffc f i libucrt:output.obj
 0001:00015008       ??$read_va_arg@E@__crt_stdio_output@@YAEAEAPEAD@Z 0000000180016008 f i libucrt:output.obj
 0001:00015014       ??$read_va_arg@F@__crt_stdio_output@@YAFAEAPEAD@Z 0000000180016014 f i libucrt:output.obj
 0001:00015020       ??$read_va_arg@G@__crt_stdio_output@@YAGAEAPEAD@Z 0000000180016020 f i libucrt:output.obj
 0001:0001502c       ??$read_va_arg@H@__crt_stdio_output@@YAHAEAPEAD@Z 000000018001602c f i libucrt:output.obj
 0001:00015038       ??$read_va_arg@I@__crt_stdio_output@@YAIAEAPEAD@Z 0000000180016038 f i libucrt:output.obj
 0001:00015044       ??$read_va_arg@PEAD@__crt_stdio_output@@YAPEADAEAPEAD@Z 0000000180016044 f i libucrt:output.obj
 0001:000150e0       ??$read_va_arg@PEAX@__crt_stdio_output@@YAPEAXAEAPEAD@Z 00000001800160e0 f i libucrt:output.obj
 0001:000150ec       ??$read_va_arg@U_CRT_DOUBLE@@@__crt_stdio_output@@YA?AU_CRT_DOUBLE@@AEAPEAD@Z 00000001800160ec f i libucrt:output.obj
 0001:000150f8       ??$read_va_arg@_J@__crt_stdio_output@@YA_JAEAPEAD@Z 00000001800160f8 f i libucrt:output.obj
 0001:00015104       ??$read_va_arg@_K@__crt_stdio_output@@YA_KAEAPEAD@Z 0000000180016104 f i libucrt:output.obj
 0001:00015110       ??$read_va_arg@_W@__crt_stdio_output@@YA_WAEAPEAD@Z 0000000180016110 f i libucrt:output.obj
 0001:0001511c       ??$scratch_count@D@formatting_buffer@__crt_stdio_output@@QEBA_KXZ 000000018001611c f i libucrt:output.obj
 0001:00015138       ??$scratch_data@D@formatting_buffer@__crt_stdio_output@@QEAAPEADXZ 0000000180016138 f i libucrt:output.obj
 0001:0001515c       ??$tcstol@AEAPEBDPEAPEADH@?$__crt_char_traits@D@@SAJAEAPEBD$$QEAPEAPEAD$$QEAH@Z 000000018001615c f i libucrt:output.obj
 0001:0001516c       ??$tcstol@AEAPEB_WPEAPEA_WH@?$__crt_char_traits@_W@@SAJAEAPEB_W$$QEAPEAPEA_W$$QEAH@Z 000000018001616c f i libucrt:output.obj
 0001:0001517c       ??$tcstol@PEBDPEAPEADH@?$__crt_char_traits@D@@SAJ$$QEAPEBD$$QEAPEAPEAD$$QEAH@Z 000000018001617c f i libucrt:output.obj
 0001:0001518c       ??$tcstol@PEB_WPEAPEA_WH@?$__crt_char_traits@_W@@SAJ$$QEAPEB_W$$QEAPEAPEA_W$$QEAH@Z 000000018001618c f i libucrt:output.obj
 0001:0001519c       ??$type_case_integer_parse_into_buffer@I@?$output_processor@DV?$stream_output_adapter@D@__crt_stdio_output@@V?$format_validation_base@DV?$stream_output_adapter@D@__crt_stdio_output@@@2@@__crt_stdio_output@@AEAAXII_N@Z 000000018001619c f i libucrt:output.obj
 0001:00015224       ??$type_case_integer_parse_into_buffer@I@?$output_processor@DV?$stream_output_adapter@D@__crt_stdio_output@@V?$positional_parameter_base@DV?$stream_output_adapter@D@__crt_stdio_output@@@2@@__crt_stdio_output@@AEAAXII_N@Z 0000000180016224 f i libucrt:output.obj
 0001:000152ac       ??$type_case_integer_parse_into_buffer@I@?$output_processor@DV?$stream_output_adapter@D@__crt_stdio_output@@V?$standard_base@DV?$stream_output_adapter@D@__crt_stdio_output@@@2@@__crt_stdio_output@@AEAAXII_N@Z 00000001800162ac f i libucrt:output.obj
 0001:00015334       ??$type_case_integer_parse_into_buffer@I@?$output_processor@DV?$string_output_adapter@D@__crt_stdio_output@@V?$format_validation_base@DV?$string_output_adapter@D@__crt_stdio_output@@@2@@__crt_stdio_output@@AEAAXII_N@Z 0000000180016334 f i libucrt:output.obj
 0001:000153bc       ??$type_case_integer_parse_into_buffer@I@?$output_processor@DV?$string_output_adapter@D@__crt_stdio_output@@V?$positional_parameter_base@DV?$string_output_adapter@D@__crt_stdio_output@@@2@@__crt_stdio_output@@AEAAXII_N@Z 00000001800163bc f i libucrt:output.obj
 0001:00015444       ??$type_case_integer_parse_into_buffer@I@?$output_processor@DV?$string_output_adapter@D@__crt_stdio_output@@V?$standard_base@DV?$string_output_adapter@D@__crt_stdio_output@@@2@@__crt_stdio_output@@AEAAXII_N@Z 0000000180016444 f i libucrt:output.obj
 0001:000154cc       ??$type_case_integer_parse_into_buffer@I@?$output_processor@_WV?$stream_output_adapter@_W@__crt_stdio_output@@V?$format_validation_base@_WV?$stream_output_adapter@_W@__crt_stdio_output@@@2@@__crt_stdio_output@@AEAAXII_N@Z 00000001800164cc f i libucrt:output.obj
 0001:00015570       ??$type_case_integer_parse_into_buffer@I@?$output_processor@_WV?$stream_output_adapter@_W@__crt_stdio_output@@V?$positional_parameter_base@_WV?$stream_output_adapter@_W@__crt_stdio_output@@@2@@__crt_stdio_output@@AEAAXII_N@Z 0000000180016570 f i libucrt:output.obj
 0001:00015614       ??$type_case_integer_parse_into_buffer@I@?$output_processor@_WV?$stream_output_adapter@_W@__crt_stdio_output@@V?$standard_base@_WV?$stream_output_adapter@_W@__crt_stdio_output@@@2@@__crt_stdio_output@@AEAAXII_N@Z 0000000180016614 f i libucrt:output.obj
 0001:000156b8       ??$type_case_integer_parse_into_buffer@I@?$output_processor@_WV?$string_output_adapter@_W@__crt_stdio_output@@V?$format_validation_base@_WV?$string_output_adapter@_W@__crt_stdio_output@@@2@@__crt_stdio_output@@AEAAXII_N@Z 00000001800166b8 f i libucrt:output.obj
 0001:0001575c       ??$type_case_integer_parse_into_buffer@I@?$output_processor@_WV?$string_output_adapter@_W@__crt_stdio_output@@V?$positional_parameter_base@_WV?$string_output_adapter@_W@__crt_stdio_output@@@2@@__crt_stdio_output@@AEAAXII_N@Z 000000018001675c f i libucrt:output.obj
 0001:00015800       ??$type_case_integer_parse_into_buffer@I@?$output_processor@_WV?$string_output_adapter@_W@__crt_stdio_output@@V?$standard_base@_WV?$string_output_adapter@_W@__crt_stdio_output@@@2@@__crt_stdio_output@@AEAAXII_N@Z 0000000180016800 f i libucrt:output.obj
 0001:000158a4       ??$type_case_integer_parse_into_buffer@_K@?$output_processor@DV?$stream_output_adapter@D@__crt_stdio_output@@V?$format_validation_base@DV?$stream_output_adapter@D@__crt_stdio_output@@@2@@__crt_stdio_output@@AEAAX_KI_N@Z 00000001800168a4 f i libucrt:output.obj
 0001:00015934       ??$type_case_integer_parse_into_buffer@_K@?$output_processor@DV?$stream_output_adapter@D@__crt_stdio_output@@V?$positional_parameter_base@DV?$stream_output_adapter@D@__crt_stdio_output@@@2@@__crt_stdio_output@@AEAAX_KI_N@Z 0000000180016934 f i libucrt:output.obj
 0001:000159c4       ??$type_case_integer_parse_into_buffer@_K@?$output_processor@DV?$stream_output_adapter@D@__crt_stdio_output@@V?$standard_base@DV?$stream_output_adapter@D@__crt_stdio_output@@@2@@__crt_stdio_output@@AEAAX_KI_N@Z 00000001800169c4 f i libucrt:output.obj
 0001:00015a54       ??$type_case_integer_parse_into_buffer@_K@?$output_processor@DV?$string_output_adapter@D@__crt_stdio_output@@V?$format_validation_base@DV?$string_output_adapter@D@__crt_stdio_output@@@2@@__crt_stdio_output@@AEAAX_KI_N@Z 0000000180016a54 f i libucrt:output.obj
 0001:00015ae4       ??$type_case_integer_parse_into_buffer@_K@?$output_processor@DV?$string_output_adapter@D@__crt_stdio_output@@V?$positional_parameter_base@DV?$string_output_adapter@D@__crt_stdio_output@@@2@@__crt_stdio_output@@AEAAX_KI_N@Z 0000000180016ae4 f i libucrt:output.obj
 0001:00015b74       ??$type_case_integer_parse_into_buffer@_K@?$output_processor@DV?$string_output_adapter@D@__crt_stdio_output@@V?$standard_base@DV?$string_output_adapter@D@__crt_stdio_output@@@2@@__crt_stdio_output@@AEAAX_KI_N@Z 0000000180016b74 f i libucrt:output.obj
 0001:00015c04       ??$type_case_integer_parse_into_buffer@_K@?$output_processor@_WV?$stream_output_adapter@_W@__crt_stdio_output@@V?$format_validation_base@_WV?$stream_output_adapter@_W@__crt_stdio_output@@@2@@__crt_stdio_output@@AEAAX_KI_N@Z 0000000180016c04 f i libucrt:output.obj
 0001:00015ca8       ??$type_case_integer_parse_into_buffer@_K@?$output_processor@_WV?$stream_output_adapter@_W@__crt_stdio_output@@V?$positional_parameter_base@_WV?$stream_output_adapter@_W@__crt_stdio_output@@@2@@__crt_stdio_output@@AEAAX_KI_N@Z 0000000180016ca8 f i libucrt:output.obj
 0001:00015d4c       ??$type_case_integer_parse_into_buffer@_K@?$output_processor@_WV?$stream_output_adapter@_W@__crt_stdio_output@@V?$standard_base@_WV?$stream_output_adapter@_W@__crt_stdio_output@@@2@@__crt_stdio_output@@AEAAX_KI_N@Z 0000000180016d4c f i libucrt:output.obj
 0001:00015df0       ??$type_case_integer_parse_into_buffer@_K@?$output_processor@_WV?$string_output_adapter@_W@__crt_stdio_output@@V?$format_validation_base@_WV?$string_output_adapter@_W@__crt_stdio_output@@@2@@__crt_stdio_output@@AEAAX_KI_N@Z 0000000180016df0 f i libucrt:output.obj
 0001:00015e94       ??$type_case_integer_parse_into_buffer@_K@?$output_processor@_WV?$string_output_adapter@_W@__crt_stdio_output@@V?$positional_parameter_base@_WV?$string_output_adapter@_W@__crt_stdio_output@@@2@@__crt_stdio_output@@AEAAX_KI_N@Z 0000000180016e94 f i libucrt:output.obj
 0001:00015f38       ??$type_case_integer_parse_into_buffer@_K@?$output_processor@_WV?$string_output_adapter@_W@__crt_stdio_output@@V?$standard_base@_WV?$string_output_adapter@_W@__crt_stdio_output@@@2@@__crt_stdio_output@@AEAAX_KI_N@Z 0000000180016f38 f i libucrt:output.obj
 0001:00015fdc       ??$write_multiple_characters@V?$stream_output_adapter@D@__crt_stdio_output@@D@__crt_stdio_output@@YAXAEBV?$stream_output_adapter@D@0@DHQEAH@Z 0000000180016fdc f i libucrt:output.obj
 0001:00016068       ??$write_multiple_characters@V?$stream_output_adapter@_W@__crt_stdio_output@@D@__crt_stdio_output@@YAXAEBV?$stream_output_adapter@_W@0@DHQEAH@Z 0000000180017068 f i libucrt:output.obj
 0001:000160fc       ??$write_multiple_characters@V?$string_output_adapter@D@__crt_stdio_output@@D@__crt_stdio_output@@YAXAEBV?$string_output_adapter@D@0@DHQEAH@Z 00000001800170fc f i libucrt:output.obj
 0001:00016174       ??$write_multiple_characters@V?$string_output_adapter@_W@__crt_stdio_output@@D@__crt_stdio_output@@YAXAEBV?$string_output_adapter@_W@0@DHQEAH@Z 0000000180017174 f i libucrt:output.obj
 0001:00016358       ??0?$common_data@D@__crt_stdio_output@@IEAA@XZ 0000000180017358 f i libucrt:output.obj
 0001:00016394       ??0?$common_data@_W@__crt_stdio_output@@IEAA@XZ 0000000180017394 f i libucrt:output.obj
 0001:000163d4       ??0?$output_adapter_data@DV?$stream_output_adapter@D@__crt_stdio_output@@@__crt_stdio_output@@IEAA@AEBV?$stream_output_adapter@D@1@_KQEBDQEAU__crt_locale_pointers@@QEAD@Z 00000001800173d4 f i libucrt:output.obj
 0001:00016434       ??0?$output_adapter_data@DV?$string_output_adapter@D@__crt_stdio_output@@@__crt_stdio_output@@IEAA@AEBV?$string_output_adapter@D@1@_KQEBDQEAU__crt_locale_pointers@@QEAD@Z 0000000180017434 f i libucrt:output.obj
 0001:00016494       ??0?$output_adapter_data@_WV?$stream_output_adapter@_W@__crt_stdio_output@@@__crt_stdio_output@@IEAA@AEBV?$stream_output_adapter@_W@1@_KQEB_WQEAU__crt_locale_pointers@@QEAD@Z 0000000180017494 f i libucrt:output.obj
 0001:000164f8       ??0?$output_adapter_data@_WV?$string_output_adapter@_W@__crt_stdio_output@@@__crt_stdio_output@@IEAA@AEBV?$string_output_adapter@_W@1@_KQEB_WQEAU__crt_locale_pointers@@QEAD@Z 00000001800174f8 f i libucrt:output.obj
 0001:0001655c       ??0?$output_processor@DV?$stream_output_adapter@D@__crt_stdio_output@@V?$format_validation_base@DV?$stream_output_adapter@D@__crt_stdio_output@@@2@@__crt_stdio_output@@QEAA@AEBV?$stream_output_adapter@D@1@_KQEBDQEAU__crt_locale_pointers@@QEAD@Z 000000018001755c f i libucrt:output.obj
 0001:000165c8       ??0?$output_processor@DV?$stream_output_adapter@D@__crt_stdio_output@@V?$positional_parameter_base@DV?$stream_output_adapter@D@__crt_stdio_output@@@2@@__crt_stdio_output@@QEAA@AEBV?$stream_output_adapter@D@1@_KQEBDQEAU__crt_locale_pointers@@QEAD@Z 00000001800175c8 f i libucrt:output.obj
 0001:00016650       ??0?$output_processor@DV?$stream_output_adapter@D@__crt_stdio_output@@V?$standard_base@DV?$stream_output_adapter@D@__crt_stdio_output@@@2@@__crt_stdio_output@@QEAA@AEBV?$stream_output_adapter@D@1@_KQEBDQEAU__crt_locale_pointers@@QEAD@Z 0000000180017650 f i libucrt:output.obj
 0001:000166bc       ??0?$output_processor@DV?$string_output_adapter@D@__crt_stdio_output@@V?$format_validation_base@DV?$string_output_adapter@D@__crt_stdio_output@@@2@@__crt_stdio_output@@QEAA@AEBV?$string_output_adapter@D@1@_KQEBDQEAU__crt_locale_pointers@@QEAD@Z 00000001800176bc f i libucrt:output.obj
 0001:00016728       ??0?$output_processor@DV?$string_output_adapter@D@__crt_stdio_output@@V?$positional_parameter_base@DV?$string_output_adapter@D@__crt_stdio_output@@@2@@__crt_stdio_output@@QEAA@AEBV?$string_output_adapter@D@1@_KQEBDQEAU__crt_locale_pointers@@QEAD@Z 0000000180017728 f i libucrt:output.obj
 0001:000167b0       ??0?$output_processor@DV?$string_output_adapter@D@__crt_stdio_output@@V?$standard_base@DV?$string_output_adapter@D@__crt_stdio_output@@@2@@__crt_stdio_output@@QEAA@AEBV?$string_output_adapter@D@1@_KQEBDQEAU__crt_locale_pointers@@QEAD@Z 00000001800177b0 f i libucrt:output.obj
 0001:0001681c       ??0?$output_processor@_WV?$stream_output_adapter@_W@__crt_stdio_output@@V?$format_validation_base@_WV?$stream_output_adapter@_W@__crt_stdio_output@@@2@@__crt_stdio_output@@QEAA@AEBV?$stream_output_adapter@_W@1@_KQEB_WQEAU__crt_locale_pointers@@QEAD@Z 000000018001781c f i libucrt:output.obj
 0001:0001688c       ??0?$output_processor@_WV?$stream_output_adapter@_W@__crt_stdio_output@@V?$positional_parameter_base@_WV?$stream_output_adapter@_W@__crt_stdio_output@@@2@@__crt_stdio_output@@QEAA@AEBV?$stream_output_adapter@_W@1@_KQEB_WQEAU__crt_locale_pointers@@QEAD@Z 000000018001788c f i libucrt:output.obj
 0001:00016918       ??0?$output_processor@_WV?$stream_output_adapter@_W@__crt_stdio_output@@V?$standard_base@_WV?$stream_output_adapter@_W@__crt_stdio_output@@@2@@__crt_stdio_output@@QEAA@AEBV?$stream_output_adapter@_W@1@_KQEB_WQEAU__crt_locale_pointers@@QEAD@Z 0000000180017918 f i libucrt:output.obj
 0001:00016988       ??0?$output_processor@_WV?$string_output_adapter@_W@__crt_stdio_output@@V?$format_validation_base@_WV?$string_output_adapter@_W@__crt_stdio_output@@@2@@__crt_stdio_output@@QEAA@AEBV?$string_output_adapter@_W@1@_KQEB_WQEAU__crt_locale_pointers@@QEAD@Z 0000000180017988 f i libucrt:output.obj
 0001:000169f8       ??0?$output_processor@_WV?$string_output_adapter@_W@__crt_stdio_output@@V?$positional_parameter_base@_WV?$string_output_adapter@_W@__crt_stdio_output@@@2@@__crt_stdio_output@@QEAA@AEBV?$string_output_adapter@_W@1@_KQEB_WQEAU__crt_locale_pointers@@QEAD@Z 00000001800179f8 f i libucrt:output.obj
 0001:00016a84       ??0?$output_processor@_WV?$string_output_adapter@_W@__crt_stdio_output@@V?$standard_base@_WV?$string_output_adapter@_W@__crt_stdio_output@@@2@@__crt_stdio_output@@QEAA@AEBV?$string_output_adapter@_W@1@_KQEB_WQEAU__crt_locale_pointers@@QEAD@Z 0000000180017a84 f i libucrt:output.obj
 0001:00016af4       ??0?$stream_output_adapter@D@__crt_stdio_output@@QEAA@QEAU_iobuf@@@Z 0000000180017af4 f i libucrt:output.obj
 0001:00016afc       ??0?$stream_output_adapter@_W@__crt_stdio_output@@QEAA@QEAU_iobuf@@@Z 0000000180017afc f i libucrt:output.obj
 0001:00016b04       ??0?$string_output_adapter@D@__crt_stdio_output@@QEAA@QEAU?$string_output_adapter_context@D@1@@Z 0000000180017b04 f i libucrt:output.obj
 0001:00016b0c       ??0?$string_output_adapter@_W@__crt_stdio_output@@QEAA@QEAU?$string_output_adapter_context@_W@1@@Z 0000000180017b0c f i libucrt:output.obj
 0001:00016b14       ??0_LocaleUpdate@@QEAA@QEAU__crt_locale_pointers@@@Z 0000000180017b14 f i libucrt:output.obj
 0001:00016bb0       ??0__acrt_stdio_temporary_buffering_guard@@QEAA@QEAU_iobuf@@@Z 0000000180017bb0 f i libucrt:output.obj
 0001:00016bd0       ??0__crt_deferred_errno_cache@@QEAA@XZ 0000000180017bd0 f i libucrt:output.obj
 0001:00016bd8       ??0__crt_errno_guard@@QEAA@QEAH@Z 0000000180017bd8 f i libucrt:output.obj
 0001:00016be8       ??0formatting_buffer@__crt_stdio_output@@QEAA@XZ 0000000180017be8 f i libucrt:output.obj
 0001:00016bfc       ??1?$common_data@D@__crt_stdio_output@@QEAA@XZ 0000000180017bfc f i libucrt:output.obj
 0001:00016c20       ??1?$common_data@_W@__crt_stdio_output@@QEAA@XZ 0000000180017c20 f i libucrt:output.obj
 0001:00016c44       ??1?$format_validation_base@DV?$stream_output_adapter@D@__crt_stdio_output@@@__crt_stdio_output@@QEAA@XZ 0000000180017c44 f i libucrt:output.obj
 0001:00016c68       ??1?$format_validation_base@DV?$string_output_adapter@D@__crt_stdio_output@@@__crt_stdio_output@@QEAA@XZ 0000000180017c68 f i libucrt:output.obj
 0001:00016c8c       ??1?$format_validation_base@_WV?$stream_output_adapter@_W@__crt_stdio_output@@@__crt_stdio_output@@QEAA@XZ 0000000180017c8c f i libucrt:output.obj
 0001:00016cb0       ??1?$format_validation_base@_WV?$string_output_adapter@_W@__crt_stdio_output@@@__crt_stdio_output@@QEAA@XZ 0000000180017cb0 f i libucrt:output.obj
 0001:00016cd4       ??1?$output_adapter_data@DV?$stream_output_adapter@D@__crt_stdio_output@@@__crt_stdio_output@@QEAA@XZ 0000000180017cd4 f i libucrt:output.obj
 0001:00016cf8       ??1?$output_adapter_data@DV?$string_output_adapter@D@__crt_stdio_output@@@__crt_stdio_output@@QEAA@XZ 0000000180017cf8 f i libucrt:output.obj
 0001:00016d1c       ??1?$output_adapter_data@_WV?$stream_output_adapter@_W@__crt_stdio_output@@@__crt_stdio_output@@QEAA@XZ 0000000180017d1c f i libucrt:output.obj
 0001:00016d40       ??1?$output_adapter_data@_WV?$string_output_adapter@_W@__crt_stdio_output@@@__crt_stdio_output@@QEAA@XZ 0000000180017d40 f i libucrt:output.obj
 0001:00016d64       ??1?$output_processor@DV?$stream_output_adapter@D@__crt_stdio_output@@V?$format_validation_base@DV?$stream_output_adapter@D@__crt_stdio_output@@@2@@__crt_stdio_output@@QEAA@XZ 0000000180017d64 f i libucrt:output.obj
 0001:00016d88       ??1?$output_processor@DV?$stream_output_adapter@D@__crt_stdio_output@@V?$positional_parameter_base@DV?$stream_output_adapter@D@__crt_stdio_output@@@2@@__crt_stdio_output@@QEAA@XZ 0000000180017d88 f i libucrt:output.obj
 0001:00016dac       ??1?$output_processor@DV?$stream_output_adapter@D@__crt_stdio_output@@V?$standard_base@DV?$stream_output_adapter@D@__crt_stdio_output@@@2@@__crt_stdio_output@@QEAA@XZ 0000000180017dac f i libucrt:output.obj
 0001:00016dd0       ??1?$output_processor@DV?$string_output_adapter@D@__crt_stdio_output@@V?$format_validation_base@DV?$string_output_adapter@D@__crt_stdio_output@@@2@@__crt_stdio_output@@QEAA@XZ 0000000180017dd0 f i libucrt:output.obj
 0001:00016df4       ??1?$output_processor@DV?$string_output_adapter@D@__crt_stdio_output@@V?$positional_parameter_base@DV?$string_output_adapter@D@__crt_stdio_output@@@2@@__crt_stdio_output@@QEAA@XZ 0000000180017df4 f i libucrt:output.obj
 0001:00016e18       ??1?$output_processor@DV?$string_output_adapter@D@__crt_stdio_output@@V?$standard_base@DV?$string_output_adapter@D@__crt_stdio_output@@@2@@__crt_stdio_output@@QEAA@XZ 0000000180017e18 f i libucrt:output.obj
 0001:00016e3c       ??1?$output_processor@_WV?$stream_output_adapter@_W@__crt_stdio_output@@V?$format_validation_base@_WV?$stream_output_adapter@_W@__crt_stdio_output@@@2@@__crt_stdio_output@@QEAA@XZ 0000000180017e3c f i libucrt:output.obj
 0001:00016e60       ??1?$output_processor@_WV?$stream_output_adapter@_W@__crt_stdio_output@@V?$positional_parameter_base@_WV?$stream_output_adapter@_W@__crt_stdio_output@@@2@@__crt_stdio_output@@QEAA@XZ 0000000180017e60 f i libucrt:output.obj
 0001:00016e84       ??1?$output_processor@_WV?$stream_output_adapter@_W@__crt_stdio_output@@V?$standard_base@_WV?$stream_output_adapter@_W@__crt_stdio_output@@@2@@__crt_stdio_output@@QEAA@XZ 0000000180017e84 f i libucrt:output.obj
 0001:00016ea8       ??1?$output_processor@_WV?$string_output_adapter@_W@__crt_stdio_output@@V?$format_validation_base@_WV?$string_output_adapter@_W@__crt_stdio_output@@@2@@__crt_stdio_output@@QEAA@XZ 0000000180017ea8 f i libucrt:output.obj
 0001:00016ecc       ??1?$output_processor@_WV?$string_output_adapter@_W@__crt_stdio_output@@V?$positional_parameter_base@_WV?$string_output_adapter@_W@__crt_stdio_output@@@2@@__crt_stdio_output@@QEAA@XZ 0000000180017ecc f i libucrt:output.obj
 0001:00016ef0       ??1?$output_processor@_WV?$string_output_adapter@_W@__crt_stdio_output@@V?$standard_base@_WV?$string_output_adapter@_W@__crt_stdio_output@@@2@@__crt_stdio_output@@QEAA@XZ 0000000180017ef0 f i libucrt:output.obj
 0001:00016f14       ??1?$positional_parameter_base@DV?$stream_output_adapter@D@__crt_stdio_output@@@__crt_stdio_output@@QEAA@XZ 0000000180017f14 f i libucrt:output.obj
 0001:00016f38       ??1?$positional_parameter_base@DV?$string_output_adapter@D@__crt_stdio_output@@@__crt_stdio_output@@QEAA@XZ 0000000180017f38 f i libucrt:output.obj
 0001:00016f5c       ??1?$positional_parameter_base@_WV?$stream_output_adapter@_W@__crt_stdio_output@@@__crt_stdio_output@@QEAA@XZ 0000000180017f5c f i libucrt:output.obj
 0001:00016f80       ??1?$positional_parameter_base@_WV?$string_output_adapter@_W@__crt_stdio_output@@@__crt_stdio_output@@QEAA@XZ 0000000180017f80 f i libucrt:output.obj
 0001:00016fa4       ??1?$standard_base@DV?$stream_output_adapter@D@__crt_stdio_output@@@__crt_stdio_output@@QEAA@XZ 0000000180017fa4 f i libucrt:output.obj
 0001:00016fc8       ??1?$standard_base@DV?$string_output_adapter@D@__crt_stdio_output@@@__crt_stdio_output@@QEAA@XZ 0000000180017fc8 f i libucrt:output.obj
 0001:00016fec       ??1?$standard_base@_WV?$stream_output_adapter@_W@__crt_stdio_output@@@__crt_stdio_output@@QEAA@XZ 0000000180017fec f i libucrt:output.obj
 0001:00017010       ??1?$standard_base@_WV?$string_output_adapter@_W@__crt_stdio_output@@@__crt_stdio_output@@QEAA@XZ 0000000180018010 f i libucrt:output.obj
 0001:00017034       ??1_LocaleUpdate@@QEAA@XZ  0000000180018034 f i libucrt:output.obj
 0001:00017048       ??1__acrt_stdio_temporary_buffering_guard@@QEAA@XZ 0000000180018048 f i libucrt:output.obj
 0001:00017054       ??1__crt_errno_guard@@QEAA@XZ 0000000180018054 f i libucrt:output.obj
 0001:00017068       ??1formatting_buffer@__crt_stdio_output@@QEAA@XZ 0000000180018068 f i libucrt:output.obj
 0001:0001708c       ??4?$__crt_unique_heap_ptr@DU__crt_internal_free_policy@@@@QEAAAEAV0@$$QEAV0@@Z 000000018001808c f i libucrt:output.obj
 0001:00017884       ?GetLocaleT@_LocaleUpdate@@QEAAPEAU__crt_locale_pointers@@XZ 0000000180018884 f i libucrt:output.obj
 0001:0001788c       ?adjust_hexit@?$output_processor@DV?$stream_output_adapter@D@__crt_stdio_output@@V?$format_validation_base@DV?$stream_output_adapter@D@__crt_stdio_output@@@2@@__crt_stdio_output@@CADH_N@Z 000000018001888c f i libucrt:output.obj
 0001:00017898       ?adjust_hexit@?$output_processor@DV?$stream_output_adapter@D@__crt_stdio_output@@V?$positional_parameter_base@DV?$stream_output_adapter@D@__crt_stdio_output@@@2@@__crt_stdio_output@@CADH_N@Z 0000000180018898 f i libucrt:output.obj
 0001:000178a4       ?adjust_hexit@?$output_processor@DV?$stream_output_adapter@D@__crt_stdio_output@@V?$standard_base@DV?$stream_output_adapter@D@__crt_stdio_output@@@2@@__crt_stdio_output@@CADH_N@Z 00000001800188a4 f i libucrt:output.obj
 0001:000178b0       ?adjust_hexit@?$output_processor@DV?$string_output_adapter@D@__crt_stdio_output@@V?$format_validation_base@DV?$string_output_adapter@D@__crt_stdio_output@@@2@@__crt_stdio_output@@CADH_N@Z 00000001800188b0 f i libucrt:output.obj
 0001:000178bc       ?adjust_hexit@?$output_processor@DV?$string_output_adapter@D@__crt_stdio_output@@V?$positional_parameter_base@DV?$string_output_adapter@D@__crt_stdio_output@@@2@@__crt_stdio_output@@CADH_N@Z 00000001800188bc f i libucrt:output.obj
 0001:000178c8       ?adjust_hexit@?$output_processor@DV?$string_output_adapter@D@__crt_stdio_output@@V?$standard_base@DV?$string_output_adapter@D@__crt_stdio_output@@@2@@__crt_stdio_output@@CADH_N@Z 00000001800188c8 f i libucrt:output.obj
 0001:000178d4       ?adjust_hexit@?$output_processor@_WV?$stream_output_adapter@_W@__crt_stdio_output@@V?$format_validation_base@_WV?$stream_output_adapter@_W@__crt_stdio_output@@@2@@__crt_stdio_output@@CADH_N@Z 00000001800188d4 f i libucrt:output.obj
 0001:000178e0       ?adjust_hexit@?$output_processor@_WV?$stream_output_adapter@_W@__crt_stdio_output@@V?$positional_parameter_base@_WV?$stream_output_adapter@_W@__crt_stdio_output@@@2@@__crt_stdio_output@@CADH_N@Z 00000001800188e0 f i libucrt:output.obj
 0001:000178ec       ?adjust_hexit@?$output_processor@_WV?$stream_output_adapter@_W@__crt_stdio_output@@V?$standard_base@_WV?$stream_output_adapter@_W@__crt_stdio_output@@@2@@__crt_stdio_output@@CADH_N@Z 00000001800188ec f i libucrt:output.obj
 0001:000178f8       ?adjust_hexit@?$output_processor@_WV?$string_output_adapter@_W@__crt_stdio_output@@V?$format_validation_base@_WV?$string_output_adapter@_W@__crt_stdio_output@@@2@@__crt_stdio_output@@CADH_N@Z 00000001800188f8 f i libucrt:output.obj
 0001:00017904       ?adjust_hexit@?$output_processor@_WV?$string_output_adapter@_W@__crt_stdio_output@@V?$positional_parameter_base@_WV?$string_output_adapter@_W@__crt_stdio_output@@@2@@__crt_stdio_output@@CADH_N@Z 0000000180018904 f i libucrt:output.obj
 0001:00017910       ?adjust_hexit@?$output_processor@_WV?$string_output_adapter@_W@__crt_stdio_output@@V?$standard_base@_WV?$string_output_adapter@_W@__crt_stdio_output@@@2@@__crt_stdio_output@@CADH_N@Z 0000000180018910 f i libucrt:output.obj
 0001:0001791c       ?advance_to_next_pass@?$positional_parameter_base@DV?$stream_output_adapter@D@__crt_stdio_output@@@__crt_stdio_output@@IEAA_NXZ 000000018001891c f i libucrt:output.obj
 0001:0001796c       ?advance_to_next_pass@?$positional_parameter_base@DV?$string_output_adapter@D@__crt_stdio_output@@@__crt_stdio_output@@IEAA_NXZ 000000018001896c f i libucrt:output.obj
 0001:000179bc       ?advance_to_next_pass@?$positional_parameter_base@_WV?$stream_output_adapter@_W@__crt_stdio_output@@@__crt_stdio_output@@IEAA_NXZ 00000001800189bc f i libucrt:output.obj
 0001:00017a0c       ?advance_to_next_pass@?$positional_parameter_base@_WV?$string_output_adapter@_W@__crt_stdio_output@@@__crt_stdio_output@@IEAA_NXZ 0000000180018a0c f i libucrt:output.obj
 0001:00017a5c       ?advance_to_next_pass@?$standard_base@DV?$stream_output_adapter@D@__crt_stdio_output@@@__crt_stdio_output@@IEAA_NXZ 0000000180018a5c f i libucrt:output.obj
 0001:00017a70       ?advance_to_next_pass@?$standard_base@DV?$string_output_adapter@D@__crt_stdio_output@@@__crt_stdio_output@@IEAA_NXZ 0000000180018a70 f i libucrt:output.obj
 0001:00017a84       ?advance_to_next_pass@?$standard_base@_WV?$stream_output_adapter@_W@__crt_stdio_output@@@__crt_stdio_output@@IEAA_NXZ 0000000180018a84 f i libucrt:output.obj
 0001:00017a98       ?advance_to_next_pass@?$standard_base@_WV?$string_output_adapter@_W@__crt_stdio_output@@@__crt_stdio_output@@IEAA_NXZ 0000000180018a98 f i libucrt:output.obj
 0001:00017aac       ?crop_zeroes@__crt_stdio_output@@YAXPEADQEAU__crt_locale_pointers@@@Z 0000000180018aac f i libucrt:output.obj
 0001:00017b18       ?find_next_state@?$output_processor@DV?$stream_output_adapter@D@__crt_stdio_output@@V?$format_validation_base@DV?$stream_output_adapter@D@__crt_stdio_output@@@2@@__crt_stdio_output@@AEBA?AW4state@2@DW432@@Z 0000000180018b18 f i libucrt:output.obj
 0001:00017b4c       ?find_next_state@?$output_processor@DV?$stream_output_adapter@D@__crt_stdio_output@@V?$positional_parameter_base@DV?$stream_output_adapter@D@__crt_stdio_output@@@2@@__crt_stdio_output@@AEBA?AW4state@2@DW432@@Z 0000000180018b4c f i libucrt:output.obj
 0001:00017b80       ?find_next_state@?$output_processor@DV?$stream_output_adapter@D@__crt_stdio_output@@V?$standard_base@DV?$stream_output_adapter@D@__crt_stdio_output@@@2@@__crt_stdio_output@@AEBA?AW4state@2@DW432@@Z 0000000180018b80 f i libucrt:output.obj
 0001:00017bb0       ?find_next_state@?$output_processor@DV?$string_output_adapter@D@__crt_stdio_output@@V?$format_validation_base@DV?$string_output_adapter@D@__crt_stdio_output@@@2@@__crt_stdio_output@@AEBA?AW4state@2@DW432@@Z 0000000180018bb0 f i libucrt:output.obj
 0001:00017be4       ?find_next_state@?$output_processor@DV?$string_output_adapter@D@__crt_stdio_output@@V?$positional_parameter_base@DV?$string_output_adapter@D@__crt_stdio_output@@@2@@__crt_stdio_output@@AEBA?AW4state@2@DW432@@Z 0000000180018be4 f i libucrt:output.obj
 0001:00017c18       ?find_next_state@?$output_processor@DV?$string_output_adapter@D@__crt_stdio_output@@V?$standard_base@DV?$string_output_adapter@D@__crt_stdio_output@@@2@@__crt_stdio_output@@AEBA?AW4state@2@DW432@@Z 0000000180018c18 f i libucrt:output.obj
 0001:00017c48       ?find_next_state@?$output_processor@_WV?$stream_output_adapter@_W@__crt_stdio_output@@V?$format_validation_base@_WV?$stream_output_adapter@_W@__crt_stdio_output@@@2@@__crt_stdio_output@@AEBA?AW4state@2@_WW432@@Z 0000000180018c48 f i libucrt:output.obj
 0001:00017c7c       ?find_next_state@?$output_processor@_WV?$stream_output_adapter@_W@__crt_stdio_output@@V?$positional_parameter_base@_WV?$stream_output_adapter@_W@__crt_stdio_output@@@2@@__crt_stdio_output@@AEBA?AW4state@2@_WW432@@Z 0000000180018c7c f i libucrt:output.obj
 0001:00017cb0       ?find_next_state@?$output_processor@_WV?$stream_output_adapter@_W@__crt_stdio_output@@V?$standard_base@_WV?$stream_output_adapter@_W@__crt_stdio_output@@@2@@__crt_stdio_output@@AEBA?AW4state@2@_WW432@@Z 0000000180018cb0 f i libucrt:output.obj
 0001:00017ce0       ?find_next_state@?$output_processor@_WV?$string_output_adapter@_W@__crt_stdio_output@@V?$format_validation_base@_WV?$string_output_adapter@_W@__crt_stdio_output@@@2@@__crt_stdio_output@@AEBA?AW4state@2@_WW432@@Z 0000000180018ce0 f i libucrt:output.obj
 0001:00017d14       ?find_next_state@?$output_processor@_WV?$string_output_adapter@_W@__crt_stdio_output@@V?$positional_parameter_base@_WV?$string_output_adapter@_W@__crt_stdio_output@@@2@@__crt_stdio_output@@AEBA?AW4state@2@_WW432@@Z 0000000180018d14 f i libucrt:output.obj
 0001:00017d48       ?find_next_state@?$output_processor@_WV?$string_output_adapter@_W@__crt_stdio_output@@V?$standard_base@_WV?$string_output_adapter@_W@__crt_stdio_output@@@2@@__crt_stdio_output@@AEBA?AW4state@2@_WW432@@Z 0000000180018d48 f i libucrt:output.obj
 0001:00017d78       ?force_decimal_point@__crt_stdio_output@@YAXPEADQEAU__crt_locale_pointers@@@Z 0000000180018d78 f i libucrt:output.obj
 0001:00017de0       ?get@__crt_deferred_errno_cache@@QEAAAEAHXZ 0000000180018de0 f i libucrt:output.obj
 0001:00017e00       ?get_parameter_type@?$positional_parameter_base@DV?$stream_output_adapter@D@__crt_stdio_output@@@__crt_stdio_output@@CA?AW4parameter_type@12@F@Z 0000000180018e00 f i libucrt:output.obj
 0001:00017e08       ?get_parameter_type@?$positional_parameter_base@DV?$stream_output_adapter@D@__crt_stdio_output@@@__crt_stdio_output@@CA?AW4parameter_type@12@G@Z 0000000180018e08 f i libucrt:output.obj
 0001:00017e10       ?get_parameter_type@?$positional_parameter_base@DV?$stream_output_adapter@D@__crt_stdio_output@@@__crt_stdio_output@@CA?AW4parameter_type@12@H@Z 0000000180018e10 f i libucrt:output.obj
 0001:00017e18       ?get_parameter_type@?$positional_parameter_base@DV?$stream_output_adapter@D@__crt_stdio_output@@@__crt_stdio_output@@CA?AW4parameter_type@12@I@Z 0000000180018e18 f i libucrt:output.obj
 0001:00017e20       ?get_parameter_type@?$positional_parameter_base@DV?$stream_output_adapter@D@__crt_stdio_output@@@__crt_stdio_output@@CA?AW4parameter_type@12@U_CRT_DOUBLE@@@Z 0000000180018e20 f i libucrt:output.obj
 0001:00017e28       ?get_parameter_type@?$positional_parameter_base@DV?$stream_output_adapter@D@__crt_stdio_output@@@__crt_stdio_output@@CA?AW4parameter_type@12@_J@Z 0000000180018e28 f i libucrt:output.obj
 0001:00017e30       ?get_parameter_type@?$positional_parameter_base@DV?$stream_output_adapter@D@__crt_stdio_output@@@__crt_stdio_output@@CA?AW4parameter_type@12@_K@Z 0000000180018e30 f i libucrt:output.obj
 0001:00017e38       ?get_parameter_type@?$positional_parameter_base@DV?$stream_output_adapter@D@__crt_stdio_output@@@__crt_stdio_output@@CA?AW4parameter_type@12@_W@Z 0000000180018e38 f i libucrt:output.obj
 0001:00017e40       ?get_parameter_type@?$positional_parameter_base@DV?$string_output_adapter@D@__crt_stdio_output@@@__crt_stdio_output@@CA?AW4parameter_type@12@F@Z 0000000180018e40 f i libucrt:output.obj
 0001:00017e48       ?get_parameter_type@?$positional_parameter_base@DV?$string_output_adapter@D@__crt_stdio_output@@@__crt_stdio_output@@CA?AW4parameter_type@12@G@Z 0000000180018e48 f i libucrt:output.obj
 0001:00017e50       ?get_parameter_type@?$positional_parameter_base@DV?$string_output_adapter@D@__crt_stdio_output@@@__crt_stdio_output@@CA?AW4parameter_type@12@H@Z 0000000180018e50 f i libucrt:output.obj
 0001:00017e58       ?get_parameter_type@?$positional_parameter_base@DV?$string_output_adapter@D@__crt_stdio_output@@@__crt_stdio_output@@CA?AW4parameter_type@12@I@Z 0000000180018e58 f i libucrt:output.obj
 0001:00017e60       ?get_parameter_type@?$positional_parameter_base@DV?$string_output_adapter@D@__crt_stdio_output@@@__crt_stdio_output@@CA?AW4parameter_type@12@U_CRT_DOUBLE@@@Z 0000000180018e60 f i libucrt:output.obj
 0001:00017e68       ?get_parameter_type@?$positional_parameter_base@DV?$string_output_adapter@D@__crt_stdio_output@@@__crt_stdio_output@@CA?AW4parameter_type@12@_J@Z 0000000180018e68 f i libucrt:output.obj
 0001:00017e70       ?get_parameter_type@?$positional_parameter_base@DV?$string_output_adapter@D@__crt_stdio_output@@@__crt_stdio_output@@CA?AW4parameter_type@12@_K@Z 0000000180018e70 f i libucrt:output.obj
 0001:00017e78       ?get_parameter_type@?$positional_parameter_base@DV?$string_output_adapter@D@__crt_stdio_output@@@__crt_stdio_output@@CA?AW4parameter_type@12@_W@Z 0000000180018e78 f i libucrt:output.obj
 0001:00017e80       ?get_parameter_type@?$positional_parameter_base@_WV?$stream_output_adapter@_W@__crt_stdio_output@@@__crt_stdio_output@@CA?AW4parameter_type@12@F@Z 0000000180018e80 f i libucrt:output.obj
 0001:00017e88       ?get_parameter_type@?$positional_parameter_base@_WV?$stream_output_adapter@_W@__crt_stdio_output@@@__crt_stdio_output@@CA?AW4parameter_type@12@G@Z 0000000180018e88 f i libucrt:output.obj
 0001:00017e90       ?get_parameter_type@?$positional_parameter_base@_WV?$stream_output_adapter@_W@__crt_stdio_output@@@__crt_stdio_output@@CA?AW4parameter_type@12@H@Z 0000000180018e90 f i libucrt:output.obj
 0001:00017e98       ?get_parameter_type@?$positional_parameter_base@_WV?$stream_output_adapter@_W@__crt_stdio_output@@@__crt_stdio_output@@CA?AW4parameter_type@12@I@Z 0000000180018e98 f i libucrt:output.obj
 0001:00017ea0       ?get_parameter_type@?$positional_parameter_base@_WV?$stream_output_adapter@_W@__crt_stdio_output@@@__crt_stdio_output@@CA?AW4parameter_type@12@U_CRT_DOUBLE@@@Z 0000000180018ea0 f i libucrt:output.obj
 0001:00017ea8       ?get_parameter_type@?$positional_parameter_base@_WV?$stream_output_adapter@_W@__crt_stdio_output@@@__crt_stdio_output@@CA?AW4parameter_type@12@_J@Z 0000000180018ea8 f i libucrt:output.obj
 0001:00017eb0       ?get_parameter_type@?$positional_parameter_base@_WV?$stream_output_adapter@_W@__crt_stdio_output@@@__crt_stdio_output@@CA?AW4parameter_type@12@_K@Z 0000000180018eb0 f i libucrt:output.obj
 0001:00017eb8       ?get_parameter_type@?$positional_parameter_base@_WV?$stream_output_adapter@_W@__crt_stdio_output@@@__crt_stdio_output@@CA?AW4parameter_type@12@_W@Z 0000000180018eb8 f i libucrt:output.obj
 0001:00017ec0       ?get_parameter_type@?$positional_parameter_base@_WV?$string_output_adapter@_W@__crt_stdio_output@@@__crt_stdio_output@@CA?AW4parameter_type@12@F@Z 0000000180018ec0 f i libucrt:output.obj
 0001:00017ec8       ?get_parameter_type@?$positional_parameter_base@_WV?$string_output_adapter@_W@__crt_stdio_output@@@__crt_stdio_output@@CA?AW4parameter_type@12@G@Z 0000000180018ec8 f i libucrt:output.obj
 0001:00017ed0       ?get_parameter_type@?$positional_parameter_base@_WV?$string_output_adapter@_W@__crt_stdio_output@@@__crt_stdio_output@@CA?AW4parameter_type@12@H@Z 0000000180018ed0 f i libucrt:output.obj
 0001:00017ed8       ?get_parameter_type@?$positional_parameter_base@_WV?$string_output_adapter@_W@__crt_stdio_output@@@__crt_stdio_output@@CA?AW4parameter_type@12@I@Z 0000000180018ed8 f i libucrt:output.obj
 0001:00017ee0       ?get_parameter_type@?$positional_parameter_base@_WV?$string_output_adapter@_W@__crt_stdio_output@@@__crt_stdio_output@@CA?AW4parameter_type@12@U_CRT_DOUBLE@@@Z 0000000180018ee0 f i libucrt:output.obj
 0001:00017ee8       ?get_parameter_type@?$positional_parameter_base@_WV?$string_output_adapter@_W@__crt_stdio_output@@@__crt_stdio_output@@CA?AW4parameter_type@12@_J@Z 0000000180018ee8 f i libucrt:output.obj
 0001:00017ef0       ?get_parameter_type@?$positional_parameter_base@_WV?$string_output_adapter@_W@__crt_stdio_output@@@__crt_stdio_output@@CA?AW4parameter_type@12@_K@Z 0000000180018ef0 f i libucrt:output.obj
 0001:00017ef8       ?get_parameter_type@?$positional_parameter_base@_WV?$string_output_adapter@_W@__crt_stdio_output@@@__crt_stdio_output@@CA?AW4parameter_type@12@_W@Z 0000000180018ef8 f i libucrt:output.obj
 0001:00017f00       ?has_flag@?$output_processor@DV?$stream_output_adapter@D@__crt_stdio_output@@V?$format_validation_base@DV?$stream_output_adapter@D@__crt_stdio_output@@@2@@__crt_stdio_output@@AEBA_NI@Z 0000000180018f00 f i libucrt:output.obj
 0001:00017f08       ?has_flag@?$output_processor@DV?$stream_output_adapter@D@__crt_stdio_output@@V?$positional_parameter_base@DV?$stream_output_adapter@D@__crt_stdio_output@@@2@@__crt_stdio_output@@AEBA_NI@Z 0000000180018f08 f i libucrt:output.obj
 0001:00017f10       ?has_flag@?$output_processor@DV?$stream_output_adapter@D@__crt_stdio_output@@V?$standard_base@DV?$stream_output_adapter@D@__crt_stdio_output@@@2@@__crt_stdio_output@@AEBA_NI@Z 0000000180018f10 f i libucrt:output.obj
 0001:00017f18       ?has_flag@?$output_processor@DV?$string_output_adapter@D@__crt_stdio_output@@V?$format_validation_base@DV?$string_output_adapter@D@__crt_stdio_output@@@2@@__crt_stdio_output@@AEBA_NI@Z 0000000180018f18 f i libucrt:output.obj
 0001:00017f20       ?has_flag@?$output_processor@DV?$string_output_adapter@D@__crt_stdio_output@@V?$positional_parameter_base@DV?$string_output_adapter@D@__crt_stdio_output@@@2@@__crt_stdio_output@@AEBA_NI@Z 0000000180018f20 f i libucrt:output.obj
 0001:00017f28       ?has_flag@?$output_processor@DV?$string_output_adapter@D@__crt_stdio_output@@V?$standard_base@DV?$string_output_adapter@D@__crt_stdio_output@@@2@@__crt_stdio_output@@AEBA_NI@Z 0000000180018f28 f i libucrt:output.obj
 0001:00017f30       ?has_flag@?$output_processor@_WV?$stream_output_adapter@_W@__crt_stdio_output@@V?$format_validation_base@_WV?$stream_output_adapter@_W@__crt_stdio_output@@@2@@__crt_stdio_output@@AEBA_NI@Z 0000000180018f30 f i libucrt:output.obj
 0001:00017f38       ?has_flag@?$output_processor@_WV?$stream_output_adapter@_W@__crt_stdio_output@@V?$positional_parameter_base@_WV?$stream_output_adapter@_W@__crt_stdio_output@@@2@@__crt_stdio_output@@AEBA_NI@Z 0000000180018f38 f i libucrt:output.obj
 0001:00017f40       ?has_flag@?$output_processor@_WV?$stream_output_adapter@_W@__crt_stdio_output@@V?$standard_base@_WV?$stream_output_adapter@_W@__crt_stdio_output@@@2@@__crt_stdio_output@@AEBA_NI@Z 0000000180018f40 f i libucrt:output.obj
 0001:00017f48       ?has_flag@?$output_processor@_WV?$string_output_adapter@_W@__crt_stdio_output@@V?$format_validation_base@_WV?$string_output_adapter@_W@__crt_stdio_output@@@2@@__crt_stdio_output@@AEBA_NI@Z 0000000180018f48 f i libucrt:output.obj
 0001:00017f50       ?has_flag@?$output_processor@_WV?$string_output_adapter@_W@__crt_stdio_output@@V?$positional_parameter_base@_WV?$string_output_adapter@_W@__crt_stdio_output@@@2@@__crt_stdio_output@@AEBA_NI@Z 0000000180018f50 f i libucrt:output.obj
 0001:00017f58       ?has_flag@?$output_processor@_WV?$string_output_adapter@_W@__crt_stdio_output@@V?$standard_base@_WV?$string_output_adapter@_W@__crt_stdio_output@@@2@@__crt_stdio_output@@AEBA_NI@Z 0000000180018f58 f i libucrt:output.obj
 0001:00017f60       ?is_positional_parameter_reappearance_consistent@?$positional_parameter_base@DV?$stream_output_adapter@D@__crt_stdio_output@@@__crt_stdio_output@@AEAA_NAEBUparameter_data@12@W4parameter_type@12@DW4length_modifier@2@@Z 0000000180018f60 f i libucrt:output.obj
 0001:00018190       ?is_positional_parameter_reappearance_consistent@?$positional_parameter_base@DV?$string_output_adapter@D@__crt_stdio_output@@@__crt_stdio_output@@AEAA_NAEBUparameter_data@12@W4parameter_type@12@DW4length_modifier@2@@Z 0000000180019190 f i libucrt:output.obj
 0001:000183c0       ?is_positional_parameter_reappearance_consistent@?$positional_parameter_base@_WV?$stream_output_adapter@_W@__crt_stdio_output@@@__crt_stdio_output@@AEAA_NAEBUparameter_data@12@W4parameter_type@12@_WW4length_modifier@2@@Z 00000001800193c0 f i libucrt:output.obj
 0001:000185c0       ?is_positional_parameter_reappearance_consistent@?$positional_parameter_base@_WV?$string_output_adapter@_W@__crt_stdio_output@@@__crt_stdio_output@@AEAA_NAEBUparameter_data@12@W4parameter_type@12@_WW4length_modifier@2@@Z 00000001800195c0 f i libucrt:output.obj
 0001:000187c0       ?narrow_null_string@?$output_processor@DV?$stream_output_adapter@D@__crt_stdio_output@@V?$format_validation_base@DV?$stream_output_adapter@D@__crt_stdio_output@@@2@@__crt_stdio_output@@CAPEADXZ 00000001800197c0 f i libucrt:output.obj
 0001:000187c8       ?narrow_null_string@?$output_processor@DV?$stream_output_adapter@D@__crt_stdio_output@@V?$positional_parameter_base@DV?$stream_output_adapter@D@__crt_stdio_output@@@2@@__crt_stdio_output@@CAPEADXZ 00000001800197c8 f i libucrt:output.obj
 0001:000187d0       ?narrow_null_string@?$output_processor@DV?$stream_output_adapter@D@__crt_stdio_output@@V?$standard_base@DV?$stream_output_adapter@D@__crt_stdio_output@@@2@@__crt_stdio_output@@CAPEADXZ 00000001800197d0 f i libucrt:output.obj
 0001:000187d8       ?narrow_null_string@?$output_processor@DV?$string_output_adapter@D@__crt_stdio_output@@V?$format_validation_base@DV?$string_output_adapter@D@__crt_stdio_output@@@2@@__crt_stdio_output@@CAPEADXZ 00000001800197d8 f i libucrt:output.obj
 0001:000187e0       ?narrow_null_string@?$output_processor@DV?$string_output_adapter@D@__crt_stdio_output@@V?$positional_parameter_base@DV?$string_output_adapter@D@__crt_stdio_output@@@2@@__crt_stdio_output@@CAPEADXZ 00000001800197e0 f i libucrt:output.obj
 0001:000187e8       ?narrow_null_string@?$output_processor@DV?$string_output_adapter@D@__crt_stdio_output@@V?$standard_base@DV?$string_output_adapter@D@__crt_stdio_output@@@2@@__crt_stdio_output@@CAPEADXZ 00000001800197e8 f i libucrt:output.obj
 0001:000187f0       ?narrow_null_string@?$output_processor@_WV?$stream_output_adapter@_W@__crt_stdio_output@@V?$format_validation_base@_WV?$stream_output_adapter@_W@__crt_stdio_output@@@2@@__crt_stdio_output@@CAPEADXZ 00000001800197f0 f i libucrt:output.obj
 0001:000187f8       ?narrow_null_string@?$output_processor@_WV?$stream_output_adapter@_W@__crt_stdio_output@@V?$positional_parameter_base@_WV?$stream_output_adapter@_W@__crt_stdio_output@@@2@@__crt_stdio_output@@CAPEADXZ 00000001800197f8 f i libucrt:output.obj
 0001:00018800       ?narrow_null_string@?$output_processor@_WV?$stream_output_adapter@_W@__crt_stdio_output@@V?$standard_base@_WV?$stream_output_adapter@_W@__crt_stdio_output@@@2@@__crt_stdio_output@@CAPEADXZ 0000000180019800 f i libucrt:output.obj
 0001:00018808       ?narrow_null_string@?$output_processor@_WV?$string_output_adapter@_W@__crt_stdio_output@@V?$format_validation_base@_WV?$string_output_adapter@_W@__crt_stdio_output@@@2@@__crt_stdio_output@@CAPEADXZ 0000000180019808 f i libucrt:output.obj
 0001:00018810       ?narrow_null_string@?$output_processor@_WV?$string_output_adapter@_W@__crt_stdio_output@@V?$positional_parameter_base@_WV?$string_output_adapter@_W@__crt_stdio_output@@@2@@__crt_stdio_output@@CAPEADXZ 0000000180019810 f i libucrt:output.obj
 0001:00018818       ?narrow_null_string@?$output_processor@_WV?$string_output_adapter@_W@__crt_stdio_output@@V?$standard_base@_WV?$string_output_adapter@_W@__crt_stdio_output@@@2@@__crt_stdio_output@@CAPEADXZ 0000000180019818 f i libucrt:output.obj
 0001:00018820       ?parse_int_from_format_string@?$output_processor@DV?$stream_output_adapter@D@__crt_stdio_output@@V?$format_validation_base@DV?$stream_output_adapter@D@__crt_stdio_output@@@2@@__crt_stdio_output@@AEAA_NQEAH@Z 0000000180019820 f i libucrt:output.obj
 0001:000188c4       ?parse_int_from_format_string@?$output_processor@DV?$stream_output_adapter@D@__crt_stdio_output@@V?$positional_parameter_base@DV?$stream_output_adapter@D@__crt_stdio_output@@@2@@__crt_stdio_output@@AEAA_NQEAH@Z 00000001800198c4 f i libucrt:output.obj
 0001:00018968       ?parse_int_from_format_string@?$output_processor@DV?$stream_output_adapter@D@__crt_stdio_output@@V?$standard_base@DV?$stream_output_adapter@D@__crt_stdio_output@@@2@@__crt_stdio_output@@AEAA_NQEAH@Z 0000000180019968 f i libucrt:output.obj
 0001:00018a0c       ?parse_int_from_format_string@?$output_processor@DV?$string_output_adapter@D@__crt_stdio_output@@V?$format_validation_base@DV?$string_output_adapter@D@__crt_stdio_output@@@2@@__crt_stdio_output@@AEAA_NQEAH@Z 0000000180019a0c f i libucrt:output.obj
 0001:00018ab0       ?parse_int_from_format_string@?$output_processor@DV?$string_output_adapter@D@__crt_stdio_output@@V?$positional_parameter_base@DV?$string_output_adapter@D@__crt_stdio_output@@@2@@__crt_stdio_output@@AEAA_NQEAH@Z 0000000180019ab0 f i libucrt:output.obj
 0001:00018b54       ?parse_int_from_format_string@?$output_processor@DV?$string_output_adapter@D@__crt_stdio_output@@V?$standard_base@DV?$string_output_adapter@D@__crt_stdio_output@@@2@@__crt_stdio_output@@AEAA_NQEAH@Z 0000000180019b54 f i libucrt:output.obj
 0001:00018bf8       ?parse_int_from_format_string@?$output_processor@_WV?$stream_output_adapter@_W@__crt_stdio_output@@V?$format_validation_base@_WV?$stream_output_adapter@_W@__crt_stdio_output@@@2@@__crt_stdio_output@@AEAA_NQEAH@Z 0000000180019bf8 f i libucrt:output.obj
 0001:00018c9c       ?parse_int_from_format_string@?$output_processor@_WV?$stream_output_adapter@_W@__crt_stdio_output@@V?$positional_parameter_base@_WV?$stream_output_adapter@_W@__crt_stdio_output@@@2@@__crt_stdio_output@@AEAA_NQEAH@Z 0000000180019c9c f i libucrt:output.obj
 0001:00018d40       ?parse_int_from_format_string@?$output_processor@_WV?$stream_output_adapter@_W@__crt_stdio_output@@V?$standard_base@_WV?$stream_output_adapter@_W@__crt_stdio_output@@@2@@__crt_stdio_output@@AEAA_NQEAH@Z 0000000180019d40 f i libucrt:output.obj
 0001:00018de4       ?parse_int_from_format_string@?$output_processor@_WV?$string_output_adapter@_W@__crt_stdio_output@@V?$format_validation_base@_WV?$string_output_adapter@_W@__crt_stdio_output@@@2@@__crt_stdio_output@@AEAA_NQEAH@Z 0000000180019de4 f i libucrt:output.obj
 0001:00018e88       ?parse_int_from_format_string@?$output_processor@_WV?$string_output_adapter@_W@__crt_stdio_output@@V?$positional_parameter_base@_WV?$string_output_adapter@_W@__crt_stdio_output@@@2@@__crt_stdio_output@@AEAA_NQEAH@Z 0000000180019e88 f i libucrt:output.obj
 0001:00018f2c       ?parse_int_from_format_string@?$output_processor@_WV?$string_output_adapter@_W@__crt_stdio_output@@V?$standard_base@_WV?$string_output_adapter@_W@__crt_stdio_output@@@2@@__crt_stdio_output@@AEAA_NQEAH@Z 0000000180019f2c f i libucrt:output.obj
 0001:00018fd0       ?process@?$output_processor@DV?$stream_output_adapter@D@__crt_stdio_output@@V?$format_validation_base@DV?$stream_output_adapter@D@__crt_stdio_output@@@2@@__crt_stdio_output@@QEAAHXZ 0000000180019fd0 f i libucrt:output.obj
 0001:000191f8       ?process@?$output_processor@DV?$stream_output_adapter@D@__crt_stdio_output@@V?$positional_parameter_base@DV?$stream_output_adapter@D@__crt_stdio_output@@@2@@__crt_stdio_output@@QEAAHXZ 000000018001a1f8 f i libucrt:output.obj
 0001:000194a0       ?process@?$output_processor@DV?$stream_output_adapter@D@__crt_stdio_output@@V?$standard_base@DV?$stream_output_adapter@D@__crt_stdio_output@@@2@@__crt_stdio_output@@QEAAHXZ 000000018001a4a0 f i libucrt:output.obj
 0001:000196b8       ?process@?$output_processor@DV?$string_output_adapter@D@__crt_stdio_output@@V?$format_validation_base@DV?$string_output_adapter@D@__crt_stdio_output@@@2@@__crt_stdio_output@@QEAAHXZ 000000018001a6b8 f i libucrt:output.obj
 0001:000198d0       ?process@?$output_processor@DV?$string_output_adapter@D@__crt_stdio_output@@V?$positional_parameter_base@DV?$string_output_adapter@D@__crt_stdio_output@@@2@@__crt_stdio_output@@QEAAHXZ 000000018001a8d0 f i libucrt:output.obj
 0001:00019b68       ?process@?$output_processor@DV?$string_output_adapter@D@__crt_stdio_output@@V?$standard_base@DV?$string_output_adapter@D@__crt_stdio_output@@@2@@__crt_stdio_output@@QEAAHXZ 000000018001ab68 f i libucrt:output.obj
 0001:00019d74       ?process@?$output_processor@_WV?$stream_output_adapter@_W@__crt_stdio_output@@V?$format_validation_base@_WV?$stream_output_adapter@_W@__crt_stdio_output@@@2@@__crt_stdio_output@@QEAAHXZ 000000018001ad74 f i libucrt:output.obj
 0001:00019fec       ?process@?$output_processor@_WV?$stream_output_adapter@_W@__crt_stdio_output@@V?$positional_parameter_base@_WV?$stream_output_adapter@_W@__crt_stdio_output@@@2@@__crt_stdio_output@@QEAAHXZ 000000018001afec f i libucrt:output.obj
 0001:0001a2a0       ?process@?$output_processor@_WV?$stream_output_adapter@_W@__crt_stdio_output@@V?$standard_base@_WV?$stream_output_adapter@_W@__crt_stdio_output@@@2@@__crt_stdio_output@@QEAAHXZ 000000018001b2a0 f i libucrt:output.obj
 0001:0001a50c       ?process@?$output_processor@_WV?$string_output_adapter@_W@__crt_stdio_output@@V?$format_validation_base@_WV?$string_output_adapter@_W@__crt_stdio_output@@@2@@__crt_stdio_output@@QEAAHXZ 000000018001b50c f i libucrt:output.obj
 0001:0001a794       ?process@?$output_processor@_WV?$string_output_adapter@_W@__crt_stdio_output@@V?$positional_parameter_base@_WV?$string_output_adapter@_W@__crt_stdio_output@@@2@@__crt_stdio_output@@QEAAHXZ 000000018001b794 f i libucrt:output.obj
 0001:0001aa48       ?process@?$output_processor@_WV?$string_output_adapter@_W@__crt_stdio_output@@V?$standard_base@_WV?$string_output_adapter@_W@__crt_stdio_output@@@2@@__crt_stdio_output@@QEAAHXZ 000000018001ba48 f i libucrt:output.obj
 0001:0001acc4       ?set_flag@?$output_processor@DV?$stream_output_adapter@D@__crt_stdio_output@@V?$format_validation_base@DV?$stream_output_adapter@D@__crt_stdio_output@@@2@@__crt_stdio_output@@AEAAXI@Z 000000018001bcc4 f i libucrt:output.obj
 0001:0001acc8       ?set_flag@?$output_processor@DV?$stream_output_adapter@D@__crt_stdio_output@@V?$positional_parameter_base@DV?$stream_output_adapter@D@__crt_stdio_output@@@2@@__crt_stdio_output@@AEAAXI@Z 000000018001bcc8 f i libucrt:output.obj
 0001:0001accc       ?set_flag@?$output_processor@DV?$stream_output_adapter@D@__crt_stdio_output@@V?$standard_base@DV?$stream_output_adapter@D@__crt_stdio_output@@@2@@__crt_stdio_output@@AEAAXI@Z 000000018001bccc f i libucrt:output.obj
 0001:0001acd0       ?set_flag@?$output_processor@DV?$string_output_adapter@D@__crt_stdio_output@@V?$format_validation_base@DV?$string_output_adapter@D@__crt_stdio_output@@@2@@__crt_stdio_output@@AEAAXI@Z 000000018001bcd0 f i libucrt:output.obj
 0001:0001acd4       ?set_flag@?$output_processor@DV?$string_output_adapter@D@__crt_stdio_output@@V?$positional_parameter_base@DV?$string_output_adapter@D@__crt_stdio_output@@@2@@__crt_stdio_output@@AEAAXI@Z 000000018001bcd4 f i libucrt:output.obj
 0001:0001acd8       ?set_flag@?$output_processor@DV?$string_output_adapter@D@__crt_stdio_output@@V?$standard_base@DV?$string_output_adapter@D@__crt_stdio_output@@@2@@__crt_stdio_output@@AEAAXI@Z 000000018001bcd8 f i libucrt:output.obj
 0001:0001acdc       ?set_flag@?$output_processor@_WV?$stream_output_adapter@_W@__crt_stdio_output@@V?$format_validation_base@_WV?$stream_output_adapter@_W@__crt_stdio_output@@@2@@__crt_stdio_output@@AEAAXI@Z 000000018001bcdc f i libucrt:output.obj
 0001:0001ace0       ?set_flag@?$output_processor@_WV?$stream_output_adapter@_W@__crt_stdio_output@@V?$positional_parameter_base@_WV?$stream_output_adapter@_W@__crt_stdio_output@@@2@@__crt_stdio_output@@AEAAXI@Z 000000018001bce0 f i libucrt:output.obj
 0001:0001ace4       ?set_flag@?$output_processor@_WV?$stream_output_adapter@_W@__crt_stdio_output@@V?$standard_base@_WV?$stream_output_adapter@_W@__crt_stdio_output@@@2@@__crt_stdio_output@@AEAAXI@Z 000000018001bce4 f i libucrt:output.obj
 0001:0001ace8       ?set_flag@?$output_processor@_WV?$string_output_adapter@_W@__crt_stdio_output@@V?$format_validation_base@_WV?$string_output_adapter@_W@__crt_stdio_output@@@2@@__crt_stdio_output@@AEAAXI@Z 000000018001bce8 f i libucrt:output.obj
 0001:0001acec       ?set_flag@?$output_processor@_WV?$string_output_adapter@_W@__crt_stdio_output@@V?$positional_parameter_base@_WV?$string_output_adapter@_W@__crt_stdio_output@@@2@@__crt_stdio_output@@AEAAXI@Z 000000018001bcec f i libucrt:output.obj
 0001:0001acf0       ?set_flag@?$output_processor@_WV?$string_output_adapter@_W@__crt_stdio_output@@V?$standard_base@_WV?$string_output_adapter@_W@__crt_stdio_output@@@2@@__crt_stdio_output@@AEAAXI@Z 000000018001bcf0 f i libucrt:output.obj
 0001:0001acf4       ?should_format@?$positional_parameter_base@DV?$stream_output_adapter@D@__crt_stdio_output@@@__crt_stdio_output@@IEAA_NXZ 000000018001bcf4 f i libucrt:output.obj
 0001:0001ad0c       ?should_format@?$positional_parameter_base@DV?$string_output_adapter@D@__crt_stdio_output@@@__crt_stdio_output@@IEAA_NXZ 000000018001bd0c f i libucrt:output.obj
 0001:0001ad24       ?should_format@?$positional_parameter_base@_WV?$stream_output_adapter@_W@__crt_stdio_output@@@__crt_stdio_output@@IEAA_NXZ 000000018001bd24 f i libucrt:output.obj
 0001:0001ad3c       ?should_format@?$positional_parameter_base@_WV?$string_output_adapter@_W@__crt_stdio_output@@@__crt_stdio_output@@IEAA_NXZ 000000018001bd3c f i libucrt:output.obj
 0001:0001ad54       ?should_format@?$standard_base@DV?$stream_output_adapter@D@__crt_stdio_output@@@__crt_stdio_output@@IEAA_NXZ 000000018001bd54 f i libucrt:output.obj
 0001:0001ad58       ?should_format@?$standard_base@DV?$string_output_adapter@D@__crt_stdio_output@@@__crt_stdio_output@@IEAA_NXZ 000000018001bd58 f i libucrt:output.obj
 0001:0001ad5c       ?should_format@?$standard_base@_WV?$stream_output_adapter@_W@__crt_stdio_output@@@__crt_stdio_output@@IEAA_NXZ 000000018001bd5c f i libucrt:output.obj
 0001:0001ad60       ?should_format@?$standard_base@_WV?$string_output_adapter@_W@__crt_stdio_output@@@__crt_stdio_output@@IEAA_NXZ 000000018001bd60 f i libucrt:output.obj
 0001:0001ad64       ?should_skip_normal_state_processing@?$positional_parameter_base@DV?$stream_output_adapter@D@__crt_stdio_output@@@__crt_stdio_output@@IEAA_NXZ 000000018001bd64 f i libucrt:output.obj
 0001:0001ad8c       ?should_skip_normal_state_processing@?$positional_parameter_base@DV?$string_output_adapter@D@__crt_stdio_output@@@__crt_stdio_output@@IEAA_NXZ 000000018001bd8c f i libucrt:output.obj
 0001:0001adb4       ?should_skip_normal_state_processing@?$positional_parameter_base@_WV?$stream_output_adapter@_W@__crt_stdio_output@@@__crt_stdio_output@@IEAA_NXZ 000000018001bdb4 f i libucrt:output.obj
 0001:0001addc       ?should_skip_normal_state_processing@?$positional_parameter_base@_WV?$string_output_adapter@_W@__crt_stdio_output@@@__crt_stdio_output@@IEAA_NXZ 000000018001bddc f i libucrt:output.obj
 0001:0001ae04       ?should_skip_normal_state_processing@?$standard_base@DV?$stream_output_adapter@D@__crt_stdio_output@@@__crt_stdio_output@@IEAA_NXZ 000000018001be04 f i libucrt:output.obj
 0001:0001ae08       ?should_skip_normal_state_processing@?$standard_base@DV?$string_output_adapter@D@__crt_stdio_output@@@__crt_stdio_output@@IEAA_NXZ 000000018001be08 f i libucrt:output.obj
 0001:0001ae0c       ?should_skip_normal_state_processing@?$standard_base@_WV?$stream_output_adapter@_W@__crt_stdio_output@@@__crt_stdio_output@@IEAA_NXZ 000000018001be0c f i libucrt:output.obj
 0001:0001ae10       ?should_skip_normal_state_processing@?$standard_base@_WV?$string_output_adapter@_W@__crt_stdio_output@@@__crt_stdio_output@@IEAA_NXZ 000000018001be10 f i libucrt:output.obj
 0001:0001ae14       ?should_skip_type_state_output@?$positional_parameter_base@DV?$stream_output_adapter@D@__crt_stdio_output@@@__crt_stdio_output@@IEBA_NXZ 000000018001be14 f i libucrt:output.obj
 0001:0001ae30       ?should_skip_type_state_output@?$positional_parameter_base@DV?$string_output_adapter@D@__crt_stdio_output@@@__crt_stdio_output@@IEBA_NXZ 000000018001be30 f i libucrt:output.obj
 0001:0001ae4c       ?should_skip_type_state_output@?$positional_parameter_base@_WV?$stream_output_adapter@_W@__crt_stdio_output@@@__crt_stdio_output@@IEBA_NXZ 000000018001be4c f i libucrt:output.obj
 0001:0001ae68       ?should_skip_type_state_output@?$positional_parameter_base@_WV?$string_output_adapter@_W@__crt_stdio_output@@@__crt_stdio_output@@IEBA_NXZ 000000018001be68 f i libucrt:output.obj
 0001:0001ae84       ?should_skip_type_state_output@?$standard_base@DV?$stream_output_adapter@D@__crt_stdio_output@@@__crt_stdio_output@@IEBA_NXZ 000000018001be84 f i libucrt:output.obj
 0001:0001ae88       ?should_skip_type_state_output@?$standard_base@DV?$string_output_adapter@D@__crt_stdio_output@@@__crt_stdio_output@@IEBA_NXZ 000000018001be88 f i libucrt:output.obj
 0001:0001ae8c       ?should_skip_type_state_output@?$standard_base@_WV?$stream_output_adapter@_W@__crt_stdio_output@@@__crt_stdio_output@@IEBA_NXZ 000000018001be8c f i libucrt:output.obj
 0001:0001ae90       ?should_skip_type_state_output@?$standard_base@_WV?$string_output_adapter@_W@__crt_stdio_output@@@__crt_stdio_output@@IEBA_NXZ 000000018001be90 f i libucrt:output.obj
 0001:0001ae94       ?state_case_dot@?$output_processor@DV?$stream_output_adapter@D@__crt_stdio_output@@V?$format_validation_base@DV?$stream_output_adapter@D@__crt_stdio_output@@@2@@__crt_stdio_output@@AEAA_NXZ 000000018001be94 f i libucrt:output.obj
 0001:0001ae9c       ?state_case_dot@?$output_processor@DV?$stream_output_adapter@D@__crt_stdio_output@@V?$positional_parameter_base@DV?$stream_output_adapter@D@__crt_stdio_output@@@2@@__crt_stdio_output@@AEAA_NXZ 000000018001be9c f i libucrt:output.obj
 0001:0001aea4       ?state_case_dot@?$output_processor@DV?$stream_output_adapter@D@__crt_stdio_output@@V?$standard_base@DV?$stream_output_adapter@D@__crt_stdio_output@@@2@@__crt_stdio_output@@AEAA_NXZ 000000018001bea4 f i libucrt:output.obj
 0001:0001aeac       ?state_case_dot@?$output_processor@DV?$string_output_adapter@D@__crt_stdio_output@@V?$format_validation_base@DV?$string_output_adapter@D@__crt_stdio_output@@@2@@__crt_stdio_output@@AEAA_NXZ 000000018001beac f i libucrt:output.obj
 0001:0001aeb4       ?state_case_dot@?$output_processor@DV?$string_output_adapter@D@__crt_stdio_output@@V?$positional_parameter_base@DV?$string_output_adapter@D@__crt_stdio_output@@@2@@__crt_stdio_output@@AEAA_NXZ 000000018001beb4 f i libucrt:output.obj
 0001:0001aebc       ?state_case_dot@?$output_processor@DV?$string_output_adapter@D@__crt_stdio_output@@V?$standard_base@DV?$string_output_adapter@D@__crt_stdio_output@@@2@@__crt_stdio_output@@AEAA_NXZ 000000018001bebc f i libucrt:output.obj
 0001:0001aec4       ?state_case_dot@?$output_processor@_WV?$stream_output_adapter@_W@__crt_stdio_output@@V?$format_validation_base@_WV?$stream_output_adapter@_W@__crt_stdio_output@@@2@@__crt_stdio_output@@AEAA_NXZ 000000018001bec4 f i libucrt:output.obj
 0001:0001aecc       ?state_case_dot@?$output_processor@_WV?$stream_output_adapter@_W@__crt_stdio_output@@V?$positional_parameter_base@_WV?$stream_output_adapter@_W@__crt_stdio_output@@@2@@__crt_stdio_output@@AEAA_NXZ 000000018001becc f i libucrt:output.obj
 0001:0001aed4       ?state_case_dot@?$output_processor@_WV?$stream_output_adapter@_W@__crt_stdio_output@@V?$standard_base@_WV?$stream_output_adapter@_W@__crt_stdio_output@@@2@@__crt_stdio_output@@AEAA_NXZ 000000018001bed4 f i libucrt:output.obj
 0001:0001aedc       ?state_case_dot@?$output_processor@_WV?$string_output_adapter@_W@__crt_stdio_output@@V?$format_validation_base@_WV?$string_output_adapter@_W@__crt_stdio_output@@@2@@__crt_stdio_output@@AEAA_NXZ 000000018001bedc f i libucrt:output.obj
 0001:0001aee4       ?state_case_dot@?$output_processor@_WV?$string_output_adapter@_W@__crt_stdio_output@@V?$positional_parameter_base@_WV?$string_output_adapter@_W@__crt_stdio_output@@@2@@__crt_stdio_output@@AEAA_NXZ 000000018001bee4 f i libucrt:output.obj
 0001:0001aeec       ?state_case_dot@?$output_processor@_WV?$string_output_adapter@_W@__crt_stdio_output@@V?$standard_base@_WV?$string_output_adapter@_W@__crt_stdio_output@@@2@@__crt_stdio_output@@AEAA_NXZ 000000018001beec f i libucrt:output.obj
 0001:0001aef4       ?state_case_flag@?$output_processor@DV?$stream_output_adapter@D@__crt_stdio_output@@V?$format_validation_base@DV?$stream_output_adapter@D@__crt_stdio_output@@@2@@__crt_stdio_output@@AEAA_NXZ 000000018001bef4 f i libucrt:output.obj
 0001:0001af2c       ?state_case_flag@?$output_processor@DV?$stream_output_adapter@D@__crt_stdio_output@@V?$positional_parameter_base@DV?$stream_output_adapter@D@__crt_stdio_output@@@2@@__crt_stdio_output@@AEAA_NXZ 000000018001bf2c f i libucrt:output.obj
 0001:0001af64       ?state_case_flag@?$output_processor@DV?$stream_output_adapter@D@__crt_stdio_output@@V?$standard_base@DV?$stream_output_adapter@D@__crt_stdio_output@@@2@@__crt_stdio_output@@AEAA_NXZ 000000018001bf64 f i libucrt:output.obj
 0001:0001af9c       ?state_case_flag@?$output_processor@DV?$string_output_adapter@D@__crt_stdio_output@@V?$format_validation_base@DV?$string_output_adapter@D@__crt_stdio_output@@@2@@__crt_stdio_output@@AEAA_NXZ 000000018001bf9c f i libucrt:output.obj
 0001:0001afd4       ?state_case_flag@?$output_processor@DV?$string_output_adapter@D@__crt_stdio_output@@V?$positional_parameter_base@DV?$string_output_adapter@D@__crt_stdio_output@@@2@@__crt_stdio_output@@AEAA_NXZ 000000018001bfd4 f i libucrt:output.obj
 0001:0001b00c       ?state_case_flag@?$output_processor@DV?$string_output_adapter@D@__crt_stdio_output@@V?$standard_base@DV?$string_output_adapter@D@__crt_stdio_output@@@2@@__crt_stdio_output@@AEAA_NXZ 000000018001c00c f i libucrt:output.obj
 0001:0001b044       ?state_case_flag@?$output_processor@_WV?$stream_output_adapter@_W@__crt_stdio_output@@V?$format_validation_base@_WV?$stream_output_adapter@_W@__crt_stdio_output@@@2@@__crt_stdio_output@@AEAA_NXZ 000000018001c044 f i libucrt:output.obj
 0001:0001b088       ?state_case_flag@?$output_processor@_WV?$stream_output_adapter@_W@__crt_stdio_output@@V?$positional_parameter_base@_WV?$stream_output_adapter@_W@__crt_stdio_output@@@2@@__crt_stdio_output@@AEAA_NXZ 000000018001c088 f i libucrt:output.obj
 0001:0001b0cc       ?state_case_flag@?$output_processor@_WV?$stream_output_adapter@_W@__crt_stdio_output@@V?$standard_base@_WV?$stream_output_adapter@_W@__crt_stdio_output@@@2@@__crt_stdio_output@@AEAA_NXZ 000000018001c0cc f i libucrt:output.obj
 0001:0001b110       ?state_case_flag@?$output_processor@_WV?$string_output_adapter@_W@__crt_stdio_output@@V?$format_validation_base@_WV?$string_output_adapter@_W@__crt_stdio_output@@@2@@__crt_stdio_output@@AEAA_NXZ 000000018001c110 f i libucrt:output.obj
 0001:0001b154       ?state_case_flag@?$output_processor@_WV?$string_output_adapter@_W@__crt_stdio_output@@V?$positional_parameter_base@_WV?$string_output_adapter@_W@__crt_stdio_output@@@2@@__crt_stdio_output@@AEAA_NXZ 000000018001c154 f i libucrt:output.obj
 0001:0001b198       ?state_case_flag@?$output_processor@_WV?$string_output_adapter@_W@__crt_stdio_output@@V?$standard_base@_WV?$string_output_adapter@_W@__crt_stdio_output@@@2@@__crt_stdio_output@@AEAA_NXZ 000000018001c198 f i libucrt:output.obj
 0001:0001b1dc       ?state_case_normal@?$output_processor@DV?$stream_output_adapter@D@__crt_stdio_output@@V?$format_validation_base@DV?$stream_output_adapter@D@__crt_stdio_output@@@2@@__crt_stdio_output@@AEAA_NXZ 000000018001c1dc f i libucrt:output.obj
 0001:0001b24c       ?state_case_normal@?$output_processor@DV?$stream_output_adapter@D@__crt_stdio_output@@V?$positional_parameter_base@DV?$stream_output_adapter@D@__crt_stdio_output@@@2@@__crt_stdio_output@@AEAA_NXZ 000000018001c24c f i libucrt:output.obj
 0001:0001b2e0       ?state_case_normal@?$output_processor@DV?$stream_output_adapter@D@__crt_stdio_output@@V?$standard_base@DV?$stream_output_adapter@D@__crt_stdio_output@@@2@@__crt_stdio_output@@AEAA_NXZ 000000018001c2e0 f i libucrt:output.obj
 0001:0001b350       ?state_case_normal@?$output_processor@DV?$string_output_adapter@D@__crt_stdio_output@@V?$format_validation_base@DV?$string_output_adapter@D@__crt_stdio_output@@@2@@__crt_stdio_output@@AEAA_NXZ 000000018001c350 f i libucrt:output.obj
 0001:0001b3c4       ?state_case_normal@?$output_processor@DV?$string_output_adapter@D@__crt_stdio_output@@V?$positional_parameter_base@DV?$string_output_adapter@D@__crt_stdio_output@@@2@@__crt_stdio_output@@AEAA_NXZ 000000018001c3c4 f i libucrt:output.obj
 0001:0001b45c       ?state_case_normal@?$output_processor@DV?$string_output_adapter@D@__crt_stdio_output@@V?$standard_base@DV?$string_output_adapter@D@__crt_stdio_output@@@2@@__crt_stdio_output@@AEAA_NXZ 000000018001c45c f i libucrt:output.obj
 0001:0001b4d0       ?state_case_normal@?$output_processor@_WV?$stream_output_adapter@_W@__crt_stdio_output@@V?$format_validation_base@_WV?$stream_output_adapter@_W@__crt_stdio_output@@@2@@__crt_stdio_output@@AEAA_NXZ 000000018001c4d0 f i libucrt:output.obj
 0001:0001b528       ?state_case_normal@?$output_processor@_WV?$stream_output_adapter@_W@__crt_stdio_output@@V?$positional_parameter_base@_WV?$stream_output_adapter@_W@__crt_stdio_output@@@2@@__crt_stdio_output@@AEAA_NXZ 000000018001c528 f i libucrt:output.obj
 0001:0001b5a4       ?state_case_normal@?$output_processor@_WV?$stream_output_adapter@_W@__crt_stdio_output@@V?$standard_base@_WV?$stream_output_adapter@_W@__crt_stdio_output@@@2@@__crt_stdio_output@@AEAA_NXZ 000000018001c5a4 f i libucrt:output.obj
 0001:0001b5fc       ?state_case_normal@?$output_processor@_WV?$string_output_adapter@_W@__crt_stdio_output@@V?$format_validation_base@_WV?$string_output_adapter@_W@__crt_stdio_output@@@2@@__crt_stdio_output@@AEAA_NXZ 000000018001c5fc f i libucrt:output.obj
 0001:0001b650       ?state_case_normal@?$output_processor@_WV?$string_output_adapter@_W@__crt_stdio_output@@V?$positional_parameter_base@_WV?$string_output_adapter@_W@__crt_stdio_output@@@2@@__crt_stdio_output@@AEAA_NXZ 000000018001c650 f i libucrt:output.obj
 0001:0001b6c8       ?state_case_normal@?$output_processor@_WV?$string_output_adapter@_W@__crt_stdio_output@@V?$standard_base@_WV?$string_output_adapter@_W@__crt_stdio_output@@@2@@__crt_stdio_output@@AEAA_NXZ 000000018001c6c8 f i libucrt:output.obj
 0001:0001b71c       ?state_case_normal_common@?$output_processor@DV?$stream_output_adapter@D@__crt_stdio_output@@V?$format_validation_base@DV?$stream_output_adapter@D@__crt_stdio_output@@@2@@__crt_stdio_output@@AEAA_NXZ 000000018001c71c f i libucrt:output.obj
 0001:0001b778       ?state_case_normal_common@?$output_processor@DV?$stream_output_adapter@D@__crt_stdio_output@@V?$positional_parameter_base@DV?$stream_output_adapter@D@__crt_stdio_output@@@2@@__crt_stdio_output@@AEAA_NXZ 000000018001c778 f i libucrt:output.obj
 0001:0001b7d4       ?state_case_normal_common@?$output_processor@DV?$stream_output_adapter@D@__crt_stdio_output@@V?$standard_base@DV?$stream_output_adapter@D@__crt_stdio_output@@@2@@__crt_stdio_output@@AEAA_NXZ 000000018001c7d4 f i libucrt:output.obj
 0001:0001b830       ?state_case_normal_common@?$output_processor@DV?$string_output_adapter@D@__crt_stdio_output@@V?$format_validation_base@DV?$string_output_adapter@D@__crt_stdio_output@@@2@@__crt_stdio_output@@AEAA_NXZ 000000018001c830 f i libucrt:output.obj
 0001:0001b890       ?state_case_normal_common@?$output_processor@DV?$string_output_adapter@D@__crt_stdio_output@@V?$positional_parameter_base@DV?$string_output_adapter@D@__crt_stdio_output@@@2@@__crt_stdio_output@@AEAA_NXZ 000000018001c890 f i libucrt:output.obj
 0001:0001b8f0       ?state_case_normal_common@?$output_processor@DV?$string_output_adapter@D@__crt_stdio_output@@V?$standard_base@DV?$string_output_adapter@D@__crt_stdio_output@@@2@@__crt_stdio_output@@AEAA_NXZ 000000018001c8f0 f i libucrt:output.obj
 0001:0001b950       ?state_case_normal_common@?$output_processor@_WV?$stream_output_adapter@_W@__crt_stdio_output@@V?$format_validation_base@_WV?$stream_output_adapter@_W@__crt_stdio_output@@@2@@__crt_stdio_output@@AEAA_NXZ 000000018001c950 f i libucrt:output.obj
 0001:0001b9a8       ?state_case_normal_common@?$output_processor@_WV?$stream_output_adapter@_W@__crt_stdio_output@@V?$positional_parameter_base@_WV?$stream_output_adapter@_W@__crt_stdio_output@@@2@@__crt_stdio_output@@AEAA_NXZ 000000018001c9a8 f i libucrt:output.obj
 0001:0001ba00       ?state_case_normal_common@?$output_processor@_WV?$stream_output_adapter@_W@__crt_stdio_output@@V?$standard_base@_WV?$stream_output_adapter@_W@__crt_stdio_output@@@2@@__crt_stdio_output@@AEAA_NXZ 000000018001ca00 f i libucrt:output.obj
 0001:0001ba58       ?state_case_normal_common@?$output_processor@_WV?$string_output_adapter@_W@__crt_stdio_output@@V?$format_validation_base@_WV?$string_output_adapter@_W@__crt_stdio_output@@@2@@__crt_stdio_output@@AEAA_NXZ 000000018001ca58 f i libucrt:output.obj
 0001:0001baac       ?state_case_normal_common@?$output_processor@_WV?$string_output_adapter@_W@__crt_stdio_output@@V?$positional_parameter_base@_WV?$string_output_adapter@_W@__crt_stdio_output@@@2@@__crt_stdio_output@@AEAA_NXZ 000000018001caac f i libucrt:output.obj
 0001:0001bb00       ?state_case_normal_common@?$output_processor@_WV?$string_output_adapter@_W@__crt_stdio_output@@V?$standard_base@_WV?$string_output_adapter@_W@__crt_stdio_output@@@2@@__crt_stdio_output@@AEAA_NXZ 000000018001cb00 f i libucrt:output.obj
 0001:0001bb54       ?state_case_normal_tchar@?$output_processor@DV?$stream_output_adapter@D@__crt_stdio_output@@V?$format_validation_base@DV?$stream_output_adapter@D@__crt_stdio_output@@@2@@__crt_stdio_output@@AEAA_ND@Z 000000018001cb54 f i libucrt:output.obj
 0001:0001bbf8       ?state_case_normal_tchar@?$output_processor@DV?$stream_output_adapter@D@__crt_stdio_output@@V?$positional_parameter_base@DV?$stream_output_adapter@D@__crt_stdio_output@@@2@@__crt_stdio_output@@AEAA_ND@Z 000000018001cbf8 f i libucrt:output.obj
 0001:0001bc9c       ?state_case_normal_tchar@?$output_processor@DV?$stream_output_adapter@D@__crt_stdio_output@@V?$standard_base@DV?$stream_output_adapter@D@__crt_stdio_output@@@2@@__crt_stdio_output@@AEAA_ND@Z 000000018001cc9c f i libucrt:output.obj
 0001:0001bd40       ?state_case_normal_tchar@?$output_processor@DV?$string_output_adapter@D@__crt_stdio_output@@V?$format_validation_base@DV?$string_output_adapter@D@__crt_stdio_output@@@2@@__crt_stdio_output@@AEAA_ND@Z 000000018001cd40 f i libucrt:output.obj
 0001:0001bde8       ?state_case_normal_tchar@?$output_processor@DV?$string_output_adapter@D@__crt_stdio_output@@V?$positional_parameter_base@DV?$string_output_adapter@D@__crt_stdio_output@@@2@@__crt_stdio_output@@AEAA_ND@Z 000000018001cde8 f i libucrt:output.obj
 0001:0001be90       ?state_case_normal_tchar@?$output_processor@DV?$string_output_adapter@D@__crt_stdio_output@@V?$standard_base@DV?$string_output_adapter@D@__crt_stdio_output@@@2@@__crt_stdio_output@@AEAA_ND@Z 000000018001ce90 f i libucrt:output.obj
 0001:0001bf38       ?state_case_normal_tchar@?$output_processor@_WV?$stream_output_adapter@_W@__crt_stdio_output@@V?$format_validation_base@_WV?$stream_output_adapter@_W@__crt_stdio_output@@@2@@__crt_stdio_output@@AEAA_N_W@Z 000000018001cf38 f i libucrt:output.obj
 0001:0001bf40       ?state_case_normal_tchar@?$output_processor@_WV?$stream_output_adapter@_W@__crt_stdio_output@@V?$positional_parameter_base@_WV?$stream_output_adapter@_W@__crt_stdio_output@@@2@@__crt_stdio_output@@AEAA_N_W@Z 000000018001cf40 f i libucrt:output.obj
 0001:0001bf48       ?state_case_normal_tchar@?$output_processor@_WV?$stream_output_adapter@_W@__crt_stdio_output@@V?$standard_base@_WV?$stream_output_adapter@_W@__crt_stdio_output@@@2@@__crt_stdio_output@@AEAA_N_W@Z 000000018001cf48 f i libucrt:output.obj
 0001:0001bf50       ?state_case_normal_tchar@?$output_processor@_WV?$string_output_adapter@_W@__crt_stdio_output@@V?$format_validation_base@_WV?$string_output_adapter@_W@__crt_stdio_output@@@2@@__crt_stdio_output@@AEAA_N_W@Z 000000018001cf50 f i libucrt:output.obj
 0001:0001bf58       ?state_case_normal_tchar@?$output_processor@_WV?$string_output_adapter@_W@__crt_stdio_output@@V?$positional_parameter_base@_WV?$string_output_adapter@_W@__crt_stdio_output@@@2@@__crt_stdio_output@@AEAA_N_W@Z 000000018001cf58 f i libucrt:output.obj
 0001:0001bf60       ?state_case_normal_tchar@?$output_processor@_WV?$string_output_adapter@_W@__crt_stdio_output@@V?$standard_base@_WV?$string_output_adapter@_W@__crt_stdio_output@@@2@@__crt_stdio_output@@AEAA_N_W@Z 000000018001cf60 f i libucrt:output.obj
 0001:0001bf68       ?state_case_percent@?$output_processor@DV?$stream_output_adapter@D@__crt_stdio_output@@V?$format_validation_base@DV?$stream_output_adapter@D@__crt_stdio_output@@@2@@__crt_stdio_output@@AEAA_NXZ 000000018001cf68 f i libucrt:output.obj
 0001:0001bf80       ?state_case_percent@?$output_processor@DV?$stream_output_adapter@D@__crt_stdio_output@@V?$positional_parameter_base@DV?$stream_output_adapter@D@__crt_stdio_output@@@2@@__crt_stdio_output@@AEAA_NXZ 000000018001cf80 f i libucrt:output.obj
 0001:0001bf98       ?state_case_percent@?$output_processor@DV?$stream_output_adapter@D@__crt_stdio_output@@V?$standard_base@DV?$stream_output_adapter@D@__crt_stdio_output@@@2@@__crt_stdio_output@@AEAA_NXZ 000000018001cf98 f i libucrt:output.obj
 0001:0001bfb0       ?state_case_percent@?$output_processor@DV?$string_output_adapter@D@__crt_stdio_output@@V?$format_validation_base@DV?$string_output_adapter@D@__crt_stdio_output@@@2@@__crt_stdio_output@@AEAA_NXZ 000000018001cfb0 f i libucrt:output.obj
 0001:0001bfc8       ?state_case_percent@?$output_processor@DV?$string_output_adapter@D@__crt_stdio_output@@V?$positional_parameter_base@DV?$string_output_adapter@D@__crt_stdio_output@@@2@@__crt_stdio_output@@AEAA_NXZ 000000018001cfc8 f i libucrt:output.obj
 0001:0001bfe0       ?state_case_percent@?$output_processor@DV?$string_output_adapter@D@__crt_stdio_output@@V?$standard_base@DV?$string_output_adapter@D@__crt_stdio_output@@@2@@__crt_stdio_output@@AEAA_NXZ 000000018001cfe0 f i libucrt:output.obj
 0001:0001bff8       ?state_case_percent@?$output_processor@_WV?$stream_output_adapter@_W@__crt_stdio_output@@V?$format_validation_base@_WV?$stream_output_adapter@_W@__crt_stdio_output@@@2@@__crt_stdio_output@@AEAA_NXZ 000000018001cff8 f i libucrt:output.obj
 0001:0001c010       ?state_case_percent@?$output_processor@_WV?$stream_output_adapter@_W@__crt_stdio_output@@V?$positional_parameter_base@_WV?$stream_output_adapter@_W@__crt_stdio_output@@@2@@__crt_stdio_output@@AEAA_NXZ 000000018001d010 f i libucrt:output.obj
 0001:0001c028       ?state_case_percent@?$output_processor@_WV?$stream_output_adapter@_W@__crt_stdio_output@@V?$standard_base@_WV?$stream_output_adapter@_W@__crt_stdio_output@@@2@@__crt_stdio_output@@AEAA_NXZ 000000018001d028 f i libucrt:output.obj
 0001:0001c040       ?state_case_percent@?$output_processor@_WV?$string_output_adapter@_W@__crt_stdio_output@@V?$format_validation_base@_WV?$string_output_adapter@_W@__crt_stdio_output@@@2@@__crt_stdio_output@@AEAA_NXZ 000000018001d040 f i libucrt:output.obj
 0001:0001c058       ?state_case_percent@?$output_processor@_WV?$string_output_adapter@_W@__crt_stdio_output@@V?$positional_parameter_base@_WV?$string_output_adapter@_W@__crt_stdio_output@@@2@@__crt_stdio_output@@AEAA_NXZ 000000018001d058 f i libucrt:output.obj
 0001:0001c070       ?state_case_percent@?$output_processor@_WV?$string_output_adapter@_W@__crt_stdio_output@@V?$standard_base@_WV?$string_output_adapter@_W@__crt_stdio_output@@@2@@__crt_stdio_output@@AEAA_NXZ 000000018001d070 f i libucrt:output.obj
 0001:0001c088       ?state_case_precision@?$output_processor@DV?$stream_output_adapter@D@__crt_stdio_output@@V?$format_validation_base@DV?$stream_output_adapter@D@__crt_stdio_output@@@2@@__crt_stdio_output@@AEAA_NXZ 000000018001d088 f i libucrt:output.obj
 0001:0001c0b0       ?state_case_precision@?$output_processor@DV?$stream_output_adapter@D@__crt_stdio_output@@V?$positional_parameter_base@DV?$stream_output_adapter@D@__crt_stdio_output@@@2@@__crt_stdio_output@@AEAA_NXZ 000000018001d0b0 f i libucrt:output.obj
 0001:0001c0fc       ?state_case_precision@?$output_processor@DV?$stream_output_adapter@D@__crt_stdio_output@@V?$standard_base@DV?$stream_output_adapter@D@__crt_stdio_output@@@2@@__crt_stdio_output@@AEAA_NXZ 000000018001d0fc f i libucrt:output.obj
 0001:0001c124       ?state_case_precision@?$output_processor@DV?$string_output_adapter@D@__crt_stdio_output@@V?$format_validation_base@DV?$string_output_adapter@D@__crt_stdio_output@@@2@@__crt_stdio_output@@AEAA_NXZ 000000018001d124 f i libucrt:output.obj
 0001:0001c14c       ?state_case_precision@?$output_processor@DV?$string_output_adapter@D@__crt_stdio_output@@V?$positional_parameter_base@DV?$string_output_adapter@D@__crt_stdio_output@@@2@@__crt_stdio_output@@AEAA_NXZ 000000018001d14c f i libucrt:output.obj
 0001:0001c198       ?state_case_precision@?$output_processor@DV?$string_output_adapter@D@__crt_stdio_output@@V?$standard_base@DV?$string_output_adapter@D@__crt_stdio_output@@@2@@__crt_stdio_output@@AEAA_NXZ 000000018001d198 f i libucrt:output.obj
 0001:0001c1c0       ?state_case_precision@?$output_processor@_WV?$stream_output_adapter@_W@__crt_stdio_output@@V?$format_validation_base@_WV?$stream_output_adapter@_W@__crt_stdio_output@@@2@@__crt_stdio_output@@AEAA_NXZ 000000018001d1c0 f i libucrt:output.obj
 0001:0001c1e8       ?state_case_precision@?$output_processor@_WV?$stream_output_adapter@_W@__crt_stdio_output@@V?$positional_parameter_base@_WV?$stream_output_adapter@_W@__crt_stdio_output@@@2@@__crt_stdio_output@@AEAA_NXZ 000000018001d1e8 f i libucrt:output.obj
 0001:0001c234       ?state_case_precision@?$output_processor@_WV?$stream_output_adapter@_W@__crt_stdio_output@@V?$standard_base@_WV?$stream_output_adapter@_W@__crt_stdio_output@@@2@@__crt_stdio_output@@AEAA_NXZ 000000018001d234 f i libucrt:output.obj
 0001:0001c25c       ?state_case_precision@?$output_processor@_WV?$string_output_adapter@_W@__crt_stdio_output@@V?$format_validation_base@_WV?$string_output_adapter@_W@__crt_stdio_output@@@2@@__crt_stdio_output@@AEAA_NXZ 000000018001d25c f i libucrt:output.obj
 0001:0001c284       ?state_case_precision@?$output_processor@_WV?$string_output_adapter@_W@__crt_stdio_output@@V?$positional_parameter_base@_WV?$string_output_adapter@_W@__crt_stdio_output@@@2@@__crt_stdio_output@@AEAA_NXZ 000000018001d284 f i libucrt:output.obj
 0001:0001c2d0       ?state_case_precision@?$output_processor@_WV?$string_output_adapter@_W@__crt_stdio_output@@V?$standard_base@_WV?$string_output_adapter@_W@__crt_stdio_output@@@2@@__crt_stdio_output@@AEAA_NXZ 000000018001d2d0 f i libucrt:output.obj
 0001:0001c2f8       ?state_case_size@?$output_processor@DV?$stream_output_adapter@D@__crt_stdio_output@@V?$format_validation_base@DV?$stream_output_adapter@D@__crt_stdio_output@@@2@@__crt_stdio_output@@AEAA_NXZ 000000018001d2f8 f i libucrt:output.obj
 0001:0001c46c       ?state_case_size@?$output_processor@DV?$stream_output_adapter@D@__crt_stdio_output@@V?$positional_parameter_base@DV?$stream_output_adapter@D@__crt_stdio_output@@@2@@__crt_stdio_output@@AEAA_NXZ 000000018001d46c f i libucrt:output.obj
 0001:0001c5e0       ?state_case_size@?$output_processor@DV?$stream_output_adapter@D@__crt_stdio_output@@V?$standard_base@DV?$stream_output_adapter@D@__crt_stdio_output@@@2@@__crt_stdio_output@@AEAA_NXZ 000000018001d5e0 f i libucrt:output.obj
 0001:0001c754       ?state_case_size@?$output_processor@DV?$string_output_adapter@D@__crt_stdio_output@@V?$format_validation_base@DV?$string_output_adapter@D@__crt_stdio_output@@@2@@__crt_stdio_output@@AEAA_NXZ 000000018001d754 f i libucrt:output.obj
 0001:0001c8c8       ?state_case_size@?$output_processor@DV?$string_output_adapter@D@__crt_stdio_output@@V?$positional_parameter_base@DV?$string_output_adapter@D@__crt_stdio_output@@@2@@__crt_stdio_output@@AEAA_NXZ 000000018001d8c8 f i libucrt:output.obj
 0001:0001ca3c       ?state_case_size@?$output_processor@DV?$string_output_adapter@D@__crt_stdio_output@@V?$standard_base@DV?$string_output_adapter@D@__crt_stdio_output@@@2@@__crt_stdio_output@@AEAA_NXZ 000000018001da3c f i libucrt:output.obj
 0001:0001cbb0       ?state_case_size@?$output_processor@_WV?$stream_output_adapter@_W@__crt_stdio_output@@V?$format_validation_base@_WV?$stream_output_adapter@_W@__crt_stdio_output@@@2@@__crt_stdio_output@@AEAA_NXZ 000000018001dbb0 f i libucrt:output.obj
 0001:0001cd48       ?state_case_size@?$output_processor@_WV?$stream_output_adapter@_W@__crt_stdio_output@@V?$positional_parameter_base@_WV?$stream_output_adapter@_W@__crt_stdio_output@@@2@@__crt_stdio_output@@AEAA_NXZ 000000018001dd48 f i libucrt:output.obj
 0001:0001cee0       ?state_case_size@?$output_processor@_WV?$stream_output_adapter@_W@__crt_stdio_output@@V?$standard_base@_WV?$stream_output_adapter@_W@__crt_stdio_output@@@2@@__crt_stdio_output@@AEAA_NXZ 000000018001dee0 f i libucrt:output.obj
 0001:0001d078       ?state_case_size@?$output_processor@_WV?$string_output_adapter@_W@__crt_stdio_output@@V?$format_validation_base@_WV?$string_output_adapter@_W@__crt_stdio_output@@@2@@__crt_stdio_output@@AEAA_NXZ 000000018001e078 f i libucrt:output.obj
 0001:0001d210       ?state_case_size@?$output_processor@_WV?$string_output_adapter@_W@__crt_stdio_output@@V?$positional_parameter_base@_WV?$string_output_adapter@_W@__crt_stdio_output@@@2@@__crt_stdio_output@@AEAA_NXZ 000000018001e210 f i libucrt:output.obj
 0001:0001d3a8       ?state_case_size@?$output_processor@_WV?$string_output_adapter@_W@__crt_stdio_output@@V?$standard_base@_WV?$string_output_adapter@_W@__crt_stdio_output@@@2@@__crt_stdio_output@@AEAA_NXZ 000000018001e3a8 f i libucrt:output.obj
 0001:0001d540       ?state_case_type@?$output_processor@DV?$stream_output_adapter@D@__crt_stdio_output@@V?$format_validation_base@DV?$stream_output_adapter@D@__crt_stdio_output@@@2@@__crt_stdio_output@@AEAA_NXZ 000000018001e540 f i libucrt:output.obj
 0001:0001d7c4       ?state_case_type@?$output_processor@DV?$stream_output_adapter@D@__crt_stdio_output@@V?$positional_parameter_base@DV?$stream_output_adapter@D@__crt_stdio_output@@@2@@__crt_stdio_output@@AEAA_NXZ 000000018001e7c4 f i libucrt:output.obj
 0001:0001da60       ?state_case_type@?$output_processor@DV?$stream_output_adapter@D@__crt_stdio_output@@V?$standard_base@DV?$stream_output_adapter@D@__crt_stdio_output@@@2@@__crt_stdio_output@@AEAA_NXZ 000000018001ea60 f i libucrt:output.obj
 0001:0001dce4       ?state_case_type@?$output_processor@DV?$string_output_adapter@D@__crt_stdio_output@@V?$format_validation_base@DV?$string_output_adapter@D@__crt_stdio_output@@@2@@__crt_stdio_output@@AEAA_NXZ 000000018001ece4 f i libucrt:output.obj
 0001:0001df4c       ?state_case_type@?$output_processor@DV?$string_output_adapter@D@__crt_stdio_output@@V?$positional_parameter_base@DV?$string_output_adapter@D@__crt_stdio_output@@@2@@__crt_stdio_output@@AEAA_NXZ 000000018001ef4c f i libucrt:output.obj
 0001:0001e1c8       ?state_case_type@?$output_processor@DV?$string_output_adapter@D@__crt_stdio_output@@V?$standard_base@DV?$string_output_adapter@D@__crt_stdio_output@@@2@@__crt_stdio_output@@AEAA_NXZ 000000018001f1c8 f i libucrt:output.obj
 0001:0001e430       ?state_case_type@?$output_processor@_WV?$stream_output_adapter@_W@__crt_stdio_output@@V?$format_validation_base@_WV?$stream_output_adapter@_W@__crt_stdio_output@@@2@@__crt_stdio_output@@AEAA_NXZ 000000018001f430 f i libucrt:output.obj
 0001:0001e710       ?state_case_type@?$output_processor@_WV?$stream_output_adapter@_W@__crt_stdio_output@@V?$positional_parameter_base@_WV?$stream_output_adapter@_W@__crt_stdio_output@@@2@@__crt_stdio_output@@AEAA_NXZ 000000018001f710 f i libucrt:output.obj
 0001:0001ea04       ?state_case_type@?$output_processor@_WV?$stream_output_adapter@_W@__crt_stdio_output@@V?$standard_base@_WV?$stream_output_adapter@_W@__crt_stdio_output@@@2@@__crt_stdio_output@@AEAA_NXZ 000000018001fa04 f i libucrt:output.obj
 0001:0001ece4       ?state_case_type@?$output_processor@_WV?$string_output_adapter@_W@__crt_stdio_output@@V?$format_validation_base@_WV?$string_output_adapter@_W@__crt_stdio_output@@@2@@__crt_stdio_output@@AEAA_NXZ 000000018001fce4 f i libucrt:output.obj
 0001:0001efb0       ?state_case_type@?$output_processor@_WV?$string_output_adapter@_W@__crt_stdio_output@@V?$positional_parameter_base@_WV?$string_output_adapter@_W@__crt_stdio_output@@@2@@__crt_stdio_output@@AEAA_NXZ 000000018001ffb0 f i libucrt:output.obj
 0001:0001f290       ?state_case_type@?$output_processor@_WV?$string_output_adapter@_W@__crt_stdio_output@@V?$standard_base@_WV?$string_output_adapter@_W@__crt_stdio_output@@@2@@__crt_stdio_output@@AEAA_NXZ 0000000180020290 f i libucrt:output.obj
 0001:0001f55c       ?state_case_width@?$output_processor@DV?$stream_output_adapter@D@__crt_stdio_output@@V?$format_validation_base@DV?$stream_output_adapter@D@__crt_stdio_output@@@2@@__crt_stdio_output@@AEAA_NXZ 000000018002055c f i libucrt:output.obj
 0001:0001f590       ?state_case_width@?$output_processor@DV?$stream_output_adapter@D@__crt_stdio_output@@V?$positional_parameter_base@DV?$stream_output_adapter@D@__crt_stdio_output@@@2@@__crt_stdio_output@@AEAA_NXZ 0000000180020590 f i libucrt:output.obj
 0001:0001f5e0       ?state_case_width@?$output_processor@DV?$stream_output_adapter@D@__crt_stdio_output@@V?$standard_base@DV?$stream_output_adapter@D@__crt_stdio_output@@@2@@__crt_stdio_output@@AEAA_NXZ 00000001800205e0 f i libucrt:output.obj
 0001:0001f614       ?state_case_width@?$output_processor@DV?$string_output_adapter@D@__crt_stdio_output@@V?$format_validation_base@DV?$string_output_adapter@D@__crt_stdio_output@@@2@@__crt_stdio_output@@AEAA_NXZ 0000000180020614 f i libucrt:output.obj
 0001:0001f648       ?state_case_width@?$output_processor@DV?$string_output_adapter@D@__crt_stdio_output@@V?$positional_parameter_base@DV?$string_output_adapter@D@__crt_stdio_output@@@2@@__crt_stdio_output@@AEAA_NXZ 0000000180020648 f i libucrt:output.obj
 0001:0001f698       ?state_case_width@?$output_processor@DV?$string_output_adapter@D@__crt_stdio_output@@V?$standard_base@DV?$string_output_adapter@D@__crt_stdio_output@@@2@@__crt_stdio_output@@AEAA_NXZ 0000000180020698 f i libucrt:output.obj
 0001:0001f6cc       ?state_case_width@?$output_processor@_WV?$stream_output_adapter@_W@__crt_stdio_output@@V?$format_validation_base@_WV?$stream_output_adapter@_W@__crt_stdio_output@@@2@@__crt_stdio_output@@AEAA_NXZ 00000001800206cc f i libucrt:output.obj
 0001:0001f700       ?state_case_width@?$output_processor@_WV?$stream_output_adapter@_W@__crt_stdio_output@@V?$positional_parameter_base@_WV?$stream_output_adapter@_W@__crt_stdio_output@@@2@@__crt_stdio_output@@AEAA_NXZ 0000000180020700 f i libucrt:output.obj
 0001:0001f754       ?state_case_width@?$output_processor@_WV?$stream_output_adapter@_W@__crt_stdio_output@@V?$standard_base@_WV?$stream_output_adapter@_W@__crt_stdio_output@@@2@@__crt_stdio_output@@AEAA_NXZ 0000000180020754 f i libucrt:output.obj
 0001:0001f788       ?state_case_width@?$output_processor@_WV?$string_output_adapter@_W@__crt_stdio_output@@V?$format_validation_base@_WV?$string_output_adapter@_W@__crt_stdio_output@@@2@@__crt_stdio_output@@AEAA_NXZ 0000000180020788 f i libucrt:output.obj
 0001:0001f7bc       ?state_case_width@?$output_processor@_WV?$string_output_adapter@_W@__crt_stdio_output@@V?$positional_parameter_base@_WV?$string_output_adapter@_W@__crt_stdio_output@@@2@@__crt_stdio_output@@AEAA_NXZ 00000001800207bc f i libucrt:output.obj
 0001:0001f810       ?state_case_width@?$output_processor@_WV?$string_output_adapter@_W@__crt_stdio_output@@V?$standard_base@_WV?$string_output_adapter@_W@__crt_stdio_output@@@2@@__crt_stdio_output@@AEAA_NXZ 0000000180020810 f i libucrt:output.obj
 0001:0001f844       ?state_count@?$format_validation_base@DV?$stream_output_adapter@D@__crt_stdio_output@@@__crt_stdio_output@@KAIXZ 0000000180020844 f i libucrt:output.obj
 0001:0001f84c       ?state_count@?$format_validation_base@DV?$string_output_adapter@D@__crt_stdio_output@@@__crt_stdio_output@@KAIXZ 000000018002084c f i libucrt:output.obj
 0001:0001f854       ?state_count@?$format_validation_base@_WV?$stream_output_adapter@_W@__crt_stdio_output@@@__crt_stdio_output@@KAIXZ 0000000180020854 f i libucrt:output.obj
 0001:0001f85c       ?state_count@?$format_validation_base@_WV?$string_output_adapter@_W@__crt_stdio_output@@@__crt_stdio_output@@KAIXZ 000000018002085c f i libucrt:output.obj
 0001:0001f864       ?state_count@?$standard_base@DV?$stream_output_adapter@D@__crt_stdio_output@@@__crt_stdio_output@@KAIXZ 0000000180020864 f i libucrt:output.obj
 0001:0001f86c       ?state_count@?$standard_base@DV?$string_output_adapter@D@__crt_stdio_output@@@__crt_stdio_output@@KAIXZ 000000018002086c f i libucrt:output.obj
 0001:0001f874       ?state_count@?$standard_base@_WV?$stream_output_adapter@_W@__crt_stdio_output@@@__crt_stdio_output@@KAIXZ 0000000180020874 f i libucrt:output.obj
 0001:0001f87c       ?state_count@?$standard_base@_WV?$string_output_adapter@_W@__crt_stdio_output@@@__crt_stdio_output@@KAIXZ 000000018002087c f i libucrt:output.obj
 0001:0001f884       ?state_transition_table@?$format_validation_base@DV?$stream_output_adapter@D@__crt_stdio_output@@@__crt_stdio_output@@KAPEBEXZ 0000000180020884 f i libucrt:output.obj
 0001:0001f88c       ?state_transition_table@?$format_validation_base@DV?$string_output_adapter@D@__crt_stdio_output@@@__crt_stdio_output@@KAPEBEXZ 000000018002088c f i libucrt:output.obj
 0001:0001f894       ?state_transition_table@?$format_validation_base@_WV?$stream_output_adapter@_W@__crt_stdio_output@@@__crt_stdio_output@@KAPEBEXZ 0000000180020894 f i libucrt:output.obj
 0001:0001f89c       ?state_transition_table@?$format_validation_base@_WV?$string_output_adapter@_W@__crt_stdio_output@@@__crt_stdio_output@@KAPEBEXZ 000000018002089c f i libucrt:output.obj
 0001:0001f8a4       ?state_transition_table@?$standard_base@DV?$stream_output_adapter@D@__crt_stdio_output@@@__crt_stdio_output@@KAPEBEXZ 00000001800208a4 f i libucrt:output.obj
 0001:0001f8ac       ?state_transition_table@?$standard_base@DV?$string_output_adapter@D@__crt_stdio_output@@@__crt_stdio_output@@KAPEBEXZ 00000001800208ac f i libucrt:output.obj
 0001:0001f8b4       ?state_transition_table@?$standard_base@_WV?$stream_output_adapter@_W@__crt_stdio_output@@@__crt_stdio_output@@KAPEBEXZ 00000001800208b4 f i libucrt:output.obj
 0001:0001f8bc       ?state_transition_table@?$standard_base@_WV?$string_output_adapter@_W@__crt_stdio_output@@@__crt_stdio_output@@KAPEBEXZ 00000001800208bc f i libucrt:output.obj
 0001:0001f8c4       ?tchar_string@?$common_data@D@__crt_stdio_output@@IEAAAEAPEADD@Z 00000001800208c4 f i libucrt:output.obj
 0001:0001f8cc       ?tchar_string@?$common_data@D@__crt_stdio_output@@IEAAAEAPEADXZ 00000001800208cc f i libucrt:output.obj
 0001:0001f8d4       ?tchar_string@?$common_data@_W@__crt_stdio_output@@IEAAAEAPEA_WXZ 00000001800208d4 f i libucrt:output.obj
 0001:0001f8dc       ?tchar_string@?$common_data@_W@__crt_stdio_output@@IEAAAEAPEA_W_W@Z 00000001800208dc f i libucrt:output.obj
 0001:0001f8e4       ?to_integer_size@__crt_stdio_output@@YA_KW4length_modifier@1@@Z 00000001800208e4 f i libucrt:output.obj
 0001:0001f92c       ?type_case_X@?$output_processor@DV?$stream_output_adapter@D@__crt_stdio_output@@V?$format_validation_base@DV?$stream_output_adapter@D@__crt_stdio_output@@@2@@__crt_stdio_output@@AEAA_NXZ 000000018002092c f i libucrt:output.obj
 0001:0001f93c       ?type_case_X@?$output_processor@DV?$stream_output_adapter@D@__crt_stdio_output@@V?$positional_parameter_base@DV?$stream_output_adapter@D@__crt_stdio_output@@@2@@__crt_stdio_output@@AEAA_NXZ 000000018002093c f i libucrt:output.obj
 0001:0001f94c       ?type_case_X@?$output_processor@DV?$stream_output_adapter@D@__crt_stdio_output@@V?$standard_base@DV?$stream_output_adapter@D@__crt_stdio_output@@@2@@__crt_stdio_output@@AEAA_NXZ 000000018002094c f i libucrt:output.obj
 0001:0001f95c       ?type_case_X@?$output_processor@DV?$string_output_adapter@D@__crt_stdio_output@@V?$format_validation_base@DV?$string_output_adapter@D@__crt_stdio_output@@@2@@__crt_stdio_output@@AEAA_NXZ 000000018002095c f i libucrt:output.obj
 0001:0001f96c       ?type_case_X@?$output_processor@DV?$string_output_adapter@D@__crt_stdio_output@@V?$positional_parameter_base@DV?$string_output_adapter@D@__crt_stdio_output@@@2@@__crt_stdio_output@@AEAA_NXZ 000000018002096c f i libucrt:output.obj
 0001:0001f97c       ?type_case_X@?$output_processor@DV?$string_output_adapter@D@__crt_stdio_output@@V?$standard_base@DV?$string_output_adapter@D@__crt_stdio_output@@@2@@__crt_stdio_output@@AEAA_NXZ 000000018002097c f i libucrt:output.obj
 0001:0001f98c       ?type_case_X@?$output_processor@_WV?$stream_output_adapter@_W@__crt_stdio_output@@V?$format_validation_base@_WV?$stream_output_adapter@_W@__crt_stdio_output@@@2@@__crt_stdio_output@@AEAA_NXZ 000000018002098c f i libucrt:output.obj
 0001:0001f99c       ?type_case_X@?$output_processor@_WV?$stream_output_adapter@_W@__crt_stdio_output@@V?$positional_parameter_base@_WV?$stream_output_adapter@_W@__crt_stdio_output@@@2@@__crt_stdio_output@@AEAA_NXZ 000000018002099c f i libucrt:output.obj
 0001:0001f9ac       ?type_case_X@?$output_processor@_WV?$stream_output_adapter@_W@__crt_stdio_output@@V?$standard_base@_WV?$stream_output_adapter@_W@__crt_stdio_output@@@2@@__crt_stdio_output@@AEAA_NXZ 00000001800209ac f i libucrt:output.obj
 0001:0001f9bc       ?type_case_X@?$output_processor@_WV?$string_output_adapter@_W@__crt_stdio_output@@V?$format_validation_base@_WV?$string_output_adapter@_W@__crt_stdio_output@@@2@@__crt_stdio_output@@AEAA_NXZ 00000001800209bc f i libucrt:output.obj
 0001:0001f9cc       ?type_case_X@?$output_processor@_WV?$string_output_adapter@_W@__crt_stdio_output@@V?$positional_parameter_base@_WV?$string_output_adapter@_W@__crt_stdio_output@@@2@@__crt_stdio_output@@AEAA_NXZ 00000001800209cc f i libucrt:output.obj
 0001:0001f9dc       ?type_case_X@?$output_processor@_WV?$string_output_adapter@_W@__crt_stdio_output@@V?$standard_base@_WV?$string_output_adapter@_W@__crt_stdio_output@@@2@@__crt_stdio_output@@AEAA_NXZ 00000001800209dc f i libucrt:output.obj
 0001:0001f9ec       ?type_case_Z@?$output_processor@DV?$stream_output_adapter@D@__crt_stdio_output@@V?$format_validation_base@DV?$stream_output_adapter@D@__crt_stdio_output@@@2@@__crt_stdio_output@@AEAA_NXZ 00000001800209ec f i libucrt:output.obj
 0001:0001fa60       ?type_case_Z@?$output_processor@DV?$stream_output_adapter@D@__crt_stdio_output@@V?$positional_parameter_base@DV?$stream_output_adapter@D@__crt_stdio_output@@@2@@__crt_stdio_output@@AEAA_NXZ 0000000180020a60 f i libucrt:output.obj
 0001:0001fbb8       ?type_case_Z@?$output_processor@DV?$stream_output_adapter@D@__crt_stdio_output@@V?$standard_base@DV?$stream_output_adapter@D@__crt_stdio_output@@@2@@__crt_stdio_output@@AEAA_NXZ 0000000180020bb8 f i libucrt:output.obj
 0001:0001fc2c       ?type_case_Z@?$output_processor@DV?$string_output_adapter@D@__crt_stdio_output@@V?$format_validation_base@DV?$string_output_adapter@D@__crt_stdio_output@@@2@@__crt_stdio_output@@AEAA_NXZ 0000000180020c2c f i libucrt:output.obj
 0001:0001fca0       ?type_case_Z@?$output_processor@DV?$string_output_adapter@D@__crt_stdio_output@@V?$positional_parameter_base@DV?$string_output_adapter@D@__crt_stdio_output@@@2@@__crt_stdio_output@@AEAA_NXZ 0000000180020ca0 f i libucrt:output.obj
 0001:0001fdf8       ?type_case_Z@?$output_processor@DV?$string_output_adapter@D@__crt_stdio_output@@V?$standard_base@DV?$string_output_adapter@D@__crt_stdio_output@@@2@@__crt_stdio_output@@AEAA_NXZ 0000000180020df8 f i libucrt:output.obj
 0001:0001fe6c       ?type_case_Z@?$output_processor@_WV?$stream_output_adapter@_W@__crt_stdio_output@@V?$format_validation_base@_WV?$stream_output_adapter@_W@__crt_stdio_output@@@2@@__crt_stdio_output@@AEAA_NXZ 0000000180020e6c f i libucrt:output.obj
 0001:0001fee8       ?type_case_Z@?$output_processor@_WV?$stream_output_adapter@_W@__crt_stdio_output@@V?$positional_parameter_base@_WV?$stream_output_adapter@_W@__crt_stdio_output@@@2@@__crt_stdio_output@@AEAA_NXZ 0000000180020ee8 f i libucrt:output.obj
 0001:00020028       ?type_case_Z@?$output_processor@_WV?$stream_output_adapter@_W@__crt_stdio_output@@V?$standard_base@_WV?$stream_output_adapter@_W@__crt_stdio_output@@@2@@__crt_stdio_output@@AEAA_NXZ 0000000180021028 f i libucrt:output.obj
 0001:000200a4       ?type_case_Z@?$output_processor@_WV?$string_output_adapter@_W@__crt_stdio_output@@V?$format_validation_base@_WV?$string_output_adapter@_W@__crt_stdio_output@@@2@@__crt_stdio_output@@AEAA_NXZ 00000001800210a4 f i libucrt:output.obj
 0001:00020120       ?type_case_Z@?$output_processor@_WV?$string_output_adapter@_W@__crt_stdio_output@@V?$positional_parameter_base@_WV?$string_output_adapter@_W@__crt_stdio_output@@@2@@__crt_stdio_output@@AEAA_NXZ 0000000180021120 f i libucrt:output.obj
 0001:00020260       ?type_case_Z@?$output_processor@_WV?$string_output_adapter@_W@__crt_stdio_output@@V?$standard_base@_WV?$string_output_adapter@_W@__crt_stdio_output@@@2@@__crt_stdio_output@@AEAA_NXZ 0000000180021260 f i libucrt:output.obj
 0001:000202dc       ?type_case_a@?$output_processor@DV?$stream_output_adapter@D@__crt_stdio_output@@V?$format_validation_base@DV?$stream_output_adapter@D@__crt_stdio_output@@@2@@__crt_stdio_output@@AEAA_NXZ 00000001800212dc f i libucrt:output.obj
 0001:000204f4       ?type_case_a@?$output_processor@DV?$stream_output_adapter@D@__crt_stdio_output@@V?$positional_parameter_base@DV?$stream_output_adapter@D@__crt_stdio_output@@@2@@__crt_stdio_output@@AEAA_NXZ 00000001800214f4 f i libucrt:output.obj
 0001:00020748       ?type_case_a@?$output_processor@DV?$stream_output_adapter@D@__crt_stdio_output@@V?$standard_base@DV?$stream_output_adapter@D@__crt_stdio_output@@@2@@__crt_stdio_output@@AEAA_NXZ 0000000180021748 f i libucrt:output.obj
 0001:00020960       ?type_case_a@?$output_processor@DV?$string_output_adapter@D@__crt_stdio_output@@V?$format_validation_base@DV?$string_output_adapter@D@__crt_stdio_output@@@2@@__crt_stdio_output@@AEAA_NXZ 0000000180021960 f i libucrt:output.obj
 0001:00020b78       ?type_case_a@?$output_processor@DV?$string_output_adapter@D@__crt_stdio_output@@V?$positional_parameter_base@DV?$string_output_adapter@D@__crt_stdio_output@@@2@@__crt_stdio_output@@AEAA_NXZ 0000000180021b78 f i libucrt:output.obj
 0001:00020dcc       ?type_case_a@?$output_processor@DV?$string_output_adapter@D@__crt_stdio_output@@V?$standard_base@DV?$string_output_adapter@D@__crt_stdio_output@@@2@@__crt_stdio_output@@AEAA_NXZ 0000000180021dcc f i libucrt:output.obj
 0001:00020fe4       ?type_case_a@?$output_processor@_WV?$stream_output_adapter@_W@__crt_stdio_output@@V?$format_validation_base@_WV?$stream_output_adapter@_W@__crt_stdio_output@@@2@@__crt_stdio_output@@AEAA_NXZ 0000000180021fe4 f i libucrt:output.obj
 0001:00021220       ?type_case_a@?$output_processor@_WV?$stream_output_adapter@_W@__crt_stdio_output@@V?$positional_parameter_base@_WV?$stream_output_adapter@_W@__crt_stdio_output@@@2@@__crt_stdio_output@@AEAA_NXZ 0000000180022220 f i libucrt:output.obj
 0001:00021498       ?type_case_a@?$output_processor@_WV?$stream_output_adapter@_W@__crt_stdio_output@@V?$standard_base@_WV?$stream_output_adapter@_W@__crt_stdio_output@@@2@@__crt_stdio_output@@AEAA_NXZ 0000000180022498 f i libucrt:output.obj
 0001:000216d4       ?type_case_a@?$output_processor@_WV?$string_output_adapter@_W@__crt_stdio_output@@V?$format_validation_base@_WV?$string_output_adapter@_W@__crt_stdio_output@@@2@@__crt_stdio_output@@AEAA_NXZ 00000001800226d4 f i libucrt:output.obj
 0001:00021910       ?type_case_a@?$output_processor@_WV?$string_output_adapter@_W@__crt_stdio_output@@V?$positional_parameter_base@_WV?$string_output_adapter@_W@__crt_stdio_output@@@2@@__crt_stdio_output@@AEAA_NXZ 0000000180022910 f i libucrt:output.obj
 0001:00021b88       ?type_case_a@?$output_processor@_WV?$string_output_adapter@_W@__crt_stdio_output@@V?$standard_base@_WV?$string_output_adapter@_W@__crt_stdio_output@@@2@@__crt_stdio_output@@AEAA_NXZ 0000000180022b88 f i libucrt:output.obj
 0001:00021dc4       ?type_case_c@?$output_processor@DV?$stream_output_adapter@D@__crt_stdio_output@@V?$format_validation_base@DV?$stream_output_adapter@D@__crt_stdio_output@@@2@@__crt_stdio_output@@AEAA_NXZ 0000000180022dc4 f i libucrt:output.obj
 0001:00021dcc       ?type_case_c@?$output_processor@DV?$stream_output_adapter@D@__crt_stdio_output@@V?$positional_parameter_base@DV?$stream_output_adapter@D@__crt_stdio_output@@@2@@__crt_stdio_output@@AEAA_NXZ 0000000180022dcc f i libucrt:output.obj
 0001:00021dd4       ?type_case_c@?$output_processor@DV?$stream_output_adapter@D@__crt_stdio_output@@V?$standard_base@DV?$stream_output_adapter@D@__crt_stdio_output@@@2@@__crt_stdio_output@@AEAA_NXZ 0000000180022dd4 f i libucrt:output.obj
 0001:00021ddc       ?type_case_c@?$output_processor@DV?$string_output_adapter@D@__crt_stdio_output@@V?$format_validation_base@DV?$string_output_adapter@D@__crt_stdio_output@@@2@@__crt_stdio_output@@AEAA_NXZ 0000000180022ddc f i libucrt:output.obj
 0001:00021de4       ?type_case_c@?$output_processor@DV?$string_output_adapter@D@__crt_stdio_output@@V?$positional_parameter_base@DV?$string_output_adapter@D@__crt_stdio_output@@@2@@__crt_stdio_output@@AEAA_NXZ 0000000180022de4 f i libucrt:output.obj
 0001:00021dec       ?type_case_c@?$output_processor@DV?$string_output_adapter@D@__crt_stdio_output@@V?$standard_base@DV?$string_output_adapter@D@__crt_stdio_output@@@2@@__crt_stdio_output@@AEAA_NXZ 0000000180022dec f i libucrt:output.obj
 0001:00021df4       ?type_case_c@?$output_processor@_WV?$stream_output_adapter@_W@__crt_stdio_output@@V?$format_validation_base@_WV?$stream_output_adapter@_W@__crt_stdio_output@@@2@@__crt_stdio_output@@AEAA_NXZ 0000000180022df4 f i libucrt:output.obj
 0001:00021dfc       ?type_case_c@?$output_processor@_WV?$stream_output_adapter@_W@__crt_stdio_output@@V?$positional_parameter_base@_WV?$stream_output_adapter@_W@__crt_stdio_output@@@2@@__crt_stdio_output@@AEAA_NXZ 0000000180022dfc f i libucrt:output.obj
 0001:00021e04       ?type_case_c@?$output_processor@_WV?$stream_output_adapter@_W@__crt_stdio_output@@V?$standard_base@_WV?$stream_output_adapter@_W@__crt_stdio_output@@@2@@__crt_stdio_output@@AEAA_NXZ 0000000180022e04 f i libucrt:output.obj
 0001:00021e0c       ?type_case_c@?$output_processor@_WV?$string_output_adapter@_W@__crt_stdio_output@@V?$format_validation_base@_WV?$string_output_adapter@_W@__crt_stdio_output@@@2@@__crt_stdio_output@@AEAA_NXZ 0000000180022e0c f i libucrt:output.obj
 0001:00021e14       ?type_case_c@?$output_processor@_WV?$string_output_adapter@_W@__crt_stdio_output@@V?$positional_parameter_base@_WV?$string_output_adapter@_W@__crt_stdio_output@@@2@@__crt_stdio_output@@AEAA_NXZ 0000000180022e14 f i libucrt:output.obj
 0001:00021e1c       ?type_case_c@?$output_processor@_WV?$string_output_adapter@_W@__crt_stdio_output@@V?$standard_base@_WV?$string_output_adapter@_W@__crt_stdio_output@@@2@@__crt_stdio_output@@AEAA_NXZ 0000000180022e1c f i libucrt:output.obj
 0001:00021e24       ?type_case_c_tchar@?$output_processor@DV?$stream_output_adapter@D@__crt_stdio_output@@V?$format_validation_base@DV?$stream_output_adapter@D@__crt_stdio_output@@@2@@__crt_stdio_output@@AEAA_ND@Z 0000000180022e24 f i libucrt:output.obj
 0001:00021ee0       ?type_case_c_tchar@?$output_processor@DV?$stream_output_adapter@D@__crt_stdio_output@@V?$positional_parameter_base@DV?$stream_output_adapter@D@__crt_stdio_output@@@2@@__crt_stdio_output@@AEAA_ND@Z 0000000180022ee0 f i libucrt:output.obj
 0001:00021fe0       ?type_case_c_tchar@?$output_processor@DV?$stream_output_adapter@D@__crt_stdio_output@@V?$standard_base@DV?$stream_output_adapter@D@__crt_stdio_output@@@2@@__crt_stdio_output@@AEAA_ND@Z 0000000180022fe0 f i libucrt:output.obj
 0001:0002209c       ?type_case_c_tchar@?$output_processor@DV?$string_output_adapter@D@__crt_stdio_output@@V?$format_validation_base@DV?$string_output_adapter@D@__crt_stdio_output@@@2@@__crt_stdio_output@@AEAA_ND@Z 000000018002309c f i libucrt:output.obj
 0001:00022158       ?type_case_c_tchar@?$output_processor@DV?$string_output_adapter@D@__crt_stdio_output@@V?$positional_parameter_base@DV?$string_output_adapter@D@__crt_stdio_output@@@2@@__crt_stdio_output@@AEAA_ND@Z 0000000180023158 f i libucrt:output.obj
 0001:00022258       ?type_case_c_tchar@?$output_processor@DV?$string_output_adapter@D@__crt_stdio_output@@V?$standard_base@DV?$string_output_adapter@D@__crt_stdio_output@@@2@@__crt_stdio_output@@AEAA_ND@Z 0000000180023258 f i libucrt:output.obj
 0001:00022314       ?type_case_c_tchar@?$output_processor@_WV?$stream_output_adapter@_W@__crt_stdio_output@@V?$format_validation_base@_WV?$stream_output_adapter@_W@__crt_stdio_output@@@2@@__crt_stdio_output@@AEAA_N_W@Z 0000000180023314 f i libucrt:output.obj
 0001:000223bc       ?type_case_c_tchar@?$output_processor@_WV?$stream_output_adapter@_W@__crt_stdio_output@@V?$positional_parameter_base@_WV?$stream_output_adapter@_W@__crt_stdio_output@@@2@@__crt_stdio_output@@AEAA_N_W@Z 00000001800233bc f i libucrt:output.obj
 0001:00022488       ?type_case_c_tchar@?$output_processor@_WV?$stream_output_adapter@_W@__crt_stdio_output@@V?$standard_base@_WV?$stream_output_adapter@_W@__crt_stdio_output@@@2@@__crt_stdio_output@@AEAA_N_W@Z 0000000180023488 f i libucrt:output.obj
 0001:00022530       ?type_case_c_tchar@?$output_processor@_WV?$string_output_adapter@_W@__crt_stdio_output@@V?$format_validation_base@_WV?$string_output_adapter@_W@__crt_stdio_output@@@2@@__crt_stdio_output@@AEAA_N_W@Z 0000000180023530 f i libucrt:output.obj
 0001:000225d8       ?type_case_c_tchar@?$output_processor@_WV?$string_output_adapter@_W@__crt_stdio_output@@V?$positional_parameter_base@_WV?$string_output_adapter@_W@__crt_stdio_output@@@2@@__crt_stdio_output@@AEAA_N_W@Z 00000001800235d8 f i libucrt:output.obj
 0001:000226a4       ?type_case_c_tchar@?$output_processor@_WV?$string_output_adapter@_W@__crt_stdio_output@@V?$standard_base@_WV?$string_output_adapter@_W@__crt_stdio_output@@@2@@__crt_stdio_output@@AEAA_N_W@Z 00000001800236a4 f i libucrt:output.obj
 0001:0002274c       ?type_case_d@?$output_processor@DV?$stream_output_adapter@D@__crt_stdio_output@@V?$format_validation_base@DV?$stream_output_adapter@D@__crt_stdio_output@@@2@@__crt_stdio_output@@AEAA_NXZ 000000018002374c f i libucrt:output.obj
 0001:0002275c       ?type_case_d@?$output_processor@DV?$stream_output_adapter@D@__crt_stdio_output@@V?$positional_parameter_base@DV?$stream_output_adapter@D@__crt_stdio_output@@@2@@__crt_stdio_output@@AEAA_NXZ 000000018002375c f i libucrt:output.obj
 0001:0002276c       ?type_case_d@?$output_processor@DV?$stream_output_adapter@D@__crt_stdio_output@@V?$standard_base@DV?$stream_output_adapter@D@__crt_stdio_output@@@2@@__crt_stdio_output@@AEAA_NXZ 000000018002376c f i libucrt:output.obj
 0001:0002277c       ?type_case_d@?$output_processor@DV?$string_output_adapter@D@__crt_stdio_output@@V?$format_validation_base@DV?$string_output_adapter@D@__crt_stdio_output@@@2@@__crt_stdio_output@@AEAA_NXZ 000000018002377c f i libucrt:output.obj
 0001:0002278c       ?type_case_d@?$output_processor@DV?$string_output_adapter@D@__crt_stdio_output@@V?$positional_parameter_base@DV?$string_output_adapter@D@__crt_stdio_output@@@2@@__crt_stdio_output@@AEAA_NXZ 000000018002378c f i libucrt:output.obj
 0001:0002279c       ?type_case_d@?$output_processor@DV?$string_output_adapter@D@__crt_stdio_output@@V?$standard_base@DV?$string_output_adapter@D@__crt_stdio_output@@@2@@__crt_stdio_output@@AEAA_NXZ 000000018002379c f i libucrt:output.obj
 0001:000227ac       ?type_case_d@?$output_processor@_WV?$stream_output_adapter@_W@__crt_stdio_output@@V?$format_validation_base@_WV?$stream_output_adapter@_W@__crt_stdio_output@@@2@@__crt_stdio_output@@AEAA_NXZ 00000001800237ac f i libucrt:output.obj
 0001:000227bc       ?type_case_d@?$output_processor@_WV?$stream_output_adapter@_W@__crt_stdio_output@@V?$positional_parameter_base@_WV?$stream_output_adapter@_W@__crt_stdio_output@@@2@@__crt_stdio_output@@AEAA_NXZ 00000001800237bc f i libucrt:output.obj
 0001:000227cc       ?type_case_d@?$output_processor@_WV?$stream_output_adapter@_W@__crt_stdio_output@@V?$standard_base@_WV?$stream_output_adapter@_W@__crt_stdio_output@@@2@@__crt_stdio_output@@AEAA_NXZ 00000001800237cc f i libucrt:output.obj
 0001:000227dc       ?type_case_d@?$output_processor@_WV?$string_output_adapter@_W@__crt_stdio_output@@V?$format_validation_base@_WV?$string_output_adapter@_W@__crt_stdio_output@@@2@@__crt_stdio_output@@AEAA_NXZ 00000001800237dc f i libucrt:output.obj
 0001:000227ec       ?type_case_d@?$output_processor@_WV?$string_output_adapter@_W@__crt_stdio_output@@V?$positional_parameter_base@_WV?$string_output_adapter@_W@__crt_stdio_output@@@2@@__crt_stdio_output@@AEAA_NXZ 00000001800237ec f i libucrt:output.obj
 0001:000227fc       ?type_case_d@?$output_processor@_WV?$string_output_adapter@_W@__crt_stdio_output@@V?$standard_base@_WV?$string_output_adapter@_W@__crt_stdio_output@@@2@@__crt_stdio_output@@AEAA_NXZ 00000001800237fc f i libucrt:output.obj
 0001:0002280c       ?type_case_integer@?$output_processor@DV?$stream_output_adapter@D@__crt_stdio_output@@V?$format_validation_base@DV?$stream_output_adapter@D@__crt_stdio_output@@@2@@__crt_stdio_output@@AEAA_NI_N@Z 000000018002380c f i libucrt:output.obj
 0001:000229d4       ?type_case_integer@?$output_processor@DV?$stream_output_adapter@D@__crt_stdio_output@@V?$positional_parameter_base@DV?$stream_output_adapter@D@__crt_stdio_output@@@2@@__crt_stdio_output@@AEAA_NI_N@Z 00000001800239d4 f i libucrt:output.obj
 0001:00022bd8       ?type_case_integer@?$output_processor@DV?$stream_output_adapter@D@__crt_stdio_output@@V?$standard_base@DV?$stream_output_adapter@D@__crt_stdio_output@@@2@@__crt_stdio_output@@AEAA_NI_N@Z 0000000180023bd8 f i libucrt:output.obj
 0001:00022da0       ?type_case_integer@?$output_processor@DV?$string_output_adapter@D@__crt_stdio_output@@V?$format_validation_base@DV?$string_output_adapter@D@__crt_stdio_output@@@2@@__crt_stdio_output@@AEAA_NI_N@Z 0000000180023da0 f i libucrt:output.obj
 0001:00022f68       ?type_case_integer@?$output_processor@DV?$string_output_adapter@D@__crt_stdio_output@@V?$positional_parameter_base@DV?$string_output_adapter@D@__crt_stdio_output@@@2@@__crt_stdio_output@@AEAA_NI_N@Z 0000000180023f68 f i libucrt:output.obj
 0001:0002316c       ?type_case_integer@?$output_processor@DV?$string_output_adapter@D@__crt_stdio_output@@V?$standard_base@DV?$string_output_adapter@D@__crt_stdio_output@@@2@@__crt_stdio_output@@AEAA_NI_N@Z 000000018002416c f i libucrt:output.obj
 0001:00023334       ?type_case_integer@?$output_processor@_WV?$stream_output_adapter@_W@__crt_stdio_output@@V?$format_validation_base@_WV?$stream_output_adapter@_W@__crt_stdio_output@@@2@@__crt_stdio_output@@AEAA_NI_N@Z 0000000180024334 f i libucrt:output.obj
 0001:00023500       ?type_case_integer@?$output_processor@_WV?$stream_output_adapter@_W@__crt_stdio_output@@V?$positional_parameter_base@_WV?$stream_output_adapter@_W@__crt_stdio_output@@@2@@__crt_stdio_output@@AEAA_NI_N@Z 0000000180024500 f i libucrt:output.obj
 0001:00023708       ?type_case_integer@?$output_processor@_WV?$stream_output_adapter@_W@__crt_stdio_output@@V?$standard_base@_WV?$stream_output_adapter@_W@__crt_stdio_output@@@2@@__crt_stdio_output@@AEAA_NI_N@Z 0000000180024708 f i libucrt:output.obj
 0001:000238d4       ?type_case_integer@?$output_processor@_WV?$string_output_adapter@_W@__crt_stdio_output@@V?$format_validation_base@_WV?$string_output_adapter@_W@__crt_stdio_output@@@2@@__crt_stdio_output@@AEAA_NI_N@Z 00000001800248d4 f i libucrt:output.obj
 0001:00023aa0       ?type_case_integer@?$output_processor@_WV?$string_output_adapter@_W@__crt_stdio_output@@V?$positional_parameter_base@_WV?$string_output_adapter@_W@__crt_stdio_output@@@2@@__crt_stdio_output@@AEAA_NI_N@Z 0000000180024aa0 f i libucrt:output.obj
 0001:00023ca8       ?type_case_integer@?$output_processor@_WV?$string_output_adapter@_W@__crt_stdio_output@@V?$standard_base@_WV?$string_output_adapter@_W@__crt_stdio_output@@@2@@__crt_stdio_output@@AEAA_NI_N@Z 0000000180024ca8 f i libucrt:output.obj
 0001:00023e74       ?type_case_n@?$output_processor@DV?$stream_output_adapter@D@__crt_stdio_output@@V?$format_validation_base@DV?$stream_output_adapter@D@__crt_stdio_output@@@2@@__crt_stdio_output@@AEAA_NXZ 0000000180024e74 f i libucrt:output.obj
 0001:00023f50       ?type_case_n@?$output_processor@DV?$stream_output_adapter@D@__crt_stdio_output@@V?$positional_parameter_base@DV?$stream_output_adapter@D@__crt_stdio_output@@@2@@__crt_stdio_output@@AEAA_NXZ 0000000180024f50 f i libucrt:output.obj
 0001:00024054       ?type_case_n@?$output_processor@DV?$stream_output_adapter@D@__crt_stdio_output@@V?$standard_base@DV?$stream_output_adapter@D@__crt_stdio_output@@@2@@__crt_stdio_output@@AEAA_NXZ 0000000180025054 f i libucrt:output.obj
 0001:00024130       ?type_case_n@?$output_processor@DV?$string_output_adapter@D@__crt_stdio_output@@V?$format_validation_base@DV?$string_output_adapter@D@__crt_stdio_output@@@2@@__crt_stdio_output@@AEAA_NXZ 0000000180025130 f i libucrt:output.obj
 0001:0002420c       ?type_case_n@?$output_processor@DV?$string_output_adapter@D@__crt_stdio_output@@V?$positional_parameter_base@DV?$string_output_adapter@D@__crt_stdio_output@@@2@@__crt_stdio_output@@AEAA_NXZ 000000018002520c f i libucrt:output.obj
 0001:00024310       ?type_case_n@?$output_processor@DV?$string_output_adapter@D@__crt_stdio_output@@V?$standard_base@DV?$string_output_adapter@D@__crt_stdio_output@@@2@@__crt_stdio_output@@AEAA_NXZ 0000000180025310 f i libucrt:output.obj
 0001:000243ec       ?type_case_n@?$output_processor@_WV?$stream_output_adapter@_W@__crt_stdio_output@@V?$format_validation_base@_WV?$stream_output_adapter@_W@__crt_stdio_output@@@2@@__crt_stdio_output@@AEAA_NXZ 00000001800253ec f i libucrt:output.obj
 0001:000244c8       ?type_case_n@?$output_processor@_WV?$stream_output_adapter@_W@__crt_stdio_output@@V?$positional_parameter_base@_WV?$stream_output_adapter@_W@__crt_stdio_output@@@2@@__crt_stdio_output@@AEAA_NXZ 00000001800254c8 f i libucrt:output.obj
 0001:000245cc       ?type_case_n@?$output_processor@_WV?$stream_output_adapter@_W@__crt_stdio_output@@V?$standard_base@_WV?$stream_output_adapter@_W@__crt_stdio_output@@@2@@__crt_stdio_output@@AEAA_NXZ 00000001800255cc f i libucrt:output.obj
 0001:000246a8       ?type_case_n@?$output_processor@_WV?$string_output_adapter@_W@__crt_stdio_output@@V?$format_validation_base@_WV?$string_output_adapter@_W@__crt_stdio_output@@@2@@__crt_stdio_output@@AEAA_NXZ 00000001800256a8 f i libucrt:output.obj
 0001:00024784       ?type_case_n@?$output_processor@_WV?$string_output_adapter@_W@__crt_stdio_output@@V?$positional_parameter_base@_WV?$string_output_adapter@_W@__crt_stdio_output@@@2@@__crt_stdio_output@@AEAA_NXZ 0000000180025784 f i libucrt:output.obj
 0001:00024888       ?type_case_n@?$output_processor@_WV?$string_output_adapter@_W@__crt_stdio_output@@V?$standard_base@_WV?$string_output_adapter@_W@__crt_stdio_output@@@2@@__crt_stdio_output@@AEAA_NXZ 0000000180025888 f i libucrt:output.obj
 0001:00024964       ?type_case_o@?$output_processor@DV?$stream_output_adapter@D@__crt_stdio_output@@V?$format_validation_base@DV?$stream_output_adapter@D@__crt_stdio_output@@@2@@__crt_stdio_output@@AEAA_NXZ 0000000180025964 f i libucrt:output.obj
 0001:00024984       ?type_case_o@?$output_processor@DV?$stream_output_adapter@D@__crt_stdio_output@@V?$positional_parameter_base@DV?$stream_output_adapter@D@__crt_stdio_output@@@2@@__crt_stdio_output@@AEAA_NXZ 0000000180025984 f i libucrt:output.obj
 0001:000249a4       ?type_case_o@?$output_processor@DV?$stream_output_adapter@D@__crt_stdio_output@@V?$standard_base@DV?$stream_output_adapter@D@__crt_stdio_output@@@2@@__crt_stdio_output@@AEAA_NXZ 00000001800259a4 f i libucrt:output.obj
 0001:000249c4       ?type_case_o@?$output_processor@DV?$string_output_adapter@D@__crt_stdio_output@@V?$format_validation_base@DV?$string_output_adapter@D@__crt_stdio_output@@@2@@__crt_stdio_output@@AEAA_NXZ 00000001800259c4 f i libucrt:output.obj
 0001:000249e4       ?type_case_o@?$output_processor@DV?$string_output_adapter@D@__crt_stdio_output@@V?$positional_parameter_base@DV?$string_output_adapter@D@__crt_stdio_output@@@2@@__crt_stdio_output@@AEAA_NXZ 00000001800259e4 f i libucrt:output.obj
 0001:00024a04       ?type_case_o@?$output_processor@DV?$string_output_adapter@D@__crt_stdio_output@@V?$standard_base@DV?$string_output_adapter@D@__crt_stdio_output@@@2@@__crt_stdio_output@@AEAA_NXZ 0000000180025a04 f i libucrt:output.obj
 0001:00024a24       ?type_case_o@?$output_processor@_WV?$stream_output_adapter@_W@__crt_stdio_output@@V?$format_validation_base@_WV?$stream_output_adapter@_W@__crt_stdio_output@@@2@@__crt_stdio_output@@AEAA_NXZ 0000000180025a24 f i libucrt:output.obj
 0001:00024a44       ?type_case_o@?$output_processor@_WV?$stream_output_adapter@_W@__crt_stdio_output@@V?$positional_parameter_base@_WV?$stream_output_adapter@_W@__crt_stdio_output@@@2@@__crt_stdio_output@@AEAA_NXZ 0000000180025a44 f i libucrt:output.obj
 0001:00024a64       ?type_case_o@?$output_processor@_WV?$stream_output_adapter@_W@__crt_stdio_output@@V?$standard_base@_WV?$stream_output_adapter@_W@__crt_stdio_output@@@2@@__crt_stdio_output@@AEAA_NXZ 0000000180025a64 f i libucrt:output.obj
 0001:00024a84       ?type_case_o@?$output_processor@_WV?$string_output_adapter@_W@__crt_stdio_output@@V?$format_validation_base@_WV?$string_output_adapter@_W@__crt_stdio_output@@@2@@__crt_stdio_output@@AEAA_NXZ 0000000180025a84 f i libucrt:output.obj
 0001:00024aa4       ?type_case_o@?$output_processor@_WV?$string_output_adapter@_W@__crt_stdio_output@@V?$positional_parameter_base@_WV?$string_output_adapter@_W@__crt_stdio_output@@@2@@__crt_stdio_output@@AEAA_NXZ 0000000180025aa4 f i libucrt:output.obj
 0001:00024ac4       ?type_case_o@?$output_processor@_WV?$string_output_adapter@_W@__crt_stdio_output@@V?$standard_base@_WV?$string_output_adapter@_W@__crt_stdio_output@@@2@@__crt_stdio_output@@AEAA_NXZ 0000000180025ac4 f i libucrt:output.obj
 0001:00024ae4       ?type_case_p@?$output_processor@DV?$stream_output_adapter@D@__crt_stdio_output@@V?$format_validation_base@DV?$stream_output_adapter@D@__crt_stdio_output@@@2@@__crt_stdio_output@@AEAA_NXZ 0000000180025ae4 f i libucrt:output.obj
 0001:00024afc       ?type_case_p@?$output_processor@DV?$stream_output_adapter@D@__crt_stdio_output@@V?$positional_parameter_base@DV?$stream_output_adapter@D@__crt_stdio_output@@@2@@__crt_stdio_output@@AEAA_NXZ 0000000180025afc f i libucrt:output.obj
 0001:00024b14       ?type_case_p@?$output_processor@DV?$stream_output_adapter@D@__crt_stdio_output@@V?$standard_base@DV?$stream_output_adapter@D@__crt_stdio_output@@@2@@__crt_stdio_output@@AEAA_NXZ 0000000180025b14 f i libucrt:output.obj
 0001:00024b2c       ?type_case_p@?$output_processor@DV?$string_output_adapter@D@__crt_stdio_output@@V?$format_validation_base@DV?$string_output_adapter@D@__crt_stdio_output@@@2@@__crt_stdio_output@@AEAA_NXZ 0000000180025b2c f i libucrt:output.obj
 0001:00024b44       ?type_case_p@?$output_processor@DV?$string_output_adapter@D@__crt_stdio_output@@V?$positional_parameter_base@DV?$string_output_adapter@D@__crt_stdio_output@@@2@@__crt_stdio_output@@AEAA_NXZ 0000000180025b44 f i libucrt:output.obj
 0001:00024b5c       ?type_case_p@?$output_processor@DV?$string_output_adapter@D@__crt_stdio_output@@V?$standard_base@DV?$string_output_adapter@D@__crt_stdio_output@@@2@@__crt_stdio_output@@AEAA_NXZ 0000000180025b5c f i libucrt:output.obj
 0001:00024b74       ?type_case_p@?$output_processor@_WV?$stream_output_adapter@_W@__crt_stdio_output@@V?$format_validation_base@_WV?$stream_output_adapter@_W@__crt_stdio_output@@@2@@__crt_stdio_output@@AEAA_NXZ 0000000180025b74 f i libucrt:output.obj
 0001:00024b8c       ?type_case_p@?$output_processor@_WV?$stream_output_adapter@_W@__crt_stdio_output@@V?$positional_parameter_base@_WV?$stream_output_adapter@_W@__crt_stdio_output@@@2@@__crt_stdio_output@@AEAA_NXZ 0000000180025b8c f i libucrt:output.obj
 0001:00024ba4       ?type_case_p@?$output_processor@_WV?$stream_output_adapter@_W@__crt_stdio_output@@V?$standard_base@_WV?$stream_output_adapter@_W@__crt_stdio_output@@@2@@__crt_stdio_output@@AEAA_NXZ 0000000180025ba4 f i libucrt:output.obj
 0001:00024bbc       ?type_case_p@?$output_processor@_WV?$string_output_adapter@_W@__crt_stdio_output@@V?$format_validation_base@_WV?$string_output_adapter@_W@__crt_stdio_output@@@2@@__crt_stdio_output@@AEAA_NXZ 0000000180025bbc f i libucrt:output.obj
 0001:00024bd4       ?type_case_p@?$output_processor@_WV?$string_output_adapter@_W@__crt_stdio_output@@V?$positional_parameter_base@_WV?$string_output_adapter@_W@__crt_stdio_output@@@2@@__crt_stdio_output@@AEAA_NXZ 0000000180025bd4 f i libucrt:output.obj
 0001:00024bec       ?type_case_p@?$output_processor@_WV?$string_output_adapter@_W@__crt_stdio_output@@V?$standard_base@_WV?$string_output_adapter@_W@__crt_stdio_output@@@2@@__crt_stdio_output@@AEAA_NXZ 0000000180025bec f i libucrt:output.obj
 0001:00024c04       ?type_case_s@?$output_processor@DV?$stream_output_adapter@D@__crt_stdio_output@@V?$format_validation_base@DV?$stream_output_adapter@D@__crt_stdio_output@@@2@@__crt_stdio_output@@AEAA_NXZ 0000000180025c04 f i libucrt:output.obj
 0001:00024c9c       ?type_case_s@?$output_processor@DV?$stream_output_adapter@D@__crt_stdio_output@@V?$positional_parameter_base@DV?$stream_output_adapter@D@__crt_stdio_output@@@2@@__crt_stdio_output@@AEAA_NXZ 0000000180025c9c f i libucrt:output.obj
 0001:00024d54       ?type_case_s@?$output_processor@DV?$stream_output_adapter@D@__crt_stdio_output@@V?$standard_base@DV?$stream_output_adapter@D@__crt_stdio_output@@@2@@__crt_stdio_output@@AEAA_NXZ 0000000180025d54 f i libucrt:output.obj
 0001:00024dec       ?type_case_s@?$output_processor@DV?$string_output_adapter@D@__crt_stdio_output@@V?$format_validation_base@DV?$string_output_adapter@D@__crt_stdio_output@@@2@@__crt_stdio_output@@AEAA_NXZ 0000000180025dec f i libucrt:output.obj
 0001:00024e84       ?type_case_s@?$output_processor@DV?$string_output_adapter@D@__crt_stdio_output@@V?$positional_parameter_base@DV?$string_output_adapter@D@__crt_stdio_output@@@2@@__crt_stdio_output@@AEAA_NXZ 0000000180025e84 f i libucrt:output.obj
 0001:00024f3c       ?type_case_s@?$output_processor@DV?$string_output_adapter@D@__crt_stdio_output@@V?$standard_base@DV?$string_output_adapter@D@__crt_stdio_output@@@2@@__crt_stdio_output@@AEAA_NXZ 0000000180025f3c f i libucrt:output.obj
 0001:00024fd4       ?type_case_s@?$output_processor@_WV?$stream_output_adapter@_W@__crt_stdio_output@@V?$format_validation_base@_WV?$stream_output_adapter@_W@__crt_stdio_output@@@2@@__crt_stdio_output@@AEAA_NXZ 0000000180025fd4 f i libucrt:output.obj
 0001:0002509c       ?type_case_s@?$output_processor@_WV?$stream_output_adapter@_W@__crt_stdio_output@@V?$positional_parameter_base@_WV?$stream_output_adapter@_W@__crt_stdio_output@@@2@@__crt_stdio_output@@AEAA_NXZ 000000018002609c f i libucrt:output.obj
 0001:00025188       ?type_case_s@?$output_processor@_WV?$stream_output_adapter@_W@__crt_stdio_output@@V?$standard_base@_WV?$stream_output_adapter@_W@__crt_stdio_output@@@2@@__crt_stdio_output@@AEAA_NXZ 0000000180026188 f i libucrt:output.obj
 0001:00025250       ?type_case_s@?$output_processor@_WV?$string_output_adapter@_W@__crt_stdio_output@@V?$format_validation_base@_WV?$string_output_adapter@_W@__crt_stdio_output@@@2@@__crt_stdio_output@@AEAA_NXZ 0000000180026250 f i libucrt:output.obj
 0001:00025318       ?type_case_s@?$output_processor@_WV?$string_output_adapter@_W@__crt_stdio_output@@V?$positional_parameter_base@_WV?$string_output_adapter@_W@__crt_stdio_output@@@2@@__crt_stdio_output@@AEAA_NXZ 0000000180026318 f i libucrt:output.obj
 0001:00025404       ?type_case_s@?$output_processor@_WV?$string_output_adapter@_W@__crt_stdio_output@@V?$standard_base@_WV?$string_output_adapter@_W@__crt_stdio_output@@@2@@__crt_stdio_output@@AEAA_NXZ 0000000180026404 f i libucrt:output.obj
 0001:000254cc       ?type_case_s_compute_narrow_string_length@?$output_processor@DV?$stream_output_adapter@D@__crt_stdio_output@@V?$format_validation_base@DV?$stream_output_adapter@D@__crt_stdio_output@@@2@@__crt_stdio_output@@AEBAHHD@Z 00000001800264cc f i libucrt:output.obj
 0001:000254d8       ?type_case_s_compute_narrow_string_length@?$output_processor@DV?$stream_output_adapter@D@__crt_stdio_output@@V?$positional_parameter_base@DV?$stream_output_adapter@D@__crt_stdio_output@@@2@@__crt_stdio_output@@AEBAHHD@Z 00000001800264d8 f i libucrt:output.obj
 0001:000254e4       ?type_case_s_compute_narrow_string_length@?$output_processor@DV?$stream_output_adapter@D@__crt_stdio_output@@V?$standard_base@DV?$stream_output_adapter@D@__crt_stdio_output@@@2@@__crt_stdio_output@@AEBAHHD@Z 00000001800264e4 f i libucrt:output.obj
 0001:000254f0       ?type_case_s_compute_narrow_string_length@?$output_processor@DV?$string_output_adapter@D@__crt_stdio_output@@V?$format_validation_base@DV?$string_output_adapter@D@__crt_stdio_output@@@2@@__crt_stdio_output@@AEBAHHD@Z 00000001800264f0 f i libucrt:output.obj
 0001:000254fc       ?type_case_s_compute_narrow_string_length@?$output_processor@DV?$string_output_adapter@D@__crt_stdio_output@@V?$positional_parameter_base@DV?$string_output_adapter@D@__crt_stdio_output@@@2@@__crt_stdio_output@@AEBAHHD@Z 00000001800264fc f i libucrt:output.obj
 0001:00025508       ?type_case_s_compute_narrow_string_length@?$output_processor@DV?$string_output_adapter@D@__crt_stdio_output@@V?$standard_base@DV?$string_output_adapter@D@__crt_stdio_output@@@2@@__crt_stdio_output@@AEBAHHD@Z 0000000180026508 f i libucrt:output.obj
 0001:00025514       ?type_case_s_compute_narrow_string_length@?$output_processor@_WV?$stream_output_adapter@_W@__crt_stdio_output@@V?$format_validation_base@_WV?$stream_output_adapter@_W@__crt_stdio_output@@@2@@__crt_stdio_output@@AEBAHH_W@Z 0000000180026514 f i libucrt:output.obj
 0001:00025568       ?type_case_s_compute_narrow_string_length@?$output_processor@_WV?$stream_output_adapter@_W@__crt_stdio_output@@V?$positional_parameter_base@_WV?$stream_output_adapter@_W@__crt_stdio_output@@@2@@__crt_stdio_output@@AEBAHH_W@Z 0000000180026568 f i libucrt:output.obj
 0001:000255bc       ?type_case_s_compute_narrow_string_length@?$output_processor@_WV?$stream_output_adapter@_W@__crt_stdio_output@@V?$standard_base@_WV?$stream_output_adapter@_W@__crt_stdio_output@@@2@@__crt_stdio_output@@AEBAHH_W@Z 00000001800265bc f i libucrt:output.obj
 0001:00025610       ?type_case_s_compute_narrow_string_length@?$output_processor@_WV?$string_output_adapter@_W@__crt_stdio_output@@V?$format_validation_base@_WV?$string_output_adapter@_W@__crt_stdio_output@@@2@@__crt_stdio_output@@AEBAHH_W@Z 0000000180026610 f i libucrt:output.obj
 0001:00025664       ?type_case_s_compute_narrow_string_length@?$output_processor@_WV?$string_output_adapter@_W@__crt_stdio_output@@V?$positional_parameter_base@_WV?$string_output_adapter@_W@__crt_stdio_output@@@2@@__crt_stdio_output@@AEBAHH_W@Z 0000000180026664 f i libucrt:output.obj
 0001:000256b8       ?type_case_s_compute_narrow_string_length@?$output_processor@_WV?$string_output_adapter@_W@__crt_stdio_output@@V?$standard_base@_WV?$string_output_adapter@_W@__crt_stdio_output@@@2@@__crt_stdio_output@@AEBAHH_W@Z 00000001800266b8 f i libucrt:output.obj
 0001:0002570c       ?type_case_u@?$output_processor@DV?$stream_output_adapter@D@__crt_stdio_output@@V?$format_validation_base@DV?$stream_output_adapter@D@__crt_stdio_output@@@2@@__crt_stdio_output@@AEAA_NXZ 000000018002670c f i libucrt:output.obj
 0001:00025718       ?type_case_u@?$output_processor@DV?$stream_output_adapter@D@__crt_stdio_output@@V?$positional_parameter_base@DV?$stream_output_adapter@D@__crt_stdio_output@@@2@@__crt_stdio_output@@AEAA_NXZ 0000000180026718 f i libucrt:output.obj
 0001:00025724       ?type_case_u@?$output_processor@DV?$stream_output_adapter@D@__crt_stdio_output@@V?$standard_base@DV?$stream_output_adapter@D@__crt_stdio_output@@@2@@__crt_stdio_output@@AEAA_NXZ 0000000180026724 f i libucrt:output.obj
 0001:00025730       ?type_case_u@?$output_processor@DV?$string_output_adapter@D@__crt_stdio_output@@V?$format_validation_base@DV?$string_output_adapter@D@__crt_stdio_output@@@2@@__crt_stdio_output@@AEAA_NXZ 0000000180026730 f i libucrt:output.obj
 0001:0002573c       ?type_case_u@?$output_processor@DV?$string_output_adapter@D@__crt_stdio_output@@V?$positional_parameter_base@DV?$string_output_adapter@D@__crt_stdio_output@@@2@@__crt_stdio_output@@AEAA_NXZ 000000018002673c f i libucrt:output.obj
 0001:00025748       ?type_case_u@?$output_processor@DV?$string_output_adapter@D@__crt_stdio_output@@V?$standard_base@DV?$string_output_adapter@D@__crt_stdio_output@@@2@@__crt_stdio_output@@AEAA_NXZ 0000000180026748 f i libucrt:output.obj
 0001:00025754       ?type_case_u@?$output_processor@_WV?$stream_output_adapter@_W@__crt_stdio_output@@V?$format_validation_base@_WV?$stream_output_adapter@_W@__crt_stdio_output@@@2@@__crt_stdio_output@@AEAA_NXZ 0000000180026754 f i libucrt:output.obj
 0001:00025760       ?type_case_u@?$output_processor@_WV?$stream_output_adapter@_W@__crt_stdio_output@@V?$positional_parameter_base@_WV?$stream_output_adapter@_W@__crt_stdio_output@@@2@@__crt_stdio_output@@AEAA_NXZ 0000000180026760 f i libucrt:output.obj
 0001:0002576c       ?type_case_u@?$output_processor@_WV?$stream_output_adapter@_W@__crt_stdio_output@@V?$standard_base@_WV?$stream_output_adapter@_W@__crt_stdio_output@@@2@@__crt_stdio_output@@AEAA_NXZ 000000018002676c f i libucrt:output.obj
 0001:00025778       ?type_case_u@?$output_processor@_WV?$string_output_adapter@_W@__crt_stdio_output@@V?$format_validation_base@_WV?$string_output_adapter@_W@__crt_stdio_output@@@2@@__crt_stdio_output@@AEAA_NXZ 0000000180026778 f i libucrt:output.obj
 0001:00025784       ?type_case_u@?$output_processor@_WV?$string_output_adapter@_W@__crt_stdio_output@@V?$positional_parameter_base@_WV?$string_output_adapter@_W@__crt_stdio_output@@@2@@__crt_stdio_output@@AEAA_NXZ 0000000180026784 f i libucrt:output.obj
 0001:00025790       ?type_case_u@?$output_processor@_WV?$string_output_adapter@_W@__crt_stdio_output@@V?$standard_base@_WV?$string_output_adapter@_W@__crt_stdio_output@@@2@@__crt_stdio_output@@AEAA_NXZ 0000000180026790 f i libucrt:output.obj
 0001:0002579c       ?type_case_x@?$output_processor@DV?$stream_output_adapter@D@__crt_stdio_output@@V?$format_validation_base@DV?$stream_output_adapter@D@__crt_stdio_output@@@2@@__crt_stdio_output@@AEAA_NXZ 000000018002679c f i libucrt:output.obj
 0001:000257a8       ?type_case_x@?$output_processor@DV?$stream_output_adapter@D@__crt_stdio_output@@V?$positional_parameter_base@DV?$stream_output_adapter@D@__crt_stdio_output@@@2@@__crt_stdio_output@@AEAA_NXZ 00000001800267a8 f i libucrt:output.obj
 0001:000257b4       ?type_case_x@?$output_processor@DV?$stream_output_adapter@D@__crt_stdio_output@@V?$standard_base@DV?$stream_output_adapter@D@__crt_stdio_output@@@2@@__crt_stdio_output@@AEAA_NXZ 00000001800267b4 f i libucrt:output.obj
 0001:000257c0       ?type_case_x@?$output_processor@DV?$string_output_adapter@D@__crt_stdio_output@@V?$format_validation_base@DV?$string_output_adapter@D@__crt_stdio_output@@@2@@__crt_stdio_output@@AEAA_NXZ 00000001800267c0 f i libucrt:output.obj
 0001:000257cc       ?type_case_x@?$output_processor@DV?$string_output_adapter@D@__crt_stdio_output@@V?$positional_parameter_base@DV?$string_output_adapter@D@__crt_stdio_output@@@2@@__crt_stdio_output@@AEAA_NXZ 00000001800267cc f i libucrt:output.obj
 0001:000257d8       ?type_case_x@?$output_processor@DV?$string_output_adapter@D@__crt_stdio_output@@V?$standard_base@DV?$string_output_adapter@D@__crt_stdio_output@@@2@@__crt_stdio_output@@AEAA_NXZ 00000001800267d8 f i libucrt:output.obj
 0001:000257e4       ?type_case_x@?$output_processor@_WV?$stream_output_adapter@_W@__crt_stdio_output@@V?$format_validation_base@_WV?$stream_output_adapter@_W@__crt_stdio_output@@@2@@__crt_stdio_output@@AEAA_NXZ 00000001800267e4 f i libucrt:output.obj
 0001:000257f0       ?type_case_x@?$output_processor@_WV?$stream_output_adapter@_W@__crt_stdio_output@@V?$positional_parameter_base@_WV?$stream_output_adapter@_W@__crt_stdio_output@@@2@@__crt_stdio_output@@AEAA_NXZ 00000001800267f0 f i libucrt:output.obj
 0001:000257fc       ?type_case_x@?$output_processor@_WV?$stream_output_adapter@_W@__crt_stdio_output@@V?$standard_base@_WV?$stream_output_adapter@_W@__crt_stdio_output@@@2@@__crt_stdio_output@@AEAA_NXZ 00000001800267fc f i libucrt:output.obj
 0001:00025808       ?type_case_x@?$output_processor@_WV?$string_output_adapter@_W@__crt_stdio_output@@V?$format_validation_base@_WV?$string_output_adapter@_W@__crt_stdio_output@@@2@@__crt_stdio_output@@AEAA_NXZ 0000000180026808 f i libucrt:output.obj
 0001:00025814       ?type_case_x@?$output_processor@_WV?$string_output_adapter@_W@__crt_stdio_output@@V?$positional_parameter_base@_WV?$string_output_adapter@_W@__crt_stdio_output@@@2@@__crt_stdio_output@@AEAA_NXZ 0000000180026814 f i libucrt:output.obj
 0001:00025820       ?type_case_x@?$output_processor@_WV?$string_output_adapter@_W@__crt_stdio_output@@V?$standard_base@_WV?$string_output_adapter@_W@__crt_stdio_output@@@2@@__crt_stdio_output@@AEAA_NXZ 0000000180026820 f i libucrt:output.obj
 0001:0002582c       ?unset_flag@?$output_processor@DV?$stream_output_adapter@D@__crt_stdio_output@@V?$format_validation_base@DV?$stream_output_adapter@D@__crt_stdio_output@@@2@@__crt_stdio_output@@AEAAXI@Z 000000018002682c f i libucrt:output.obj
 0001:00025834       ?unset_flag@?$output_processor@DV?$stream_output_adapter@D@__crt_stdio_output@@V?$positional_parameter_base@DV?$stream_output_adapter@D@__crt_stdio_output@@@2@@__crt_stdio_output@@AEAAXI@Z 0000000180026834 f i libucrt:output.obj
 0001:0002583c       ?unset_flag@?$output_processor@DV?$stream_output_adapter@D@__crt_stdio_output@@V?$standard_base@DV?$stream_output_adapter@D@__crt_stdio_output@@@2@@__crt_stdio_output@@AEAAXI@Z 000000018002683c f i libucrt:output.obj
 0001:00025844       ?unset_flag@?$output_processor@DV?$string_output_adapter@D@__crt_stdio_output@@V?$format_validation_base@DV?$string_output_adapter@D@__crt_stdio_output@@@2@@__crt_stdio_output@@AEAAXI@Z 0000000180026844 f i libucrt:output.obj
 0001:0002584c       ?unset_flag@?$output_processor@DV?$string_output_adapter@D@__crt_stdio_output@@V?$positional_parameter_base@DV?$string_output_adapter@D@__crt_stdio_output@@@2@@__crt_stdio_output@@AEAAXI@Z 000000018002684c f i libucrt:output.obj
 0001:00025854       ?unset_flag@?$output_processor@DV?$string_output_adapter@D@__crt_stdio_output@@V?$standard_base@DV?$string_output_adapter@D@__crt_stdio_output@@@2@@__crt_stdio_output@@AEAAXI@Z 0000000180026854 f i libucrt:output.obj
 0001:0002585c       ?unset_flag@?$output_processor@_WV?$stream_output_adapter@_W@__crt_stdio_output@@V?$format_validation_base@_WV?$stream_output_adapter@_W@__crt_stdio_output@@@2@@__crt_stdio_output@@AEAAXI@Z 000000018002685c f i libucrt:output.obj
 0001:00025864       ?unset_flag@?$output_processor@_WV?$stream_output_adapter@_W@__crt_stdio_output@@V?$positional_parameter_base@_WV?$stream_output_adapter@_W@__crt_stdio_output@@@2@@__crt_stdio_output@@AEAAXI@Z 0000000180026864 f i libucrt:output.obj
 0001:0002586c       ?unset_flag@?$output_processor@_WV?$stream_output_adapter@_W@__crt_stdio_output@@V?$standard_base@_WV?$stream_output_adapter@_W@__crt_stdio_output@@@2@@__crt_stdio_output@@AEAAXI@Z 000000018002686c f i libucrt:output.obj
 0001:00025874       ?unset_flag@?$output_processor@_WV?$string_output_adapter@_W@__crt_stdio_output@@V?$format_validation_base@_WV?$string_output_adapter@_W@__crt_stdio_output@@@2@@__crt_stdio_output@@AEAAXI@Z 0000000180026874 f i libucrt:output.obj
 0001:0002587c       ?unset_flag@?$output_processor@_WV?$string_output_adapter@_W@__crt_stdio_output@@V?$positional_parameter_base@_WV?$string_output_adapter@_W@__crt_stdio_output@@@2@@__crt_stdio_output@@AEAAXI@Z 000000018002687c f i libucrt:output.obj
 0001:00025884       ?unset_flag@?$output_processor@_WV?$string_output_adapter@_W@__crt_stdio_output@@V?$standard_base@_WV?$string_output_adapter@_W@__crt_stdio_output@@@2@@__crt_stdio_output@@AEAAXI@Z 0000000180026884 f i libucrt:output.obj
 0001:0002588c       ?update_field_width@?$positional_parameter_base@DV?$stream_output_adapter@D@__crt_stdio_output@@@__crt_stdio_output@@IEAA_NXZ 000000018002688c f i libucrt:output.obj
 0001:000259a4       ?update_field_width@?$positional_parameter_base@DV?$string_output_adapter@D@__crt_stdio_output@@@__crt_stdio_output@@IEAA_NXZ 00000001800269a4 f i libucrt:output.obj
 0001:00025abc       ?update_field_width@?$positional_parameter_base@_WV?$stream_output_adapter@_W@__crt_stdio_output@@@__crt_stdio_output@@IEAA_NXZ 0000000180026abc f i libucrt:output.obj
 0001:00025bd4       ?update_field_width@?$positional_parameter_base@_WV?$string_output_adapter@_W@__crt_stdio_output@@@__crt_stdio_output@@IEAA_NXZ 0000000180026bd4 f i libucrt:output.obj
 0001:00025cec       ?update_field_width@?$standard_base@DV?$stream_output_adapter@D@__crt_stdio_output@@@__crt_stdio_output@@IEAA_NXZ 0000000180026cec f i libucrt:output.obj
 0001:00025d00       ?update_field_width@?$standard_base@DV?$string_output_adapter@D@__crt_stdio_output@@@__crt_stdio_output@@IEAA_NXZ 0000000180026d00 f i libucrt:output.obj
 0001:00025d14       ?update_field_width@?$standard_base@_WV?$stream_output_adapter@_W@__crt_stdio_output@@@__crt_stdio_output@@IEAA_NXZ 0000000180026d14 f i libucrt:output.obj
 0001:00025d28       ?update_field_width@?$standard_base@_WV?$string_output_adapter@_W@__crt_stdio_output@@@__crt_stdio_output@@IEAA_NXZ 0000000180026d28 f i libucrt:output.obj
 0001:00025d3c       ?update_precision@?$positional_parameter_base@DV?$stream_output_adapter@D@__crt_stdio_output@@@__crt_stdio_output@@IEAA_NXZ 0000000180026d3c f i libucrt:output.obj
 0001:00025e54       ?update_precision@?$positional_parameter_base@DV?$string_output_adapter@D@__crt_stdio_output@@@__crt_stdio_output@@IEAA_NXZ 0000000180026e54 f i libucrt:output.obj
 0001:00025f6c       ?update_precision@?$positional_parameter_base@_WV?$stream_output_adapter@_W@__crt_stdio_output@@@__crt_stdio_output@@IEAA_NXZ 0000000180026f6c f i libucrt:output.obj
 0001:00026084       ?update_precision@?$positional_parameter_base@_WV?$string_output_adapter@_W@__crt_stdio_output@@@__crt_stdio_output@@IEAA_NXZ 0000000180027084 f i libucrt:output.obj
 0001:0002619c       ?update_precision@?$standard_base@DV?$stream_output_adapter@D@__crt_stdio_output@@@__crt_stdio_output@@IEAA_NXZ 000000018002719c f i libucrt:output.obj
 0001:000261b0       ?update_precision@?$standard_base@DV?$string_output_adapter@D@__crt_stdio_output@@@__crt_stdio_output@@IEAA_NXZ 00000001800271b0 f i libucrt:output.obj
 0001:000261c4       ?update_precision@?$standard_base@_WV?$stream_output_adapter@_W@__crt_stdio_output@@@__crt_stdio_output@@IEAA_NXZ 00000001800271c4 f i libucrt:output.obj
 0001:000261d8       ?update_precision@?$standard_base@_WV?$string_output_adapter@_W@__crt_stdio_output@@@__crt_stdio_output@@IEAA_NXZ 00000001800271d8 f i libucrt:output.obj
 0001:000261ec       ?validate@?$stream_output_adapter@D@__crt_stdio_output@@QEBA_NXZ 00000001800271ec f i libucrt:output.obj
 0001:00026218       ?validate@?$stream_output_adapter@_W@__crt_stdio_output@@QEBA_NXZ 0000000180027218 f i libucrt:output.obj
 0001:00026240       ?validate@?$string_output_adapter@D@__crt_stdio_output@@QEBA_NXZ 0000000180027240 f i libucrt:output.obj
 0001:00026268       ?validate@?$string_output_adapter@_W@__crt_stdio_output@@QEBA_NXZ 0000000180027268 f i libucrt:output.obj
 0001:00026290       ?validate_and_store_parameter_data@?$positional_parameter_base@DV?$stream_output_adapter@D@__crt_stdio_output@@@__crt_stdio_output@@AEAA_NAEAUparameter_data@12@W4parameter_type@12@DW4length_modifier@2@@Z 0000000180027290 f i libucrt:output.obj
 0001:000262d0       ?validate_and_store_parameter_data@?$positional_parameter_base@DV?$string_output_adapter@D@__crt_stdio_output@@@__crt_stdio_output@@AEAA_NAEAUparameter_data@12@W4parameter_type@12@DW4length_modifier@2@@Z 00000001800272d0 f i libucrt:output.obj
 0001:00026310       ?validate_and_store_parameter_data@?$positional_parameter_base@_WV?$stream_output_adapter@_W@__crt_stdio_output@@@__crt_stdio_output@@AEAA_NAEAUparameter_data@12@W4parameter_type@12@_WW4length_modifier@2@@Z 0000000180027310 f i libucrt:output.obj
 0001:00026350       ?validate_and_store_parameter_data@?$positional_parameter_base@_WV?$string_output_adapter@_W@__crt_stdio_output@@@__crt_stdio_output@@AEAA_NAEAUparameter_data@12@W4parameter_type@12@_WW4length_modifier@2@@Z 0000000180027350 f i libucrt:output.obj
 0001:00026390       ?validate_and_update_state_at_beginning_of_format_character@?$positional_parameter_base@DV?$stream_output_adapter@D@__crt_stdio_output@@@__crt_stdio_output@@IEAA_NXZ 0000000180027390 f i libucrt:output.obj
 0001:0002649c       ?validate_and_update_state_at_beginning_of_format_character@?$positional_parameter_base@DV?$string_output_adapter@D@__crt_stdio_output@@@__crt_stdio_output@@IEAA_NXZ 000000018002749c f i libucrt:output.obj
 0001:000265a8       ?validate_and_update_state_at_beginning_of_format_character@?$positional_parameter_base@_WV?$stream_output_adapter@_W@__crt_stdio_output@@@__crt_stdio_output@@IEAA_NXZ 00000001800275a8 f i libucrt:output.obj
 0001:000266bc       ?validate_and_update_state_at_beginning_of_format_character@?$positional_parameter_base@_WV?$string_output_adapter@_W@__crt_stdio_output@@@__crt_stdio_output@@IEAA_NXZ 00000001800276bc f i libucrt:output.obj
 0001:000267d0       ?validate_and_update_state_at_beginning_of_format_character@?$standard_base@DV?$stream_output_adapter@D@__crt_stdio_output@@@__crt_stdio_output@@IEAA_NXZ 00000001800277d0 f i libucrt:output.obj
 0001:000267d4       ?validate_and_update_state_at_beginning_of_format_character@?$standard_base@DV?$string_output_adapter@D@__crt_stdio_output@@@__crt_stdio_output@@IEAA_NXZ 00000001800277d4 f i libucrt:output.obj
 0001:000267d8       ?validate_and_update_state_at_beginning_of_format_character@?$standard_base@_WV?$stream_output_adapter@_W@__crt_stdio_output@@@__crt_stdio_output@@IEAA_NXZ 00000001800277d8 f i libucrt:output.obj
 0001:000267dc       ?validate_and_update_state_at_beginning_of_format_character@?$standard_base@_WV?$string_output_adapter@_W@__crt_stdio_output@@@__crt_stdio_output@@IEAA_NXZ 00000001800277dc f i libucrt:output.obj
 0001:000267e0       ?validate_and_update_state_at_end_of_format_string@?$format_validation_base@DV?$stream_output_adapter@D@__crt_stdio_output@@@__crt_stdio_output@@IEBA_NXZ 00000001800277e0 f i libucrt:output.obj
 0001:0002680c       ?validate_and_update_state_at_end_of_format_string@?$format_validation_base@DV?$string_output_adapter@D@__crt_stdio_output@@@__crt_stdio_output@@IEBA_NXZ 000000018002780c f i libucrt:output.obj
 0001:00026838       ?validate_and_update_state_at_end_of_format_string@?$format_validation_base@_WV?$stream_output_adapter@_W@__crt_stdio_output@@@__crt_stdio_output@@IEBA_NXZ 0000000180027838 f i libucrt:output.obj
 0001:00026864       ?validate_and_update_state_at_end_of_format_string@?$format_validation_base@_WV?$string_output_adapter@_W@__crt_stdio_output@@@__crt_stdio_output@@IEBA_NXZ 0000000180027864 f i libucrt:output.obj
 0001:00026890       ?validate_and_update_state_at_end_of_format_string@?$positional_parameter_base@DV?$stream_output_adapter@D@__crt_stdio_output@@@__crt_stdio_output@@IEAA_NXZ 0000000180027890 f i libucrt:output.obj
 0001:0002692c       ?validate_and_update_state_at_end_of_format_string@?$positional_parameter_base@DV?$string_output_adapter@D@__crt_stdio_output@@@__crt_stdio_output@@IEAA_NXZ 000000018002792c f i libucrt:output.obj
 0001:000269c8       ?validate_and_update_state_at_end_of_format_string@?$positional_parameter_base@_WV?$stream_output_adapter@_W@__crt_stdio_output@@@__crt_stdio_output@@IEAA_NXZ 00000001800279c8 f i libucrt:output.obj
 0001:00026a64       ?validate_and_update_state_at_end_of_format_string@?$positional_parameter_base@_WV?$string_output_adapter@_W@__crt_stdio_output@@@__crt_stdio_output@@IEAA_NXZ 0000000180027a64 f i libucrt:output.obj
 0001:00026b00       ?validate_and_update_state_at_end_of_format_string@?$standard_base@DV?$stream_output_adapter@D@__crt_stdio_output@@@__crt_stdio_output@@IEBA_NXZ 0000000180027b00 f i libucrt:output.obj
 0001:00026b04       ?validate_and_update_state_at_end_of_format_string@?$standard_base@DV?$string_output_adapter@D@__crt_stdio_output@@@__crt_stdio_output@@IEBA_NXZ 0000000180027b04 f i libucrt:output.obj
 0001:00026b08       ?validate_and_update_state_at_end_of_format_string@?$standard_base@_WV?$stream_output_adapter@_W@__crt_stdio_output@@@__crt_stdio_output@@IEBA_NXZ 0000000180027b08 f i libucrt:output.obj
 0001:00026b0c       ?validate_and_update_state_at_end_of_format_string@?$standard_base@_WV?$string_output_adapter@_W@__crt_stdio_output@@@__crt_stdio_output@@IEBA_NXZ 0000000180027b0c f i libucrt:output.obj
 0001:00026b10       ?validate_state_for_type_case_a@?$positional_parameter_base@DV?$stream_output_adapter@D@__crt_stdio_output@@@__crt_stdio_output@@IEAA_NXZ 0000000180027b10 f i libucrt:output.obj
 0001:00026bac       ?validate_state_for_type_case_a@?$positional_parameter_base@DV?$string_output_adapter@D@__crt_stdio_output@@@__crt_stdio_output@@IEAA_NXZ 0000000180027bac f i libucrt:output.obj
 0001:00026c48       ?validate_state_for_type_case_a@?$positional_parameter_base@_WV?$stream_output_adapter@_W@__crt_stdio_output@@@__crt_stdio_output@@IEAA_NXZ 0000000180027c48 f i libucrt:output.obj
 0001:00026ce8       ?validate_state_for_type_case_a@?$positional_parameter_base@_WV?$string_output_adapter@_W@__crt_stdio_output@@@__crt_stdio_output@@IEAA_NXZ 0000000180027ce8 f i libucrt:output.obj
 0001:00026d88       ?validate_state_for_type_case_a@?$standard_base@DV?$stream_output_adapter@D@__crt_stdio_output@@@__crt_stdio_output@@IEBA_NXZ 0000000180027d88 f i libucrt:output.obj
 0001:00026d8c       ?validate_state_for_type_case_a@?$standard_base@DV?$string_output_adapter@D@__crt_stdio_output@@@__crt_stdio_output@@IEBA_NXZ 0000000180027d8c f i libucrt:output.obj
 0001:00026d90       ?validate_state_for_type_case_a@?$standard_base@_WV?$stream_output_adapter@_W@__crt_stdio_output@@@__crt_stdio_output@@IEBA_NXZ 0000000180027d90 f i libucrt:output.obj
 0001:00026d94       ?validate_state_for_type_case_a@?$standard_base@_WV?$string_output_adapter@_W@__crt_stdio_output@@@__crt_stdio_output@@IEBA_NXZ 0000000180027d94 f i libucrt:output.obj
 0001:00026d98       ?validate_stream_is_ansi_if_required@?$__acrt_stdio_char_traits@D@@SA_NQEAU_iobuf@@@Z 0000000180027d98 f i libucrt:output.obj
 0001:00026e34       ?validate_stream_is_ansi_if_required@?$__acrt_stdio_char_traits@_W@@SA_NQEAU_iobuf@@@Z 0000000180027e34 f i libucrt:output.obj
 0001:00026e38       ?wide_null_string@?$output_processor@DV?$stream_output_adapter@D@__crt_stdio_output@@V?$format_validation_base@DV?$stream_output_adapter@D@__crt_stdio_output@@@2@@__crt_stdio_output@@CAPEA_WXZ 0000000180027e38 f i libucrt:output.obj
 0001:00026e40       ?wide_null_string@?$output_processor@DV?$stream_output_adapter@D@__crt_stdio_output@@V?$positional_parameter_base@DV?$stream_output_adapter@D@__crt_stdio_output@@@2@@__crt_stdio_output@@CAPEA_WXZ 0000000180027e40 f i libucrt:output.obj
 0001:00026e48       ?wide_null_string@?$output_processor@DV?$stream_output_adapter@D@__crt_stdio_output@@V?$standard_base@DV?$stream_output_adapter@D@__crt_stdio_output@@@2@@__crt_stdio_output@@CAPEA_WXZ 0000000180027e48 f i libucrt:output.obj
 0001:00026e50       ?wide_null_string@?$output_processor@DV?$string_output_adapter@D@__crt_stdio_output@@V?$format_validation_base@DV?$string_output_adapter@D@__crt_stdio_output@@@2@@__crt_stdio_output@@CAPEA_WXZ 0000000180027e50 f i libucrt:output.obj
 0001:00026e58       ?wide_null_string@?$output_processor@DV?$string_output_adapter@D@__crt_stdio_output@@V?$positional_parameter_base@DV?$string_output_adapter@D@__crt_stdio_output@@@2@@__crt_stdio_output@@CAPEA_WXZ 0000000180027e58 f i libucrt:output.obj
 0001:00026e60       ?wide_null_string@?$output_processor@DV?$string_output_adapter@D@__crt_stdio_output@@V?$standard_base@DV?$string_output_adapter@D@__crt_stdio_output@@@2@@__crt_stdio_output@@CAPEA_WXZ 0000000180027e60 f i libucrt:output.obj
 0001:00026e68       ?wide_null_string@?$output_processor@_WV?$stream_output_adapter@_W@__crt_stdio_output@@V?$format_validation_base@_WV?$stream_output_adapter@_W@__crt_stdio_output@@@2@@__crt_stdio_output@@CAPEA_WXZ 0000000180027e68 f i libucrt:output.obj
 0001:00026e70       ?wide_null_string@?$output_processor@_WV?$stream_output_adapter@_W@__crt_stdio_output@@V?$positional_parameter_base@_WV?$stream_output_adapter@_W@__crt_stdio_output@@@2@@__crt_stdio_output@@CAPEA_WXZ 0000000180027e70 f i libucrt:output.obj
 0001:00026e78       ?wide_null_string@?$output_processor@_WV?$stream_output_adapter@_W@__crt_stdio_output@@V?$standard_base@_WV?$stream_output_adapter@_W@__crt_stdio_output@@@2@@__crt_stdio_output@@CAPEA_WXZ 0000000180027e78 f i libucrt:output.obj
 0001:00026e80       ?wide_null_string@?$output_processor@_WV?$string_output_adapter@_W@__crt_stdio_output@@V?$format_validation_base@_WV?$string_output_adapter@_W@__crt_stdio_output@@@2@@__crt_stdio_output@@CAPEA_WXZ 0000000180027e80 f i libucrt:output.obj
 0001:00026e88       ?wide_null_string@?$output_processor@_WV?$string_output_adapter@_W@__crt_stdio_output@@V?$positional_parameter_base@_WV?$string_output_adapter@_W@__crt_stdio_output@@@2@@__crt_stdio_output@@CAPEA_WXZ 0000000180027e88 f i libucrt:output.obj
 0001:00026e90       ?wide_null_string@?$output_processor@_WV?$string_output_adapter@_W@__crt_stdio_output@@V?$standard_base@_WV?$string_output_adapter@_W@__crt_stdio_output@@@2@@__crt_stdio_output@@CAPEA_WXZ 0000000180027e90 f i libucrt:output.obj
 0001:00026e98       ?write_character@?$output_adapter_common@DV?$stream_output_adapter@D@__crt_stdio_output@@@__crt_stdio_output@@QEBAXDQEAH@Z 0000000180027e98 f i libucrt:output.obj
 0001:00026ee0       ?write_character@?$output_adapter_common@_WV?$stream_output_adapter@_W@__crt_stdio_output@@@__crt_stdio_output@@QEBAX_WQEAH@Z 0000000180027ee0 f i libucrt:output.obj
 0001:00026f2c       ?write_character@?$string_output_adapter@D@__crt_stdio_output@@QEBA_NDQEAH@Z 0000000180027f2c f i libucrt:output.obj
 0001:00026f74       ?write_character@?$string_output_adapter@_W@__crt_stdio_output@@QEBA_N_WQEAH@Z 0000000180027f74 f i libucrt:output.obj
 0001:00026fbc       ?write_character_without_count_update@?$stream_output_adapter@D@__crt_stdio_output@@QEBA_ND@Z 0000000180027fbc f i libucrt:output.obj
 0001:00026ffc       ?write_character_without_count_update@?$stream_output_adapter@_W@__crt_stdio_output@@QEBA_N_W@Z 0000000180027ffc f i libucrt:output.obj
 0001:00027040       ?write_stored_string_tchar@?$output_processor@DV?$stream_output_adapter@D@__crt_stdio_output@@V?$format_validation_base@DV?$stream_output_adapter@D@__crt_stdio_output@@@2@@__crt_stdio_output@@AEAA_ND@Z 0000000180028040 f i libucrt:output.obj
 0001:00027164       ?write_stored_string_tchar@?$output_processor@DV?$stream_output_adapter@D@__crt_stdio_output@@V?$positional_parameter_base@DV?$stream_output_adapter@D@__crt_stdio_output@@@2@@__crt_stdio_output@@AEAA_ND@Z 0000000180028164 f i libucrt:output.obj
 0001:00027288       ?write_stored_string_tchar@?$output_processor@DV?$stream_output_adapter@D@__crt_stdio_output@@V?$standard_base@DV?$stream_output_adapter@D@__crt_stdio_output@@@2@@__crt_stdio_output@@AEAA_ND@Z 0000000180028288 f i libucrt:output.obj
 0001:000273ac       ?write_stored_string_tchar@?$output_processor@DV?$string_output_adapter@D@__crt_stdio_output@@V?$format_validation_base@DV?$string_output_adapter@D@__crt_stdio_output@@@2@@__crt_stdio_output@@AEAA_ND@Z 00000001800283ac f i libucrt:output.obj
 0001:00027484       ?write_stored_string_tchar@?$output_processor@DV?$string_output_adapter@D@__crt_stdio_output@@V?$positional_parameter_base@DV?$string_output_adapter@D@__crt_stdio_output@@@2@@__crt_stdio_output@@AEAA_ND@Z 0000000180028484 f i libucrt:output.obj
 0001:0002755c       ?write_stored_string_tchar@?$output_processor@DV?$string_output_adapter@D@__crt_stdio_output@@V?$standard_base@DV?$string_output_adapter@D@__crt_stdio_output@@@2@@__crt_stdio_output@@AEAA_ND@Z 000000018002855c f i libucrt:output.obj
 0001:00027634       ?write_stored_string_tchar@?$output_processor@_WV?$stream_output_adapter@_W@__crt_stdio_output@@V?$format_validation_base@_WV?$stream_output_adapter@_W@__crt_stdio_output@@@2@@__crt_stdio_output@@AEAA_N_W@Z 0000000180028634 f i libucrt:output.obj
 0001:0002773c       ?write_stored_string_tchar@?$output_processor@_WV?$stream_output_adapter@_W@__crt_stdio_output@@V?$positional_parameter_base@_WV?$stream_output_adapter@_W@__crt_stdio_output@@@2@@__crt_stdio_output@@AEAA_N_W@Z 000000018002873c f i libucrt:output.obj
 0001:00027844       ?write_stored_string_tchar@?$output_processor@_WV?$stream_output_adapter@_W@__crt_stdio_output@@V?$standard_base@_WV?$stream_output_adapter@_W@__crt_stdio_output@@@2@@__crt_stdio_output@@AEAA_N_W@Z 0000000180028844 f i libucrt:output.obj
 0001:0002794c       ?write_stored_string_tchar@?$output_processor@_WV?$string_output_adapter@_W@__crt_stdio_output@@V?$format_validation_base@_WV?$string_output_adapter@_W@__crt_stdio_output@@@2@@__crt_stdio_output@@AEAA_N_W@Z 000000018002894c f i libucrt:output.obj
 0001:00027a38       ?write_stored_string_tchar@?$output_processor@_WV?$string_output_adapter@_W@__crt_stdio_output@@V?$positional_parameter_base@_WV?$string_output_adapter@_W@__crt_stdio_output@@@2@@__crt_stdio_output@@AEAA_N_W@Z 0000000180028a38 f i libucrt:output.obj
 0001:00027b24       ?write_stored_string_tchar@?$output_processor@_WV?$string_output_adapter@_W@__crt_stdio_output@@V?$standard_base@_WV?$string_output_adapter@_W@__crt_stdio_output@@@2@@__crt_stdio_output@@AEAA_N_W@Z 0000000180028b24 f i libucrt:output.obj
 0001:00027c10       ?write_string@?$stream_output_adapter@D@__crt_stdio_output@@QEBAXQEBDHQEAHAEAV__crt_deferred_errno_cache@@@Z 0000000180028c10 f i libucrt:output.obj
 0001:00027c34       ?write_string@?$stream_output_adapter@_W@__crt_stdio_output@@QEBAXQEB_WHQEAHAEAV__crt_deferred_errno_cache@@@Z 0000000180028c34 f i libucrt:output.obj
 0001:00027c58       ?write_string@?$string_output_adapter@D@__crt_stdio_output@@QEBAXQEBDHQEAHAEAV__crt_deferred_errno_cache@@@Z 0000000180028c58 f i libucrt:output.obj
 0001:00027cfc       ?write_string@?$string_output_adapter@_W@__crt_stdio_output@@QEBAXQEB_WHQEAHAEAV__crt_deferred_errno_cache@@@Z 0000000180028cfc f i libucrt:output.obj
 0001:00027da4       ?write_string_impl@?$output_adapter_common@DV?$stream_output_adapter@D@__crt_stdio_output@@@__crt_stdio_output@@IEBAXQEBDHQEAHAEAV__crt_deferred_errno_cache@@@Z 0000000180028da4 f i libucrt:output.obj
 0001:00027e9c       ?write_string_impl@?$output_adapter_common@_WV?$stream_output_adapter@_W@__crt_stdio_output@@@__crt_stdio_output@@IEBAXQEB_WHQEAHAEAV__crt_deferred_errno_cache@@@Z 0000000180028e9c f i libucrt:output.obj
 0001:00027fa0       __acrt_isleadbyte_l_noupdate 0000000180028fa0 f i libucrt:output.obj
 0001:00027fc4       __acrt_locale_changed      0000000180028fc4 f i libucrt:output.obj
 0001:00027fd0       __acrt_locale_get_ctype_array_value 0000000180028fd0 f i libucrt:output.obj
 0001:00027fe8       __stdio_common_vfprintf    0000000180028fe8 f   libucrt:output.obj
 0001:00028074       __stdio_common_vfprintf_p  0000000180029074 f   libucrt:output.obj
 0001:00028100       __stdio_common_vfprintf_s  0000000180029100 f   libucrt:output.obj
 0001:0002818c       __stdio_common_vfwprintf   000000018002918c f   libucrt:output.obj
 0001:00028218       __stdio_common_vfwprintf_p 0000000180029218 f   libucrt:output.obj
 0001:000282a4       __stdio_common_vfwprintf_s 00000001800292a4 f   libucrt:output.obj
 0001:00028330       __stdio_common_vsnprintf_s 0000000180029330 f   libucrt:output.obj
 0001:00028464       __stdio_common_vsnwprintf_s 0000000180029464 f   libucrt:output.obj
 0001:000285a8       __stdio_common_vsprintf    00000001800295a8 f   libucrt:output.obj
 0001:000285b0       __stdio_common_vsprintf_p  00000001800295b0 f   libucrt:output.obj
 0001:000285b8       __stdio_common_vsprintf_s  00000001800295b8 f   libucrt:output.obj
 0001:0002861c       __stdio_common_vswprintf   000000018002961c f   libucrt:output.obj
 0001:00028624       __stdio_common_vswprintf_p 0000000180029624 f   libucrt:output.obj
 0001:0002862c       __stdio_common_vswprintf_s 000000018002962c f   libucrt:output.obj
 0001:0002869c       _ctype_fast_check_internal 000000018002969c f i libucrt:output.obj
 0001:000286b0       _isdigit_fast_internal     00000001800296b0 f i libucrt:output.obj
 0001:000286c4       _tolower_fast_internal     00000001800296c4 f i libucrt:output.obj
 0001:000286d8       _initterm                  00000001800296d8 f   libucrt:initterm.obj
 0001:0002873c       _initterm_e                000000018002973c f   libucrt:initterm.obj
 0001:0002879c       _seh_filter_dll            000000018002979c f   libucrt:exception_filter.obj
 0001:000287b0       _seh_filter_exe            00000001800297b0 f   libucrt:exception_filter.obj
 0001:00028934       ??$?B$$A6AXPEAXK0@Z@__crt_fast_encoded_nullptr_t@@QEBAP6AXPEAXK0@ZXZ 0000000180029934 f i libucrt:exit.obj
 0001:0002899c       ??$__crt_fast_decode_pointer@P6AXPEAXK0@Z@@YAP6AXPEAXK0@ZQ6AX0K0@Z@Z 000000018002999c f i libucrt:exit.obj
 0001:000289b4       ??$__crt_fast_encode_pointer@P6AXPEAXK0@Z@@YAP6AXPEAXK0@ZQ6AX0K0@Z@Z 00000001800299b4 f i libucrt:exit.obj
 0001:000289d4       ??$__crt_get_proc_address@P6AXI@Z@@YAP6AXI@ZQEAUHINSTANCE__@@QEBD@Z 00000001800299d4 f i libucrt:exit.obj
 0001:000289fc       ??0?$__crt_unique_handle_t@U__crt_hmodule_traits@@@@QEAA@QEAUHINSTANCE__@@@Z 00000001800299fc f i libucrt:exit.obj
 0001:00028a04       ??1?$__crt_unique_handle_t@U__crt_hmodule_traits@@@@QEAA@XZ 0000000180029a04 f i libucrt:exit.obj
 0001:00028afc       ?__acrt_select_exit_lock@@YA?AW4__acrt_lock_id@@XZ 0000000180029afc f i libucrt:exit.obj
 0001:00028b04       ?__crt_fast_encode_pointer@@YA?AU__crt_fast_encoded_nullptr_t@@$$T@Z 0000000180029b04 f i libucrt:exit.obj
 0001:00028b0c       ?__crt_rotate_pointer_value@@YA_K_KH@Z 0000000180029b0c f i libucrt:exit.obj
 0001:00028b24       ?close@?$__crt_unique_handle_t@U__crt_hmodule_traits@@@@QEAAXXZ 0000000180029b24 f i libucrt:exit.obj
 0001:00028b48       ?close@__crt_hmodule_traits@@SA_NPEAUHINSTANCE__@@@Z 0000000180029b48 f i libucrt:exit.obj
 0001:00028c64       ?get@?$__crt_unique_handle_t@U__crt_hmodule_traits@@@@QEBAPEAUHINSTANCE__@@XZ 0000000180029c64 f i libucrt:exit.obj
 0001:00028c68       ?get_address_of@?$__crt_unique_handle_t@U__crt_hmodule_traits@@@@QEAAPEAPEAUHINSTANCE__@@XZ 0000000180029c68 f i libucrt:exit.obj
 0001:00028c6c       ?get_invalid_value@__crt_hmodule_traits@@SAPEAUHINSTANCE__@@XZ 0000000180029c6c f i libucrt:exit.obj
 0001:00028d50       _Exit                      0000000180029d50 f   libucrt:exit.obj
 0001:00028d5c       __acrt_initialize_thread_local_exit_callback 0000000180029d5c f   libucrt:exit.obj
 0001:00028d64       _c_exit                    0000000180029d64 f   libucrt:exit.obj
 0001:00028d74       _cexit                     0000000180029d74 f   libucrt:exit.obj
 0001:00028d84       _exit                      0000000180029d84 f   libucrt:exit.obj
 0001:00028d90       _is_c_termination_complete 0000000180029d90 f   libucrt:exit.obj
 0001:00028d98       _register_thread_local_exe_atexit_callback 0000000180029d98 f   libucrt:exit.obj
 0001:00028dd4       exit                       0000000180029dd4 f   libucrt:exit.obj
 0001:00028de0       quick_exit                 0000000180029de0 f   libucrt:exit.obj
 0001:00028dec       ??$?RE@__crt_internal_free_policy@@QEBAXQEBE@Z 0000000180029dec f i libucrt:argv_parsing.obj
 0001:00028df4       ??$?RPEAD@__crt_internal_free_policy@@QEBAXQEBQEAD@Z 0000000180029df4 f i libucrt:argv_parsing.obj
 0001:00028dfc       ??$?RPEA_W@__crt_internal_free_policy@@QEBAXQEBQEA_W@Z 0000000180029dfc f i libucrt:argv_parsing.obj
 0001:000290f0       ??$get_module_file_name@$$TAEAY0BAF@DH@?$__crt_char_traits@D@@SAK$$QEA$$TAEAY0BAF@D$$QEAH@Z 000000018002a0f0 f i libucrt:argv_parsing.obj
 0001:000290fc       ??$get_module_file_name@$$TAEAY0BAF@_WH@?$__crt_char_traits@_W@@SAK$$QEA$$TAEAY0BAF@_W$$QEAH@Z 000000018002a0fc f i libucrt:argv_parsing.obj
 0001:00029474       ??$set_program_name@PEAD@?$__crt_char_traits@D@@SAX$$QEAPEAD@Z 000000018002a474 f i libucrt:argv_parsing.obj
 0001:00029480       ??$set_program_name@PEA_W@?$__crt_char_traits@_W@@SAX$$QEAPEA_W@Z 000000018002a480 f i libucrt:argv_parsing.obj
 0001:0002949c       ??0?$__crt_unique_heap_ptr@EU__crt_internal_free_policy@@@@QEAA@QEAE@Z 000000018002a49c f i libucrt:argv_parsing.obj
 0001:000294a4       ??0?$__crt_unique_heap_ptr@PEADU__crt_internal_free_policy@@@@QEAA@QEAPEAD@Z 000000018002a4a4 f i libucrt:argv_parsing.obj
 0001:000294ac       ??0?$__crt_unique_heap_ptr@PEA_WU__crt_internal_free_policy@@@@QEAA@QEAPEA_W@Z 000000018002a4ac f i libucrt:argv_parsing.obj
 0001:000294b4       ??1?$__crt_unique_heap_ptr@EU__crt_internal_free_policy@@@@QEAA@XZ 000000018002a4b4 f i libucrt:argv_parsing.obj
 0001:000294d0       ??1?$__crt_unique_heap_ptr@PEADU__crt_internal_free_policy@@@@QEAA@XZ 000000018002a4d0 f i libucrt:argv_parsing.obj
 0001:000294ec       ??1?$__crt_unique_heap_ptr@PEA_WU__crt_internal_free_policy@@@@QEAA@XZ 000000018002a4ec f i libucrt:argv_parsing.obj
 0001:00029508       ??B?$__crt_unique_heap_ptr@EU__crt_internal_free_policy@@@@QEBA_NXZ 000000018002a508 f i libucrt:argv_parsing.obj
 0001:00029548       ?detach@?$__crt_unique_heap_ptr@EU__crt_internal_free_policy@@@@QEAAPEAEXZ 000000018002a548 f i libucrt:argv_parsing.obj
 0001:00029550       ?detach@?$__crt_unique_heap_ptr@PEADU__crt_internal_free_policy@@@@QEAAPEAPEADXZ 000000018002a550 f i libucrt:argv_parsing.obj
 0001:00029558       ?detach@?$__crt_unique_heap_ptr@PEA_WU__crt_internal_free_policy@@@@QEAAPEAPEA_WXZ 000000018002a558 f i libucrt:argv_parsing.obj
 0001:0002957c       ?get@?$__crt_unique_heap_ptr@EU__crt_internal_free_policy@@@@QEBAPEAEXZ 000000018002a57c f i libucrt:argv_parsing.obj
 0001:00029580       ?get@?$__crt_unique_heap_ptr@PEADU__crt_internal_free_policy@@@@QEBAPEAPEADXZ 000000018002a580 f i libucrt:argv_parsing.obj
 0001:00029584       ?get@?$__crt_unique_heap_ptr@PEA_WU__crt_internal_free_policy@@@@QEBAPEAPEA_WXZ 000000018002a584 f i libucrt:argv_parsing.obj
 0001:00029588       ?get_address_of@?$__crt_unique_heap_ptr@PEADU__crt_internal_free_policy@@@@QEAAPEAPEAPEADXZ 000000018002a588 f i libucrt:argv_parsing.obj
 0001:0002958c       ?get_address_of@?$__crt_unique_heap_ptr@PEA_WU__crt_internal_free_policy@@@@QEAAPEAPEAPEA_WXZ 000000018002a58c f i libucrt:argv_parsing.obj
 0001:000295b0       ?is_valid@?$__crt_unique_heap_ptr@EU__crt_internal_free_policy@@@@QEBA_NXZ 000000018002a5b0 f i libucrt:argv_parsing.obj
 0001:000295b8       ?release@?$__crt_unique_heap_ptr@EU__crt_internal_free_policy@@@@QEAAXXZ 000000018002a5b8 f i libucrt:argv_parsing.obj
 0001:000295d4       ?release@?$__crt_unique_heap_ptr@PEADU__crt_internal_free_policy@@@@QEAAXXZ 000000018002a5d4 f i libucrt:argv_parsing.obj
 0001:000295f0       ?release@?$__crt_unique_heap_ptr@PEA_WU__crt_internal_free_policy@@@@QEAAXXZ 000000018002a5f0 f i libucrt:argv_parsing.obj
 0001:00029628       __acrt_allocate_buffer_for_argv 000000018002a628 f   libucrt:argv_parsing.obj
 0001:00029688       _configure_narrow_argv     000000018002a688 f   libucrt:argv_parsing.obj
 0001:00029810       _configure_wide_argv       000000018002a810 f   libucrt:argv_parsing.obj
 0001:00029994       _set_pgmptr                000000018002a994 f i libucrt:argv_parsing.obj
 0001:0002999c       _set_wpgmptr               000000018002a99c f i libucrt:argv_parsing.obj
 0001:000299a4       ??$?R_W@__crt_internal_free_policy@@QEBAXQEB_W@Z 000000018002a9a4 f i libucrt:environment_initialization.obj
 0001:00029eac       ??$get_environment_from_os@$$V@?$__crt_char_traits@D@@SAPEADXZ 000000018002aeac f i libucrt:environment_initialization.obj
 0001:00029eb4       ??$get_environment_from_os@$$V@?$__crt_char_traits@_W@@SAPEA_WXZ 000000018002aeb4 f i libucrt:environment_initialization.obj
 0001:0002a044       ??$set_variable_in_environment_nolock@PEADH@?$__crt_char_traits@D@@SAH$$QEAPEAD$$QEAH@Z 000000018002b044 f i libucrt:environment_initialization.obj
 0001:0002a050       ??$set_variable_in_environment_nolock@PEA_WH@?$__crt_char_traits@_W@@SAH$$QEAPEA_W$$QEAH@Z 000000018002b050 f i libucrt:environment_initialization.obj
 0001:0002a05c       ??$tcscpy_s@PEADAEB_KAEAPEAD@?$__crt_char_traits@D@@SAH$$QEAPEADAEB_KAEAPEAD@Z 000000018002b05c f i libucrt:environment_initialization.obj
 0001:0002a06c       ??$tcscpy_s@PEA_WAEB_KAEAPEA_W@?$__crt_char_traits@_W@@SAH$$QEAPEA_WAEB_KAEAPEA_W@Z 000000018002b06c f i libucrt:environment_initialization.obj
 0001:0002a07c       ??$tcslen@AEAPEAD@?$__crt_char_traits@D@@SA_KAEAPEAD@Z 000000018002b07c f i libucrt:environment_initialization.obj
 0001:0002a090       ??$tcslen@AEAPEA_W@?$__crt_char_traits@_W@@SA_KAEAPEA_W@Z 000000018002b090 f i libucrt:environment_initialization.obj
 0001:0002a0a4       ??$uninitialize@A6AXAEAPEAPEAD@Z@?$dual_state_global@PEAPEAD@__crt_state_management@@QEAAXA6AXAEAPEAPEAD@Z@Z 000000018002b0a4 f i libucrt:environment_initialization.obj
 0001:0002a0e8       ??$uninitialize@A6AXAEAPEAPEA_W@Z@?$dual_state_global@PEAPEA_W@__crt_state_management@@QEAAXA6AXAEAPEAPEA_W@Z@Z 000000018002b0e8 f i libucrt:environment_initialization.obj
 0001:0002a164       ??0?$__crt_unique_heap_ptr@_WU__crt_internal_free_policy@@@@QEAA@QEA_W@Z 000000018002b164 f i libucrt:environment_initialization.obj
 0001:0002a16c       ??1?$__crt_unique_heap_ptr@_WU__crt_internal_free_policy@@@@QEAA@XZ 000000018002b16c f i libucrt:environment_initialization.obj
 0001:0002a188       ??B?$__crt_unique_heap_ptr@PEADU__crt_internal_free_policy@@@@QEBA_NXZ 000000018002b188 f i libucrt:environment_initialization.obj
 0001:0002a190       ??B?$__crt_unique_heap_ptr@PEA_WU__crt_internal_free_policy@@@@QEBA_NXZ 000000018002b190 f i libucrt:environment_initialization.obj
 0001:0002a198       ??B?$__crt_unique_heap_ptr@_WU__crt_internal_free_policy@@@@QEBA_NXZ 000000018002b198 f i libucrt:environment_initialization.obj
 0001:0002a1a0       ?__crt_compute_required_transform_buffer_count@@YA_KIQEBD@Z 000000018002b1a0 f i libucrt:environment_initialization.obj
 0001:0002a1c4       ?__crt_compute_required_transform_buffer_count@@YA_KIQEB_W@Z 000000018002b1c4 f i libucrt:environment_initialization.obj
 0001:0002a1f4       ?__crt_transform_string@@YA_KIQEBDQEA_W_K@Z 000000018002b1f4 f i libucrt:environment_initialization.obj
 0001:0002a218       ?__crt_transform_string@@YA_KIQEB_WQEAD_K@Z 000000018002b218 f i libucrt:environment_initialization.obj
 0001:0002a248       ?detach@?$__crt_unique_heap_ptr@_WU__crt_internal_free_policy@@@@QEAAPEA_WXZ 000000018002b248 f i libucrt:environment_initialization.obj
 0001:0002a250       ?get@?$__crt_unique_heap_ptr@_WU__crt_internal_free_policy@@@@QEBAPEA_WXZ 000000018002b250 f i libucrt:environment_initialization.obj
 0001:0002a254       ?get_current_state_index@__crt_state_management@@YA_KXZ 000000018002b254 f i libucrt:environment_initialization.obj
 0001:0002a288       ?initialize@?$dual_state_global@PEAPEAD@__crt_state_management@@QEAAXQEAPEAD@Z 000000018002b288 f i libucrt:environment_initialization.obj
 0001:0002a2b0       ?initialize@?$dual_state_global@PEAPEA_W@__crt_state_management@@QEAAXQEAPEA_W@Z 000000018002b2b0 f i libucrt:environment_initialization.obj
 0001:0002a2d8       ?is_valid@?$__crt_unique_heap_ptr@PEADU__crt_internal_free_policy@@@@QEBA_NXZ 000000018002b2d8 f i libucrt:environment_initialization.obj
 0001:0002a2e0       ?is_valid@?$__crt_unique_heap_ptr@PEA_WU__crt_internal_free_policy@@@@QEBA_NXZ 000000018002b2e0 f i libucrt:environment_initialization.obj
 0001:0002a2e8       ?is_valid@?$__crt_unique_heap_ptr@_WU__crt_internal_free_policy@@@@QEBA_NXZ 000000018002b2e8 f i libucrt:environment_initialization.obj
 0001:0002a2fc       ?release@?$__crt_unique_heap_ptr@_WU__crt_internal_free_policy@@@@QEAAXXZ 000000018002b2fc f i libucrt:environment_initialization.obj
 0001:0002a318       ?value@?$dual_state_global@PEAPEAD@__crt_state_management@@QEAAAEAPEAPEADXZ 000000018002b318 f i libucrt:environment_initialization.obj
 0001:0002a31c       ?value@?$dual_state_global@PEAPEA_W@__crt_state_management@@QEAAAEAPEAPEA_WXZ 000000018002b31c f i libucrt:environment_initialization.obj
 0001:0002a320       __dcrt_get_or_create_narrow_environment_nolock 000000018002b320 f   libucrt:environment_initialization.obj
 0001:0002a35c       __dcrt_get_or_create_wide_environment_nolock 000000018002b35c f   libucrt:environment_initialization.obj
 0001:0002a398       __dcrt_uninitialize_environments_nolock 000000018002b398 f   libucrt:environment_initialization.obj
 0001:0002a3d0       __p__environ               000000018002b3d0 f   libucrt:environment_initialization.obj
 0001:0002a3d8       __p__wenviron              000000018002b3d8 f   libucrt:environment_initialization.obj
 0001:0002a3e0       _get_initial_narrow_environment 000000018002b3e0 f   libucrt:environment_initialization.obj
 0001:0002a430       _get_initial_wide_environment 000000018002b430 f   libucrt:environment_initialization.obj
 0001:0002a480       _initialize_narrow_environment 000000018002b480 f   libucrt:environment_initialization.obj
 0001:0002a488       _initialize_wide_environment 000000018002b488 f   libucrt:environment_initialization.obj
 0001:0002a490       _invoke_watson_if_error    000000018002b490 f i libucrt:environment_initialization.obj
 0001:0002a4c4       ??$?B$$A6AXXZ@__crt_fast_encoded_nullptr_t@@QEBAP6AXXZXZ 000000018002b4c4 f i libucrt:onexit.obj
 0001:0002a4cc       ??$?BP6AXXZ@__crt_fast_encoded_nullptr_t@@QEBAPEAP6AXXZXZ 000000018002b4cc f i libucrt:onexit.obj
 0001:0002a4d4       ??$?RP6AXXZ@__crt_internal_free_policy@@QEBAXQEBQ6AXXZ@Z 000000018002b4d4 f i libucrt:onexit.obj
 0001:0002a5a4       ??$__crt_fast_decode_pointer@P6AXXZ@@YAP6AXXZQ6AXXZ@Z 000000018002b5a4 f i libucrt:onexit.obj
 0001:0002a5bc       ??$__crt_fast_decode_pointer@PEAP6AXXZ@@YAPEAP6AXXZQEAP6AXXZ@Z 000000018002b5bc f i libucrt:onexit.obj
 0001:0002a5d4       ??$__crt_fast_encode_pointer@P6AHXZ@@YAP6AHXZQ6AHXZ@Z 000000018002b5d4 f i libucrt:onexit.obj
 0001:0002a5f4       ??$__crt_fast_encode_pointer@P6AXXZ@@YAP6AXXZQ6AXXZ@Z 000000018002b5f4 f i libucrt:onexit.obj
 0001:0002a614       ??$__crt_fast_encode_pointer@PEAP6AXXZ@@YAPEAP6AXXZQEAP6AXXZ@Z 000000018002b614 f i libucrt:onexit.obj
 0001:0002a668       ??0?$__crt_unique_heap_ptr@P6AXXZU__crt_internal_free_policy@@@@QEAA@QEAP6AXXZ@Z 000000018002b668 f i libucrt:onexit.obj
 0001:0002a670       ??1?$__crt_unique_heap_ptr@P6AXXZU__crt_internal_free_policy@@@@QEAA@XZ 000000018002b670 f i libucrt:onexit.obj
 0001:0002a68c       ??1scoped_global_state_reset@__crt_state_management@@QEAA@XZ 000000018002b68c f i libucrt:onexit.obj
 0001:0002a978       ?detach@?$__crt_unique_heap_ptr@P6AXXZU__crt_internal_free_policy@@@@QEAAPEAP6AXXZXZ 000000018002b978 f i libucrt:onexit.obj
 0001:0002a980       ?release@?$__crt_unique_heap_ptr@P6AXXZU__crt_internal_free_policy@@@@QEAAXXZ 000000018002b980 f i libucrt:onexit.obj
 0001:0002a99c       _crt_at_quick_exit         000000018002b99c f   libucrt:onexit.obj
 0001:0002a9ac       _crt_atexit                000000018002b9ac f   libucrt:onexit.obj
 0001:0002a9bc       _execute_onexit_table      000000018002b9bc f   libucrt:onexit.obj
 0001:0002a9f8       _initialize_onexit_table   000000018002b9f8 f   libucrt:onexit.obj
 0001:0002aa20       _register_onexit_function  000000018002ba20 f   libucrt:onexit.obj
 0001:0002aba8       ??$?BX@__crt_fast_encoded_nullptr_t@@QEBAPEAXXZ 000000018002bba8 f i libucrt:initialization.obj
 0001:0002abb0       ??$__crt_fast_encode_pointer@PEAX@@YAPEAXQEAX@Z 000000018002bbb0 f i libucrt:initialization.obj
 0001:0002ac80       ?__acrt_stdio_is_initialized@@YA_NXZ 000000018002bc80 f i libucrt:initialization.obj
 0001:0002ac8c       ?initialize@?$dual_state_global@PEAU__crt_locale_data@@@__crt_state_management@@QEAAXQEAU__crt_locale_data@@@Z 000000018002bc8c f i libucrt:initialization.obj
 0001:0002acb4       __acrt_initialize          000000018002bcb4 f   libucrt:initialization.obj
 0001:0002acc8       __acrt_thread_attach       000000018002bcc8 f   libucrt:initialization.obj
 0001:0002acdc       __acrt_thread_detach       000000018002bcdc f   libucrt:initialization.obj
 0001:0002acec       __acrt_uninitialize        000000018002bcec f   libucrt:initialization.obj
 0001:0002ad24       __acrt_uninitialize_critical 000000018002bd24 f   libucrt:initialization.obj
 0001:0002ad48       _get_terminate             000000018002bd48 f   libucrt:terminate.obj
 0001:0002ad6c       set_terminate              000000018002bd6c f   libucrt:terminate.obj
 0001:0002ad98       terminate                  000000018002bd98 f   libucrt:terminate.obj
 0001:0002adb8       free                       000000018002bdb8 f   libucrt:free.obj
 0001:0002adcc       malloc                     000000018002bdcc f   libucrt:malloc.obj
 0001:0002ae38       strcpy_s                   000000018002be38 f   libucrt:strcpy_s.obj
 0001:0002ae98       _set_abort_behavior        000000018002be98 f   libucrt:abort.obj
 0001:0002aeb4       abort                      000000018002beb4 f   libucrt:abort.obj
 0001:0002af0c       ??$is_overflow_condition@K@__crt_strtox@@YA_NIK@Z 000000018002bf0c f i libucrt:atox.obj
 0001:0002af30       ??$is_overflow_condition@_K@__crt_strtox@@YA_NI_K@Z 000000018002bf30 f i libucrt:atox.obj
 0001:0002af60       ??$make_c_string_character_source@D$$T@__crt_strtox@@YA?AV?$c_string_character_source@D@0@QEBD$$T@Z 000000018002bf60 f i libucrt:atox.obj
 0001:0002af74       ??$make_c_string_character_source@_W$$T@__crt_strtox@@YA?AV?$c_string_character_source@_W@0@QEB_W$$T@Z 000000018002bf74 f i libucrt:atox.obj
 0001:0002af88       ??$parse_integer@KV?$c_string_character_source@D@__crt_strtox@@@__crt_strtox@@YAKQEAU__crt_locale_pointers@@V?$c_string_character_source@D@0@H_N@Z 000000018002bf88 f i libucrt:atox.obj
 0001:0002b290       ??$parse_integer@KV?$c_string_character_source@_W@__crt_strtox@@@__crt_strtox@@YAKQEAU__crt_locale_pointers@@V?$c_string_character_source@_W@0@H_N@Z 000000018002c290 f i libucrt:atox.obj
 0001:0002b938       ??$parse_integer@_KV?$c_string_character_source@D@__crt_strtox@@@__crt_strtox@@YA_KQEAU__crt_locale_pointers@@V?$c_string_character_source@D@0@H_N@Z 000000018002c938 f i libucrt:atox.obj
 0001:0002bc28       ??$parse_integer@_KV?$c_string_character_source@_W@__crt_strtox@@@__crt_strtox@@YA_KQEAU__crt_locale_pointers@@V?$c_string_character_source@_W@0@H_N@Z 000000018002cc28 f i libucrt:atox.obj
 0001:0002c380       ??$parse_integer_from_string@JD$$T@__crt_strtox@@YAJQEBD$$THQEAU__crt_locale_pointers@@@Z 000000018002d380 f i libucrt:atox.obj
 0001:0002c3b0       ??$parse_integer_from_string@J_W$$T@__crt_strtox@@YAJQEB_W$$THQEAU__crt_locale_pointers@@@Z 000000018002d3b0 f i libucrt:atox.obj
 0001:0002c3e0       ??$parse_integer_from_string@_JD$$T@__crt_strtox@@YA_JQEBD$$THQEAU__crt_locale_pointers@@@Z 000000018002d3e0 f i libucrt:atox.obj
 0001:0002c410       ??$parse_integer_from_string@_J_W$$T@__crt_strtox@@YA_JQEB_W$$THQEAU__crt_locale_pointers@@@Z 000000018002d410 f i libucrt:atox.obj
 0001:0002c440       ??0?$c_string_character_source@D@__crt_strtox@@QEAA@QEBDQEAPEBD@Z 000000018002d440 f i libucrt:atox.obj
 0001:0002c454       ??0?$c_string_character_source@_W@__crt_strtox@@QEAA@QEB_WQEAPEB_W@Z 000000018002d454 f i libucrt:atox.obj
 0001:0002c468       ??1?$c_string_character_source@D@__crt_strtox@@QEAA@XZ 000000018002d468 f i libucrt:atox.obj
 0001:0002c478       ??1?$c_string_character_source@_W@__crt_strtox@@QEAA@XZ 000000018002d478 f i libucrt:atox.obj
 0001:0002c488       ?get@?$c_string_character_source@D@__crt_strtox@@QEAADXZ 000000018002d488 f i libucrt:atox.obj
 0001:0002c494       ?get@?$c_string_character_source@_W@__crt_strtox@@QEAA_WXZ 000000018002d494 f i libucrt:atox.obj
 0001:0002c4a4       ?is_space@__crt_strtox@@YA_NDQEAU__crt_locale_pointers@@@Z 000000018002d4a4 f i libucrt:atox.obj
 0001:0002c4c4       ?is_space@__crt_strtox@@YA_N_WPEAU__crt_locale_pointers@@@Z 000000018002d4c4 f i libucrt:atox.obj
 0001:0002c4dc       ?maximum_signed_value@__crt_strtox@@YAJK@Z 000000018002d4dc f i libucrt:atox.obj
 0001:0002c4e4       ?maximum_signed_value@__crt_strtox@@YA_J_K@Z 000000018002d4e4 f i libucrt:atox.obj
 0001:0002c4f0       ?minimum_signed_value@__crt_strtox@@YAJK@Z 000000018002d4f0 f i libucrt:atox.obj
 0001:0002c4f8       ?minimum_signed_value@__crt_strtox@@YA_J_K@Z 000000018002d4f8 f i libucrt:atox.obj
 0001:0002c504       ?parse_digit@__crt_strtox@@YAID@Z 000000018002d504 f i libucrt:atox.obj
 0001:0002c534       ?parse_digit@__crt_strtox@@YAI_W@Z 000000018002d534 f i libucrt:atox.obj
 0001:0002c704       ?restore_state@?$c_string_character_source@D@__crt_strtox@@QEAA_NQEBD@Z 000000018002d704 f i libucrt:atox.obj
 0001:0002c70c       ?restore_state@?$c_string_character_source@_W@__crt_strtox@@QEAA_NQEB_W@Z 000000018002d70c f i libucrt:atox.obj
 0001:0002c714       ?save_state@?$c_string_character_source@D@__crt_strtox@@QEBAPEBDXZ 000000018002d714 f i libucrt:atox.obj
 0001:0002c718       ?save_state@?$c_string_character_source@_W@__crt_strtox@@QEBAPEB_WXZ 000000018002d718 f i libucrt:atox.obj
 0001:0002c71c       ?unget@?$c_string_character_source@D@__crt_strtox@@QEAAXD@Z 000000018002d71c f i libucrt:atox.obj
 0001:0002c748       ?unget@?$c_string_character_source@_W@__crt_strtox@@QEAAX_W@Z 000000018002d748 f i libucrt:atox.obj
 0001:0002c778       ?validate@?$c_string_character_source@D@__crt_strtox@@QEBA_NXZ 000000018002d778 f i libucrt:atox.obj
 0001:0002c7a0       ?validate@?$c_string_character_source@_W@__crt_strtox@@QEBA_NXZ 000000018002d7a0 f i libucrt:atox.obj
 0001:0002c7c8       ?wide_character_to_digit@__crt_strtox@@YAH_W@Z 000000018002d7c8 f i libucrt:atox.obj
 0001:0002c968       __acrt_get_locale_data_prefix 000000018002d968 f i libucrt:atox.obj
 0001:0002c96c       __ascii_iswalpha           000000018002d96c f i libucrt:atox.obj
 0001:0002c988       __ascii_toupper            000000018002d988 f i libucrt:atox.obj
 0001:0002c998       __ascii_towupper           000000018002d998 f i libucrt:atox.obj
 0001:0002c9a8       _atoi64                    000000018002d9a8 f   libucrt:atox.obj
 0001:0002c9d4       _atoi64_l                  000000018002d9d4 f   libucrt:atox.obj
 0001:0002ca04       _atoi_l                    000000018002da04 f   libucrt:atox.obj
 0001:0002ca34       _atol_l                    000000018002da34 f   libucrt:atox.obj
 0001:0002ca64       _atoll_l                   000000018002da64 f   libucrt:atox.obj
 0001:0002ca94       _chvalidchk_l              000000018002da94 f i libucrt:atox.obj
 0001:0002caf8       _ischartype_l              000000018002daf8 f i libucrt:atox.obj
 0001:0002cb70       _wtoi                      000000018002db70 f   libucrt:atox.obj
 0001:0002cb9c       _wtoi64                    000000018002db9c f   libucrt:atox.obj
 0001:0002cbc8       _wtoi64_l                  000000018002dbc8 f   libucrt:atox.obj
 0001:0002cbf8       _wtoi_l                    000000018002dbf8 f   libucrt:atox.obj
 0001:0002cc28       _wtol                      000000018002dc28 f   libucrt:atox.obj
 0001:0002cc54       _wtol_l                    000000018002dc54 f   libucrt:atox.obj
 0001:0002cc84       _wtoll                     000000018002dc84 f   libucrt:atox.obj
 0001:0002ccb0       _wtoll_l                   000000018002dcb0 f   libucrt:atox.obj
 0001:0002cce0       atoi                       000000018002dce0 f   libucrt:atox.obj
 0001:0002cd0c       atol                       000000018002dd0c f   libucrt:atox.obj
 0001:0002cd38       atoll                      000000018002dd38 f   libucrt:atox.obj
 0001:0002cd80       strncmp                    000000018002dd80 f   libucrt:strncmp.obj
 0001:0002ce00       calloc                     000000018002de00 f   libucrt:calloc.obj
 0001:0002ce08       wcsncmp                    000000018002de08 f   libucrt:wcsncmp.obj
 0001:0002ce34       ??$__crt_fast_decode_pointer@P6AXPEB_W00I_K@Z@@YAP6AXPEB_W00I_K@ZQ6AX000I1@Z@Z 000000018002de34 f i libucrt:invalid_parameter.obj
 0001:0002ce4c       ??$__crt_fast_encode_pointer@P6AXPEB_W00I_K@Z@@YAP6AXPEB_W00I_K@ZQ6AX000I1@Z@Z 000000018002de4c f i libucrt:invalid_parameter.obj
 0001:0002ce6c       ??$initialize_from_array@$$BY00Q6AXPEB_W00I_K@Z@?$dual_state_global@P6AXPEB_W00I_K@Z@__crt_state_management@@QEAAXAEAY00Q6AXPEB_W00I_K@Z@Z 000000018002de6c f i libucrt:invalid_parameter.obj
 0001:0002cee4       ?dangerous_get_state_array@?$dual_state_global@P6AXPEB_W00I_K@Z@__crt_state_management@@QEAAPEAP6AXPEB_W00I_K@ZXZ 000000018002dee4 f i libucrt:invalid_parameter.obj
 0001:0002cee8       ?value@?$dual_state_global@P6AXPEB_W00I_K@Z@__crt_state_management@@QEAAAEAP6AXPEB_W00I_K@ZXZ 000000018002dee8 f i libucrt:invalid_parameter.obj
 0001:0002ceec       __acrt_call_reportfault    000000018002deec f   libucrt:invalid_parameter.obj
 0001:0002d048       __acrt_initialize_invalid_parameter_handler 000000018002e048 f   libucrt:invalid_parameter.obj
 0001:0002d050       _get_invalid_parameter_handler 000000018002e050 f   libucrt:invalid_parameter.obj
 0001:0002d068       _get_thread_local_invalid_parameter_handler 000000018002e068 f   libucrt:invalid_parameter.obj
 0001:0002d084       _invalid_parameter         000000018002e084 f   libucrt:invalid_parameter.obj
 0001:0002d134       _invalid_parameter_noinfo  000000018002e134 f   libucrt:invalid_parameter.obj
 0001:0002d154       _invalid_parameter_noinfo_noreturn 000000018002e154 f   libucrt:invalid_parameter.obj
 0001:0002d184       _invoke_watson             000000018002e184 f   libucrt:invalid_parameter.obj
 0001:0002d1cc       _set_invalid_parameter_handler 000000018002e1cc f   libucrt:invalid_parameter.obj
 0001:0002d200       _set_thread_local_invalid_parameter_handler 000000018002e200 f   libucrt:invalid_parameter.obj
 0001:0002d228       __acrt_errno_from_os_error 000000018002e228 f   libucrt:errno.obj
 0001:0002d270       __acrt_errno_map_os_error  000000018002e270 f   libucrt:errno.obj
 0001:0002d2c0       __doserrno                 000000018002e2c0 f   libucrt:errno.obj
 0001:0002d2e0       _errno                     000000018002e2e0 f   libucrt:errno.obj
 0001:0002d300       _get_doserrno              000000018002e300 f   libucrt:errno.obj
 0001:0002d33c       _get_errno                 000000018002e33c f   libucrt:errno.obj
 0001:0002d378       _set_doserrno              000000018002e378 f   libucrt:errno.obj
 0001:0002d3b4       _set_errno                 000000018002e3b4 f   libucrt:errno.obj
 0001:0002d3f0       _calloc_base               000000018002e3f0 f   libucrt:calloc_base.obj
 0001:0002d470       _free_base                 000000018002e470 f   libucrt:free_base.obj
 0001:0002d4d8       ??$?B$$A6AHPEA_WK_J@Z@__crt_fast_encoded_nullptr_t@@QEBAP6AHPEA_WK_J@ZXZ 000000018002e4d8 f i libucrt:winapi_thunks.obj
 0001:0002d584       ??$__crt_fast_decode_pointer@P6AHPEA_WK_J@Z@@YAP6AHPEA_WK_J@ZQ6AH0K1@Z@Z 000000018002e584 f i libucrt:winapi_thunks.obj
 0001:0002d59c       ??$__crt_fast_decode_pointer@PEAX@@YAPEAXQEAX@Z 000000018002e59c f i libucrt:winapi_thunks.obj
 0001:0002d5b4       ??$__crt_fast_encode_pointer@P6AHPEA_WK_J@Z@@YAP6AHPEA_WK_J@ZQ6AH0K1@Z@Z 000000018002e5b4 f i libucrt:winapi_thunks.obj
 0001:0002e0b4       GetCurrentThreadEffectiveToken 000000018002f0b4 f i libucrt:winapi_thunks.obj
 0001:0002e0bc       __acrt_AppPolicyGetProcessTerminationMethodInternal 000000018002f0bc f   libucrt:winapi_thunks.obj
 0001:0002e10c       __acrt_AppPolicyGetShowDeveloperDiagnosticInternal 000000018002f10c f   libucrt:winapi_thunks.obj
 0001:0002e15c       __acrt_AppPolicyGetThreadInitializationTypeInternal 000000018002f15c f   libucrt:winapi_thunks.obj
 0001:0002e1ac       __acrt_AppPolicyGetWindowingModelInternal 000000018002f1ac f   libucrt:winapi_thunks.obj
 0001:0002e1fc       __acrt_AreFileApisANSI     000000018002f1fc f   libucrt:winapi_thunks.obj
 0001:0002e238       __acrt_CompareStringEx     000000018002f238 f   libucrt:winapi_thunks.obj
 0001:0002e314       __acrt_EnumSystemLocalesEx 000000018002f314 f   libucrt:winapi_thunks.obj
 0001:0002e3ac       __acrt_FlsAlloc            000000018002f3ac f   libucrt:winapi_thunks.obj
 0001:0002e3f4       __acrt_FlsFree             000000018002f3f4 f   libucrt:winapi_thunks.obj
 0001:0002e43c       __acrt_FlsGetValue         000000018002f43c f   libucrt:winapi_thunks.obj
 0001:0002e484       __acrt_FlsSetValue         000000018002f484 f   libucrt:winapi_thunks.obj
 0001:0002e4d8       __acrt_GetDateFormatEx     000000018002f4d8 f   libucrt:winapi_thunks.obj
 0001:0002e590       __acrt_GetEnabledXStateFeatures 000000018002f590 f   libucrt:winapi_thunks.obj
 0001:0002e5cc       __acrt_GetLocaleInfoEx     000000018002f5cc f   libucrt:winapi_thunks.obj
 0001:0002e650       __acrt_GetSystemTimePreciseAsFileTime 000000018002f650 f   libucrt:winapi_thunks.obj
 0001:0002e698       __acrt_GetTimeFormatEx     000000018002f698 f   libucrt:winapi_thunks.obj
 0001:0002e744       __acrt_GetUserDefaultLocaleName 000000018002f744 f   libucrt:winapi_thunks.obj
 0001:0002e7a8       __acrt_GetXStateFeaturesMask 000000018002f7a8 f   libucrt:winapi_thunks.obj
 0001:0002e7fc       __acrt_InitializeCriticalSectionEx 000000018002f7fc f   libucrt:winapi_thunks.obj
 0001:0002e860       __acrt_IsValidLocaleName   000000018002f860 f   libucrt:winapi_thunks.obj
 0001:0002e8b8       __acrt_LCIDToLocaleName    000000018002f8b8 f   libucrt:winapi_thunks.obj
 0001:0002e928       __acrt_LCMapStringEx       000000018002f928 f   libucrt:winapi_thunks.obj
 0001:0002ea04       __acrt_LocaleNameToLCID    000000018002fa04 f   libucrt:winapi_thunks.obj
 0001:0002ea54       __acrt_LocateXStateFeature 000000018002fa54 f   libucrt:winapi_thunks.obj
 0001:0002eab4       __acrt_MessageBoxA         000000018002fab4 f   libucrt:winapi_thunks.obj
 0001:0002eb28       __acrt_MessageBoxW         000000018002fb28 f   libucrt:winapi_thunks.obj
 0001:0002eb9c       __acrt_RoInitialize        000000018002fb9c f   libucrt:winapi_thunks.obj
 0001:0002ebdc       __acrt_RoUninitialize      000000018002fbdc f   libucrt:winapi_thunks.obj
 0001:0002ec10       __acrt_RtlGenRandom        000000018002fc10 f   libucrt:winapi_thunks.obj
 0001:0002ec60       __acrt_SetThreadStackGuarantee 000000018002fc60 f   libucrt:winapi_thunks.obj
 0001:0002eca4       __acrt_can_show_message_box 000000018002fca4 f   libucrt:winapi_thunks.obj
 0001:0002ed14       __acrt_can_use_vista_locale_apis 000000018002fd14 f   libucrt:winapi_thunks.obj
 0001:0002ed44       __acrt_can_use_xstate_apis 000000018002fd44 f   libucrt:winapi_thunks.obj
 0001:0002ed74       __acrt_eagerly_load_locale_apis 000000018002fd74 f   libucrt:winapi_thunks.obj
 0001:0002eed0       __acrt_get_parent_window   000000018002fed0 f   libucrt:winapi_thunks.obj
 0001:0002ef48       __acrt_initialize_winapi_thunks 000000018002ff48 f   libucrt:winapi_thunks.obj
 0001:0002ef7c       __acrt_is_interactive      000000018002ff7c f   libucrt:winapi_thunks.obj
 0001:0002f044       __acrt_uninitialize_winapi_thunks 0000000180030044 f   libucrt:winapi_thunks.obj
 0001:0002f088       ??0__crt_stdio_stream@@QEAA@QEAU__crt_stdio_stream_data@@@Z 0000000180030088 f i libucrt:closeall.obj
 0001:0002f090       _fcloseall                 0000000180030090 f   libucrt:closeall.obj
 0001:0002f54c       ?__acrt_stdio_reset_buffer@@YAXV__crt_stdio_stream@@@Z 000000018003054c f i libucrt:fflush.obj
 0001:0002f5ec       ?has_all_of@__crt_stdio_stream@@QEBA_NJ@Z 00000001800305ec f i libucrt:fflush.obj
 0001:0002f638       __acrt_stdio_flush_nolock  0000000180030638 f   libucrt:fflush.obj
 0001:0002f6b4       _fflush_nolock             00000001800306b4 f   libucrt:fflush.obj
 0001:0002f700       _flushall                  0000000180030700 f   libucrt:fflush.obj
 0001:0002f708       fflush                     0000000180030708 f   libucrt:fflush.obj
 0001:0002f770       ?has_any_of@__crt_stdio_stream@@QEBA_NJ@Z 0000000180030770 f i libucrt:_freebuf.obj
 0001:0002f77c       ?has_crt_buffer@__crt_stdio_stream@@QEBA_NXZ 000000018003077c f i libucrt:_freebuf.obj
 0001:0002f788       __acrt_stdio_free_buffer_nolock 0000000180030788 f   libucrt:_freebuf.obj
 0001:0002f9e0       __acrt_initialize_lowio    00000001800309e0 f   libucrt:ioinit.obj
 0001:0002fa1c       __acrt_uninitialize_lowio  0000000180030a1c f   libucrt:ioinit.obj
 0001:0002fbec       _close                     0000000180030bec f   libucrt:close.obj
 0001:0002fc90       _close_nolock              0000000180030c90 f   libucrt:close.obj
 0001:0002fd50       ?lowio_handle@__crt_stdio_stream@@QEBAHXZ 0000000180030d50 f i libucrt:fileno.obj
 0001:0002fd58       _fileno                    0000000180030d58 f   libucrt:fileno.obj
 0001:0002fd80       ??$?RU__crt_stdio_stream_data@@@__crt_internal_free_policy@@QEBAXQEBU__crt_stdio_stream_data@@@Z 0000000180030d80 f i libucrt:stream.obj
 0001:0002fd88       ??0?$__crt_unique_heap_ptr@U__crt_stdio_stream_data@@U__crt_internal_free_policy@@@@QEAA@QEAU__crt_stdio_stream_data@@@Z 0000000180030d88 f i libucrt:stream.obj
 0001:0002fd90       ??0__crt_stdio_stream@@QEAA@XZ 0000000180030d90 f i libucrt:stream.obj
 0001:0002fd98       ??1?$__crt_unique_heap_ptr@U__crt_stdio_stream_data@@U__crt_internal_free_policy@@@@QEAA@XZ 0000000180030d98 f i libucrt:stream.obj
 0001:0002fdb4       ?__acrt_stdio_allocate_stream@@YA?AV__crt_stdio_stream@@XZ 0000000180030db4 f   libucrt:stream.obj
 0001:0002fe0c       ?__acrt_stdio_free_stream@@YAXV__crt_stdio_stream@@@Z 0000000180030e0c f   libucrt:stream.obj
 0001:0002fe28       ?deallocate@__crt_stdio_stream@@QEAAXXZ 0000000180030e28 f i libucrt:stream.obj
 0001:0002fe34       ?detach@?$__crt_unique_heap_ptr@U__crt_stdio_stream_data@@U__crt_internal_free_policy@@@@QEAAPEAU__crt_stdio_stream_data@@XZ 0000000180030e34 f i libucrt:stream.obj
 0001:0002ff28       ?lock@__crt_stdio_stream@@QEBAXXZ 0000000180030f28 f i libucrt:stream.obj
 0001:0002ff30       ?release@?$__crt_unique_heap_ptr@U__crt_stdio_stream_data@@U__crt_internal_free_policy@@@@QEAAXXZ 0000000180030f30 f i libucrt:stream.obj
 0001:0002ff4c       ?try_allocate@__crt_stdio_stream@@QEAA_NXZ 0000000180030f4c f i libucrt:stream.obj
 0001:0002ff6c       ??$__acrt_stdio_parse_mode@D@@YA?AU__acrt_stdio_stream_mode@@QEBD@Z 0000000180030f6c f i libucrt:openfile.obj
 0001:0003022c       ??$__acrt_stdio_parse_mode@_W@@YA?AU__acrt_stdio_stream_mode@@QEB_W@Z 000000018003122c f i libucrt:openfile.obj
 0001:0003065c       ??$tcsncmp@AEAPEBDAEAY02$$CBD_K@?$__crt_char_traits@D@@SAHAEAPEBDAEAY02$$CBD$$QEA_K@Z 000000018003165c f i libucrt:openfile.obj
 0001:00030668       ??$tcsncmp@AEAPEB_WAEAY02$$CB_W_K@?$__crt_char_traits@_W@@SAHAEAPEB_WAEAY02$$CB_W$$QEA_K@Z 0000000180031668 f i libucrt:openfile.obj
 0001:00030674       ??$tcsnicmp@AEAPEBDAEAY04$$CBD_K@?$__crt_char_traits@D@@SAHAEAPEBDAEAY04$$CBD$$QEA_K@Z 0000000180031674 f i libucrt:openfile.obj
 0001:00030680       ??$tcsnicmp@AEAPEBDAEAY06$$CBD_K@?$__crt_char_traits@D@@SAHAEAPEBDAEAY06$$CBD$$QEA_K@Z 0000000180031680 f i libucrt:openfile.obj
 0001:0003068c       ??$tcsnicmp@AEAPEBDAEAY07$$CBD_K@?$__crt_char_traits@D@@SAHAEAPEBDAEAY07$$CBD$$QEA_K@Z 000000018003168c f i libucrt:openfile.obj
 0001:00030698       ??$tcsnicmp@AEAPEB_WAEAY04$$CB_W_K@?$__crt_char_traits@_W@@SAHAEAPEB_WAEAY04$$CB_W$$QEA_K@Z 0000000180031698 f i libucrt:openfile.obj
 0001:000306a4       ??$tcsnicmp@AEAPEB_WAEAY06$$CB_W_K@?$__crt_char_traits@_W@@SAHAEAPEB_WAEAY06$$CB_W$$QEA_K@Z 00000001800316a4 f i libucrt:openfile.obj
 0001:000306b0       ??$tcsnicmp@AEAPEB_WAEAY07$$CB_W_K@?$__crt_char_traits@_W@@SAHAEAPEB_WAEAY07$$CB_W$$QEA_K@Z 00000001800316b0 f i libucrt:openfile.obj
 0001:000306bc       ??$tsopen_s@PEAHAEBQEBDAEBHAEBHH@?$__crt_char_traits@D@@SAH$$QEAPEAHAEBQEBDAEBH2$$QEAH@Z 00000001800316bc f i libucrt:openfile.obj
 0001:000306dc       ??$tsopen_s@PEAHAEBQEB_WAEBHAEBHH@?$__crt_char_traits@_W@@SAH$$QEAPEAHAEBQEB_WAEBH2$$QEAH@Z 00000001800316dc f i libucrt:openfile.obj
 0001:000306fc       ?__acrt_stdio_parse_mode_D@@YA_NAEAU__acrt_stdio_stream_mode@@@Z 00000001800316fc f i libucrt:openfile.obj
 0001:00030710       ?__acrt_stdio_parse_mode_N@@YA_NAEAU__acrt_stdio_stream_mode@@@Z 0000000180031710 f i libucrt:openfile.obj
 0001:00030718       ?__acrt_stdio_parse_mode_R@@YA_NAEAU__acrt_stdio_stream_mode@@AEA_N@Z 0000000180031718 f i libucrt:openfile.obj
 0001:0003072c       ?__acrt_stdio_parse_mode_S@@YA_NAEAU__acrt_stdio_stream_mode@@AEA_N@Z 000000018003172c f i libucrt:openfile.obj
 0001:00030740       ?__acrt_stdio_parse_mode_T@@YA_NAEAU__acrt_stdio_stream_mode@@@Z 0000000180031740 f i libucrt:openfile.obj
 0001:00030758       ?__acrt_stdio_parse_mode_b@@YA_NAEAU__acrt_stdio_stream_mode@@@Z 0000000180031758 f i libucrt:openfile.obj
 0001:00030770       ?__acrt_stdio_parse_mode_c@@YA_NAEAU__acrt_stdio_stream_mode@@AEA_N@Z 0000000180031770 f i libucrt:openfile.obj
 0001:00030784       ?__acrt_stdio_parse_mode_n@@YA_NAEAU__acrt_stdio_stream_mode@@AEA_N@Z 0000000180031784 f i libucrt:openfile.obj
 0001:00030798       ?__acrt_stdio_parse_mode_plus@@YA_NAEAU__acrt_stdio_stream_mode@@AEA_N@Z 0000000180031798 f i libucrt:openfile.obj
 0001:000307c8       ?__acrt_stdio_parse_mode_t@@YA_NAEAU__acrt_stdio_stream_mode@@@Z 00000001800317c8 f i libucrt:openfile.obj
 0001:000307e0       ?__acrt_stdio_parse_mode_x@@YA_NAEAU__acrt_stdio_stream_mode@@@Z 00000001800317e0 f i libucrt:openfile.obj
 0001:000307f4       _openfile                  00000001800317f4 f   libucrt:openfile.obj
 0001:00030890       _wopenfile                 0000000180031890 f   libucrt:openfile.obj
 0001:0003092c       _malloc_base               000000018003192c f   libucrt:malloc_base.obj
 0001:0003098c       ??$make_c_string_character_source@DPEAPEAD@__crt_strtox@@YA?AV?$c_string_character_source@D@0@QEBDQEAPEAD@Z 000000018003198c f i libucrt:strtox.obj
 0001:000309a0       ??$make_c_string_character_source@_WPEAPEA_W@__crt_strtox@@YA?AV?$c_string_character_source@_W@0@QEB_WQEAPEA_W@Z 00000001800319a0 f i libucrt:strtox.obj
 0001:000309b4       ??$parse_integer_from_string@JDPEAPEAD@__crt_strtox@@YAJQEBDQEAPEADHQEAU__crt_locale_pointers@@@Z 00000001800319b4 f i libucrt:strtox.obj
 0001:000309e4       ??$parse_integer_from_string@J_WPEAPEA_W@__crt_strtox@@YAJQEB_WQEAPEA_WHQEAU__crt_locale_pointers@@@Z 00000001800319e4 f i libucrt:strtox.obj
 0001:00030a14       ??$parse_integer_from_string@KDPEAPEAD@__crt_strtox@@YAKQEBDQEAPEADHQEAU__crt_locale_pointers@@@Z 0000000180031a14 f i libucrt:strtox.obj
 0001:00030a44       ??$parse_integer_from_string@K_WPEAPEA_W@__crt_strtox@@YAKQEB_WQEAPEA_WHQEAU__crt_locale_pointers@@@Z 0000000180031a44 f i libucrt:strtox.obj
 0001:00030a74       ??$parse_integer_from_string@_JDPEAPEAD@__crt_strtox@@YA_JQEBDQEAPEADHQEAU__crt_locale_pointers@@@Z 0000000180031a74 f i libucrt:strtox.obj
 0001:00030aa4       ??$parse_integer_from_string@_J_WPEAPEA_W@__crt_strtox@@YA_JQEB_WQEAPEA_WHQEAU__crt_locale_pointers@@@Z 0000000180031aa4 f i libucrt:strtox.obj
 0001:00030ad4       ??$parse_integer_from_string@_KDPEAPEAD@__crt_strtox@@YA_KQEBDQEAPEADHQEAU__crt_locale_pointers@@@Z 0000000180031ad4 f i libucrt:strtox.obj
 0001:00030b04       ??$parse_integer_from_string@_K_WPEAPEA_W@__crt_strtox@@YA_KQEB_WQEAPEA_WHQEAU__crt_locale_pointers@@@Z 0000000180031b04 f i libucrt:strtox.obj
 0001:00030b34       _strtoi64                  0000000180031b34 f   libucrt:strtox.obj
 0001:00030b60       _strtoi64_l                0000000180031b60 f   libucrt:strtox.obj
 0001:00030b90       _strtoimax_l               0000000180031b90 f   libucrt:strtox.obj
 0001:00030bc0       _strtol_l                  0000000180031bc0 f   libucrt:strtox.obj
 0001:00030bf0       _strtoll_l                 0000000180031bf0 f   libucrt:strtox.obj
 0001:00030c20       _strtoui64                 0000000180031c20 f   libucrt:strtox.obj
 0001:00030c4c       _strtoui64_l               0000000180031c4c f   libucrt:strtox.obj
 0001:00030c7c       _strtoul_l                 0000000180031c7c f   libucrt:strtox.obj
 0001:00030cac       _strtoull_l                0000000180031cac f   libucrt:strtox.obj
 0001:00030cdc       _strtoumax_l               0000000180031cdc f   libucrt:strtox.obj
 0001:00030d0c       _wcstoi64                  0000000180031d0c f   libucrt:strtox.obj
 0001:00030d38       _wcstoi64_l                0000000180031d38 f   libucrt:strtox.obj
 0001:00030d68       _wcstoimax_l               0000000180031d68 f   libucrt:strtox.obj
 0001:00030d98       _wcstol_l                  0000000180031d98 f   libucrt:strtox.obj
 0001:00030dc8       _wcstoll_l                 0000000180031dc8 f   libucrt:strtox.obj
 0001:00030df8       _wcstoui64                 0000000180031df8 f   libucrt:strtox.obj
 0001:00030e24       _wcstoui64_l               0000000180031e24 f   libucrt:strtox.obj
 0001:00030e54       _wcstoul_l                 0000000180031e54 f   libucrt:strtox.obj
 0001:00030e84       _wcstoull_l                0000000180031e84 f   libucrt:strtox.obj
 0001:00030eb4       _wcstoumax_l               0000000180031eb4 f   libucrt:strtox.obj
 0001:00030ee4       strtoimax                  0000000180031ee4 f   libucrt:strtox.obj
 0001:00030f10       strtol                     0000000180031f10 f   libucrt:strtox.obj
 0001:00030f3c       strtoll                    0000000180031f3c f   libucrt:strtox.obj
 0001:00030f68       strtoul                    0000000180031f68 f   libucrt:strtox.obj
 0001:00030f94       strtoull                   0000000180031f94 f   libucrt:strtox.obj
 0001:00030fc0       strtoumax                  0000000180031fc0 f   libucrt:strtox.obj
 0001:00030fec       wcstoimax                  0000000180031fec f   libucrt:strtox.obj
 0001:00031018       wcstol                     0000000180032018 f   libucrt:strtox.obj
 0001:00031044       wcstoll                    0000000180032044 f   libucrt:strtox.obj
 0001:00031070       wcstoul                    0000000180032070 f   libucrt:strtox.obj
 0001:0003109c       wcstoull                   000000018003209c f   libucrt:strtox.obj
 0001:000310c8       wcstoumax                  00000001800320c8 f   libucrt:strtox.obj
 0001:000310f4       _mbtowc_l                  00000001800320f4 f   libucrt:mbtowc.obj
 0001:00031274       mbtowc                     0000000180032274 f   libucrt:mbtowc.obj
 0001:0003127c       _wctomb_l                  000000018003227c f   libucrt:wctomb.obj
 0001:000312f0       _wctomb_s_l                00000001800322f0 f   libucrt:wctomb.obj
 0001:0003148c       wctomb                     000000018003248c f   libucrt:wctomb.obj
 0001:000314dc       wctomb_s                   00000001800324dc f   libucrt:wctomb.obj
 0001:00031da4       ??1?$__crt_simd_cleanup_guard@$00@@QEAA@XZ 0000000180032da4 f i libucrt:strnlen.obj
 0001:00031da8       ??1?$__crt_simd_cleanup_guard@$0A@@@QEAA@XZ 0000000180032da8 f i libucrt:strnlen.obj
 0001:00031dac       ?compare_equals@?$__crt_simd_traits@$00E@@SA?AT__m256i@@T2@0@Z 0000000180032dac f i libucrt:strnlen.obj
 0001:00031db8       ?compare_equals@?$__crt_simd_traits@$00G@@SA?AT__m256i@@T2@0@Z 0000000180032db8 f i libucrt:strnlen.obj
 0001:00031dc4       ?compare_equals@?$__crt_simd_traits@$0A@E@@SA?AT__m128i@@T2@0@Z 0000000180032dc4 f i libucrt:strnlen.obj
 0001:00031dd0       ?compare_equals@?$__crt_simd_traits@$0A@G@@SA?AT__m128i@@T2@0@Z 0000000180032dd0 f i libucrt:strnlen.obj
 0001:00031ddc       ?compute_byte_mask@?$__crt_simd_pack_traits@$00@@SAHT__m256i@@@Z 0000000180032ddc f i libucrt:strnlen.obj
 0001:00031de8       ?compute_byte_mask@?$__crt_simd_pack_traits@$0A@@@SAHT__m128i@@@Z 0000000180032de8 f i libucrt:strnlen.obj
 0001:00031df4       ?get_zero_pack@?$__crt_simd_pack_traits@$00@@SA?AT__m256i@@XZ 0000000180032df4 f i libucrt:strnlen.obj
 0001:00031dfc       ?get_zero_pack@?$__crt_simd_pack_traits@$0A@@@SA?AT__m128i@@XZ 0000000180032dfc f i libucrt:strnlen.obj
 0001:00031e00       strnlen                    0000000180032e00 f   libucrt:strnlen.obj
 0001:00031f50       wcslen                     0000000180032f50 f   libucrt:strnlen.obj
 0001:0003207c       wcsnlen                    000000018003307c f   libucrt:strnlen.obj
 0001:00032254       ??$?RU__acrt_ptd@@@__crt_internal_free_policy@@QEBAXQEBU__acrt_ptd@@@Z 0000000180033254 f i libucrt:per_thread_data.obj
 0001:00032488       ??0?$__crt_unique_heap_ptr@U__acrt_ptd@@U__crt_internal_free_policy@@@@QEAA@QEAU__acrt_ptd@@@Z 0000000180033488 f i libucrt:per_thread_data.obj
 0001:00032490       ??0__crt_scoped_get_last_error_reset@@QEAA@XZ 0000000180033490 f i libucrt:per_thread_data.obj
 0001:000324ac       ??1?$__crt_unique_heap_ptr@U__acrt_ptd@@U__crt_internal_free_policy@@@@QEAA@XZ 00000001800334ac f i libucrt:per_thread_data.obj
 0001:000324c8       ??1__crt_scoped_get_last_error_reset@@QEAA@XZ 00000001800334c8 f i libucrt:per_thread_data.obj
 0001:000324d4       ??B?$__crt_unique_heap_ptr@U__acrt_ptd@@U__crt_internal_free_policy@@@@QEBA_NXZ 00000001800334d4 f i libucrt:per_thread_data.obj
 0001:00032728       ?dangerous_get_state_array@?$dual_state_global@PEAU__crt_locale_data@@@__crt_state_management@@QEAAPEAPEAU__crt_locale_data@@XZ 0000000180033728 f i libucrt:per_thread_data.obj
 0001:0003293c       ?detach@?$__crt_unique_heap_ptr@U__acrt_ptd@@U__crt_internal_free_policy@@@@QEAAPEAU__acrt_ptd@@XZ 000000018003393c f i libucrt:per_thread_data.obj
 0001:00032944       ?get@?$__crt_unique_heap_ptr@U__acrt_ptd@@U__crt_internal_free_policy@@@@QEBAPEAU__acrt_ptd@@XZ 0000000180033944 f i libucrt:per_thread_data.obj
 0001:00032948       ?get_current_state_index@__crt_state_management@@YA_KAEBV__crt_scoped_get_last_error_reset@@@Z 0000000180033948 f i libucrt:per_thread_data.obj
 0001:00032ab4       ?is_valid@?$__crt_unique_heap_ptr@U__acrt_ptd@@U__crt_internal_free_policy@@@@QEBA_NXZ 0000000180033ab4 f i libucrt:per_thread_data.obj
 0001:00032abc       ?release@?$__crt_unique_heap_ptr@U__acrt_ptd@@U__crt_internal_free_policy@@@@QEAAXXZ 0000000180033abc f i libucrt:per_thread_data.obj
 0001:00032b60       ?value@?$dual_state_global@PEAU__crt_locale_data@@@__crt_state_management@@QEAAAEAPEAU__crt_locale_data@@XZ 0000000180033b60 f i libucrt:per_thread_data.obj
 0001:00032b64       __acrt_freeptd             0000000180033b64 f   libucrt:per_thread_data.obj
 0001:00032ba8       __acrt_getptd              0000000180033ba8 f   libucrt:per_thread_data.obj
 0001:00032c7c       __acrt_getptd_head         0000000180033c7c f   libucrt:per_thread_data.obj
 0001:00032d24       __acrt_getptd_noexit       0000000180033d24 f   libucrt:per_thread_data.obj
 0001:00032df0       __acrt_initialize_ptd      0000000180033df0 f   libucrt:per_thread_data.obj
 0001:00032e2c       __acrt_uninitialize_ptd    0000000180033e2c f   libucrt:per_thread_data.obj
 0001:00032e50       __threadhandle             0000000180033e50 f   libucrt:per_thread_data.obj
 0001:00032e58       __threadid                 0000000180033e58 f   libucrt:per_thread_data.obj
 0001:00032e60       ?value@?$dual_state_global@PEAU__crt_multibyte_data@@@__crt_state_management@@QEAAAEAPEAU__crt_multibyte_data@@XZ 0000000180033e60 f i libucrt:locale_update.obj
 0001:00032e64       __acrt_update_locale_info  0000000180033e64 f   libucrt:locale_update.obj
 0001:00032e98       __acrt_update_multibyte_info 0000000180033e98 f   libucrt:locale_update.obj
 0001:00032ecc       ?__acrt_fp_classify@@YA?AW4__acrt_fp_class@@AEBN@Z 0000000180033ecc f i libucrt:cvt.obj
 0001:00032f28       ?__acrt_fp_is_negative@@YA_NAEBN@Z 0000000180033f28 f i libucrt:cvt.obj
 0001:00033948       ?strrchr@@YAPEADQEADH@Z    0000000180034948 f i libucrt:cvt.obj
 0001:00033950       __acrt_fp_format           0000000180034950 f   libucrt:cvt.obj
 0001:00033c70       _fputwc_nolock             0000000180034c70 f   libucrt:fputwc.obj
 0001:00033dec       _fputwchar                 0000000180034dec f   libucrt:fputwc.obj
 0001:00033e10       _putwc_nolock              0000000180034e10 f   libucrt:fputwc.obj
 0001:00033e18       fputwc                     0000000180034e18 f   libucrt:fputwc.obj
 0001:00033e78       putwc                      0000000180034e78 f   libucrt:fputwc.obj
 0001:00033e80       putwchar                   0000000180034e80 f   libucrt:fputwc.obj
 0001:00033e88       _fputc_nolock              0000000180034e88 f   libucrt:fputc.obj
 0001:00033ea0       _fputchar                  0000000180034ea0 f   libucrt:fputc.obj
 0001:00033ec4       _putc_nolock               0000000180034ec4 f   libucrt:fputc.obj
 0001:00033edc       fputc                      0000000180034edc f   libucrt:fputc.obj
 0001:00034000       putc                       0000000180035000 f   libucrt:fputc.obj
 0001:00034008       putchar                    0000000180035008 f   libucrt:fputc.obj
 0001:00034010       _get_printf_count_output   0000000180035010 f   libucrt:printf_count_output.obj
 0001:00034028       _set_printf_count_output   0000000180035028 f   libucrt:printf_count_output.obj
 0001:00034050       ?has_any_buffer@__crt_stdio_stream@@QEBA_NXZ 0000000180035050 f i libucrt:_sftbuf.obj
 0001:00034060       ?has_temporary_buffer@__crt_stdio_stream@@QEBA_NXZ 0000000180035060 f i libucrt:_sftbuf.obj
 0001:0003406c       __acrt_stdio_begin_temporary_buffering_nolock 000000018003506c f   libucrt:_sftbuf.obj
 0001:0003413c       __acrt_stdio_end_temporary_buffering_nolock 000000018003513c f   libucrt:_sftbuf.obj
 0001:0003417c       ??$?RU__crt_locale_data@@@__crt_internal_free_policy@@QEBAXQEBU__crt_locale_data@@@Z 000000018003517c f i libucrt:wsetlocale.obj
 0001:00034184       ??$?RU__crt_locale_pointers@@@__crt_internal_free_policy@@QEBAXQEBU__crt_locale_pointers@@@Z 0000000180035184 f i libucrt:wsetlocale.obj
 0001:0003418c       ??$?RU__crt_multibyte_data@@@__crt_internal_free_policy@@QEBAXQEBU__crt_multibyte_data@@@Z 000000018003518c f i libucrt:wsetlocale.obj
 0001:00034598       ??0?$__crt_unique_heap_ptr@U__crt_locale_data@@U__crt_internal_free_policy@@@@QEAA@QEAU__crt_locale_data@@@Z 0000000180035598 f i libucrt:wsetlocale.obj
 0001:000345a0       ??0?$__crt_unique_heap_ptr@U__crt_locale_pointers@@U__crt_internal_free_policy@@@@QEAA@QEAU__crt_locale_pointers@@@Z 00000001800355a0 f i libucrt:wsetlocale.obj
 0001:000345a8       ??0?$__crt_unique_heap_ptr@U__crt_multibyte_data@@U__crt_internal_free_policy@@@@QEAA@QEAU__crt_multibyte_data@@@Z 00000001800355a8 f i libucrt:wsetlocale.obj
 0001:000345b0       ??0_expandlocale_locale_name_cache@@QEAA@QEA_W_KQEAU__crt_qualified_locale_data@@@Z 00000001800355b0 f i libucrt:wsetlocale.obj
 0001:0003460c       ??1?$__crt_unique_heap_ptr@U__crt_locale_data@@U__crt_internal_free_policy@@@@QEAA@XZ 000000018003560c f i libucrt:wsetlocale.obj
 0001:00034628       ??1?$__crt_unique_heap_ptr@U__crt_locale_pointers@@U__crt_internal_free_policy@@@@QEAA@XZ 0000000180035628 f i libucrt:wsetlocale.obj
 0001:00034644       ??1?$__crt_unique_heap_ptr@U__crt_multibyte_data@@U__crt_internal_free_policy@@@@QEAA@XZ 0000000180035644 f i libucrt:wsetlocale.obj
 0001:00034660       ??1_expandlocale_locale_name_cache@@QEAA@XZ 0000000180035660 f i libucrt:wsetlocale.obj
 0001:000346a8       ??B?$__crt_unique_heap_ptr@U__crt_locale_data@@U__crt_internal_free_policy@@@@QEBA_NXZ 00000001800356a8 f i libucrt:wsetlocale.obj
 0001:000346b0       ??B?$__crt_unique_heap_ptr@U__crt_locale_pointers@@U__crt_internal_free_policy@@@@QEBA_NXZ 00000001800356b0 f i libucrt:wsetlocale.obj
 0001:000346b8       ??B?$__crt_unique_heap_ptr@U__crt_multibyte_data@@U__crt_internal_free_policy@@@@QEBA_NXZ 00000001800356b8 f i libucrt:wsetlocale.obj
 0001:00034938       ?commit_locale_name@_expandlocale_locale_name_cache@@QEAAXQEB_W_K@Z 0000000180035938 f i libucrt:wsetlocale.obj
 0001:000349b0       ?commit_locale_name_cache_already_updated@_expandlocale_locale_name_cache@@QEAAXQEB_W_K@Z 00000001800359b0 f i libucrt:wsetlocale.obj
 0001:000349f0       ?detach@?$__crt_unique_heap_ptr@U__crt_locale_data@@U__crt_internal_free_policy@@@@QEAAPEAU__crt_locale_data@@XZ 00000001800359f0 f i libucrt:wsetlocale.obj
 0001:000349f8       ?detach@?$__crt_unique_heap_ptr@U__crt_locale_pointers@@U__crt_internal_free_policy@@@@QEAAPEAU__crt_locale_pointers@@XZ 00000001800359f8 f i libucrt:wsetlocale.obj
 0001:00034a00       ?detach@?$__crt_unique_heap_ptr@U__crt_multibyte_data@@U__crt_internal_free_policy@@@@QEAAPEAU__crt_multibyte_data@@XZ 0000000180035a00 f i libucrt:wsetlocale.obj
 0001:00034a08       ?get@?$__crt_unique_heap_ptr@U__crt_locale_data@@U__crt_internal_free_policy@@@@QEBAPEAU__crt_locale_data@@XZ 0000000180035a08 f i libucrt:wsetlocale.obj
 0001:00034a0c       ?get@?$__crt_unique_heap_ptr@U__crt_locale_pointers@@U__crt_internal_free_policy@@@@QEBAPEAU__crt_locale_pointers@@XZ 0000000180035a0c f i libucrt:wsetlocale.obj
 0001:00034a10       ?get@?$__crt_unique_heap_ptr@U__crt_multibyte_data@@U__crt_internal_free_policy@@@@QEBAPEAU__crt_multibyte_data@@XZ 0000000180035a10 f i libucrt:wsetlocale.obj
 0001:00034a14       ?is_valid@?$__crt_unique_heap_ptr@U__crt_locale_data@@U__crt_internal_free_policy@@@@QEBA_NXZ 0000000180035a14 f i libucrt:wsetlocale.obj
 0001:00034a1c       ?is_valid@?$__crt_unique_heap_ptr@U__crt_locale_pointers@@U__crt_internal_free_policy@@@@QEBA_NXZ 0000000180035a1c f i libucrt:wsetlocale.obj
 0001:00034a24       ?is_valid@?$__crt_unique_heap_ptr@U__crt_multibyte_data@@U__crt_internal_free_policy@@@@QEBA_NXZ 0000000180035a24 f i libucrt:wsetlocale.obj
 0001:00034a2c       ?release@?$__crt_unique_heap_ptr@U__crt_locale_data@@U__crt_internal_free_policy@@@@QEAAXXZ 0000000180035a2c f i libucrt:wsetlocale.obj
 0001:00034a48       ?release@?$__crt_unique_heap_ptr@U__crt_locale_pointers@@U__crt_internal_free_policy@@@@QEAAXXZ 0000000180035a48 f i libucrt:wsetlocale.obj
 0001:00034a64       ?release@?$__crt_unique_heap_ptr@U__crt_multibyte_data@@U__crt_internal_free_policy@@@@QEAAXXZ 0000000180035a64 f i libucrt:wsetlocale.obj
 0001:00034a80       __acrt_copy_locale_name    0000000180035a80 f   libucrt:wsetlocale.obj
 0001:00034b04       __acrt_set_locale_changed  0000000180035b04 f   libucrt:wsetlocale.obj
 0001:00034b10       __acrt_uninitialize_locale 0000000180035b10 f   libucrt:wsetlocale.obj
 0001:00034b40       __ascii_tolower            0000000180035b40 f i libucrt:wsetlocale.obj
 0001:00034b50       __ascii_towlower           0000000180035b50 f i libucrt:wsetlocale.obj
 0001:00034b60       __lc_lctowcs               0000000180035b60 f   libucrt:wsetlocale.obj
 0001:00034c04       __lc_wcstolc               0000000180035c04 f   libucrt:wsetlocale.obj
 0001:00034d6c       _configthreadlocale        0000000180035d6c f   libucrt:wsetlocale.obj
 0001:00034e98       _create_locale             0000000180035e98 f   libucrt:wsetlocale.obj
 0001:00035390       _free_locale               0000000180036390 f   libucrt:wsetlocale.obj
 0001:00035434       _get_current_locale        0000000180036434 f   libucrt:wsetlocale.obj
 0001:000354f0       _wcreate_locale            00000001800364f0 f   libucrt:wsetlocale.obj
 0001:00035638       _wcscats                   0000000180036638 f   libucrt:wsetlocale.obj
 0001:000356a0       _wsetlocale                00000001800366a0 f   libucrt:wsetlocale.obj
 0001:000364f4       __p___mb_cur_max           00000001800374f4 f   libucrt:nlsdata.obj
 0001:00036524       __acrt_initialize_locks    0000000180037524 f   libucrt:locks.obj
 0001:0003656c       __acrt_lock                000000018003756c f   libucrt:locks.obj
 0001:00036588       __acrt_uninitialize_locks  0000000180037588 f   libucrt:locks.obj
 0001:000365c0       __acrt_unlock              00000001800375c0 f   libucrt:locks.obj
 0001:000365dc       _lock_locales              00000001800375dc f   libucrt:locks.obj
 0001:000365f8       _unlock_locales            00000001800375f8 f   libucrt:locks.obj
 0001:000367b0       __acrt_get_begin_thread_init_policy 00000001800377b0 f   libucrt:win_policies.obj
 0001:00036804       __acrt_get_developer_information_policy 0000000180037804 f   libucrt:win_policies.obj
 0001:00036858       __acrt_get_process_end_policy 0000000180037858 f   libucrt:win_policies.obj
 0001:00036894       __acrt_get_windowing_model_policy 0000000180037894 f   libucrt:win_policies.obj
 0001:00036c30       ??$__acrt_mbs_to_wcs_cp@U__crt_win32_buffer_internal_dynamic_resizing@@@@YAHQEBDAEAV?$__crt_win32_buffer@_WU__crt_win32_buffer_internal_dynamic_resizing@@@@I@Z 0000000180037c30 f i libucrt:argv_wildcards.obj
 0001:00036da8       ??$__acrt_wcs_to_mbs_cp@U__crt_win32_buffer_internal_dynamic_resizing@@@@YAHQEB_WAEAV?$__crt_win32_buffer@DU__crt_win32_buffer_internal_dynamic_resizing@@@@I@Z 0000000180037da8 f i libucrt:argv_wildcards.obj
 0001:00037ccc       ??$tcslen@AEBQEBD@?$__crt_char_traits@D@@SA_KAEBQEBD@Z 0000000180038ccc f i libucrt:argv_wildcards.obj
 0001:00037ce0       ??$tcslen@AEBQEB_W@?$__crt_char_traits@_W@@SA_KAEBQEB_W@Z 0000000180038ce0 f i libucrt:argv_wildcards.obj
 0001:00037cf4       ??$tcsncpy_s@AEAPEAD_KAEAPEADAEB_K@?$__crt_char_traits@D@@SAHAEAPEAD$$QEA_K0AEB_K@Z 0000000180038cf4 f i libucrt:argv_wildcards.obj
 0001:00037d08       ??$tcsncpy_s@AEAPEA_W_KAEAPEA_WAEB_K@?$__crt_char_traits@_W@@SAHAEAPEA_W$$QEA_K0AEB_K@Z 0000000180038d08 f i libucrt:argv_wildcards.obj
 0001:00037d1c       ??$tcsncpy_s@PEADAEB_KAEBQEBDAEB_K@?$__crt_char_traits@D@@SAH$$QEAPEADAEB_KAEBQEBD1@Z 0000000180038d1c f i libucrt:argv_wildcards.obj
 0001:00037d30       ??$tcsncpy_s@PEAD_KAEBQEBDAEB_K@?$__crt_char_traits@D@@SAH$$QEAPEAD$$QEA_KAEBQEBDAEB_K@Z 0000000180038d30 f i libucrt:argv_wildcards.obj
 0001:00037d44       ??$tcsncpy_s@PEA_WAEB_KAEBQEB_WAEB_K@?$__crt_char_traits@_W@@SAH$$QEAPEA_WAEB_KAEBQEB_W1@Z 0000000180038d44 f i libucrt:argv_wildcards.obj
 0001:00037d58       ??$tcsncpy_s@PEA_W_KAEBQEB_WAEB_K@?$__crt_char_traits@_W@@SAH$$QEAPEA_W$$QEA_KAEBQEB_WAEB_K@Z 0000000180038d58 f i libucrt:argv_wildcards.obj
 0001:00037d6c       ??$tcspbrk@AEAPEADAEAY02$$CBD@?$__crt_char_traits@D@@SAPEADAEAPEADAEAY02$$CBD@Z 0000000180038d6c f i libucrt:argv_wildcards.obj
 0001:00037d74       ??$tcspbrk@AEAPEA_WAEAY02$$CB_W@?$__crt_char_traits@_W@@SAPEA_WAEAPEA_WAEAY02$$CB_W@Z 0000000180038d74 f i libucrt:argv_wildcards.obj
 0001:00037d7c       ??0?$__crt_unique_handle_t@U__crt_findfile_traits@@@@QEAA@QEAX@Z 0000000180038d7c f i libucrt:argv_wildcards.obj
 0001:00037d84       ??0?$__crt_win32_buffer@DU__crt_win32_buffer_internal_dynamic_resizing@@@@QEAA@XZ 0000000180038d84 f i libucrt:argv_wildcards.obj
 0001:00037da0       ??0?$__crt_win32_buffer@_WU__crt_win32_buffer_internal_dynamic_resizing@@@@QEAA@XZ 0000000180038da0 f i libucrt:argv_wildcards.obj
 0001:00037de4       ??1?$__crt_unique_handle_t@U__crt_findfile_traits@@@@QEAA@XZ 0000000180038de4 f i libucrt:argv_wildcards.obj
 0001:00037e08       ??1?$__crt_win32_buffer@DU__crt_win32_buffer_internal_dynamic_resizing@@@@QEAA@XZ 0000000180038e08 f i libucrt:argv_wildcards.obj
 0001:00037e2c       ??1?$__crt_win32_buffer@_WU__crt_win32_buffer_internal_dynamic_resizing@@@@QEAA@XZ 0000000180038e2c f i libucrt:argv_wildcards.obj
 0001:00037fa8       ?__acrt_get_utf8_acp_compatibility_codepage@@YAIXZ 0000000180038fa8 f i libucrt:argv_wildcards.obj
 0001:00037ff4       ?_deallocate@?$__crt_win32_buffer@DU__crt_win32_buffer_internal_dynamic_resizing@@@@AEAAXXZ 0000000180038ff4 f i libucrt:argv_wildcards.obj
 0001:00038018       ?_deallocate@?$__crt_win32_buffer@_WU__crt_win32_buffer_internal_dynamic_resizing@@@@AEAAXXZ 0000000180039018 f i libucrt:argv_wildcards.obj
 0001:0003803c       ?allocate@?$__crt_win32_buffer@DU__crt_win32_buffer_internal_dynamic_resizing@@@@QEAAH_K@Z 000000018003903c f i libucrt:argv_wildcards.obj
 0001:00038098       ?allocate@?$__crt_win32_buffer@_WU__crt_win32_buffer_internal_dynamic_resizing@@@@QEAAH_K@Z 0000000180039098 f i libucrt:argv_wildcards.obj
 0001:000380f4       ?allocate@__crt_win32_buffer_internal_dynamic_resizing@@SAHQEAPEAX_KAEBV__crt_win32_buffer_empty_debug_info@@@Z 00000001800390f4 f i libucrt:argv_wildcards.obj
 0001:000382e0       ?capacity@?$__crt_win32_buffer@DU__crt_win32_buffer_internal_dynamic_resizing@@@@QEBA_KXZ 00000001800392e0 f i libucrt:argv_wildcards.obj
 0001:000382e8       ?capacity@?$__crt_win32_buffer@_WU__crt_win32_buffer_internal_dynamic_resizing@@@@QEBA_KXZ 00000001800392e8 f i libucrt:argv_wildcards.obj
 0001:000382f0       ?close@?$__crt_unique_handle_t@U__crt_findfile_traits@@@@QEAAXXZ 00000001800392f0 f i libucrt:argv_wildcards.obj
 0001:00038314       ?close@__crt_findfile_traits@@SA_NPEAX@Z 0000000180039314 f i libucrt:argv_wildcards.obj
 0001:00038328       ?data@?$__crt_win32_buffer@DU__crt_win32_buffer_internal_dynamic_resizing@@@@QEAAPEADXZ 0000000180039328 f i libucrt:argv_wildcards.obj
 0001:00038330       ?data@?$__crt_win32_buffer@_WU__crt_win32_buffer_internal_dynamic_resizing@@@@QEAAPEA_WXZ 0000000180039330 f i libucrt:argv_wildcards.obj
 0001:00038338       ?deallocate@__crt_win32_buffer_internal_dynamic_resizing@@SAXQEAXAEBV__crt_win32_buffer_empty_debug_info@@@Z 0000000180039338 f i libucrt:argv_wildcards.obj
 0001:00038340       ?debug_info@?$__crt_win32_buffer@DU__crt_win32_buffer_internal_dynamic_resizing@@@@QEBAAEBV__crt_win32_buffer_empty_debug_info@@XZ 0000000180039340 f i libucrt:argv_wildcards.obj
 0001:00038344       ?debug_info@?$__crt_win32_buffer@_WU__crt_win32_buffer_internal_dynamic_resizing@@@@QEBAAEBV__crt_win32_buffer_empty_debug_info@@XZ 0000000180039344 f i libucrt:argv_wildcards.obj
 0001:000384e8       ?get@?$__crt_unique_handle_t@U__crt_findfile_traits@@@@QEBAPEAXXZ 00000001800394e8 f i libucrt:argv_wildcards.obj
 0001:00038590       ?get_invalid_value@__crt_findfile_traits@@SAPEAXXZ 0000000180039590 f i libucrt:argv_wildcards.obj
 0001:0003864c       ?set_to_nullptr@?$__crt_win32_buffer@DU__crt_win32_buffer_internal_dynamic_resizing@@@@QEAAXXZ 000000018003964c f i libucrt:argv_wildcards.obj
 0001:00038680       ?set_to_nullptr@?$__crt_win32_buffer@_WU__crt_win32_buffer_internal_dynamic_resizing@@@@QEAAXXZ 0000000180039680 f i libucrt:argv_wildcards.obj
 0001:000386b4       ?size@?$__crt_win32_buffer@DU__crt_win32_buffer_internal_dynamic_resizing@@@@QEAAX_K@Z 00000001800396b4 f i libucrt:argv_wildcards.obj
 0001:000386bc       ?size@?$__crt_win32_buffer@_WU__crt_win32_buffer_internal_dynamic_resizing@@@@QEAAX_K@Z 00000001800396bc f i libucrt:argv_wildcards.obj
 0001:000386dc       ?strpbrk@@YAPEADQEADQEBD@Z 00000001800396dc f i libucrt:argv_wildcards.obj
 0001:000386e4       ?wcspbrk@@YAPEA_WPEA_WPEB_W@Z 00000001800396e4 f i libucrt:argv_wildcards.obj
 0001:000386ec       __acrt_expand_narrow_argv_wildcards 00000001800396ec f   libucrt:argv_wildcards.obj
 0001:000386f4       __acrt_expand_wide_argv_wildcards 00000001800396f4 f   libucrt:argv_wildcards.obj
 0001:00038818       ??$__acrt_wcs_to_mbs_cp@U__crt_win32_buffer_no_resizing@@@@YAHQEB_WAEAV?$__crt_win32_buffer@DU__crt_win32_buffer_no_resizing@@@@I@Z 0000000180039818 f i libucrt:getmodulefilenamea.obj
 0001:0003892c       ??0?$__crt_win32_buffer@DU__crt_win32_buffer_no_resizing@@@@QEAA@QEAD_K@Z 000000018003992c f i libucrt:getmodulefilenamea.obj
 0001:00038948       ??1?$__crt_win32_buffer@DU__crt_win32_buffer_no_resizing@@@@QEAA@XZ 0000000180039948 f i libucrt:getmodulefilenamea.obj
 0001:00038984       ?_deallocate@?$__crt_win32_buffer@DU__crt_win32_buffer_no_resizing@@@@AEAAXXZ 0000000180039984 f i libucrt:getmodulefilenamea.obj
 0001:00038990       ?allocate@?$__crt_win32_buffer@DU__crt_win32_buffer_no_resizing@@@@QEAAH_K@Z 0000000180039990 f i libucrt:getmodulefilenamea.obj
 0001:000389c0       ?allocate@__crt_win32_buffer_no_resizing@@SAHQEAPEAX_KAEBV__crt_win32_buffer_empty_debug_info@@@Z 00000001800399c0 f i libucrt:getmodulefilenamea.obj
 0001:000389d8       ?capacity@?$__crt_win32_buffer@DU__crt_win32_buffer_no_resizing@@@@QEBA_KXZ 00000001800399d8 f i libucrt:getmodulefilenamea.obj
 0001:000389e0       ?data@?$__crt_win32_buffer@DU__crt_win32_buffer_no_resizing@@@@QEAAPEADXZ 00000001800399e0 f i libucrt:getmodulefilenamea.obj
 0001:000389e8       ?deallocate@__crt_win32_buffer_no_resizing@@SAXQEAXAEBV__crt_win32_buffer_empty_debug_info@@@Z 00000001800399e8 f i libucrt:getmodulefilenamea.obj
 0001:000389ec       ?debug_info@?$__crt_win32_buffer@DU__crt_win32_buffer_no_resizing@@@@QEBAAEBV__crt_win32_buffer_empty_debug_info@@XZ 00000001800399ec f i libucrt:getmodulefilenamea.obj
 0001:000389f0       ?set_to_nullptr@?$__crt_win32_buffer@DU__crt_win32_buffer_no_resizing@@@@QEAAXXZ 00000001800399f0 f i libucrt:getmodulefilenamea.obj
 0001:00038a08       ?size@?$__crt_win32_buffer@DU__crt_win32_buffer_no_resizing@@@@QEAAX_K@Z 0000000180039a08 f i libucrt:getmodulefilenamea.obj
 0001:00038a10       ?size@?$__crt_win32_buffer@DU__crt_win32_buffer_no_resizing@@@@QEBA_KXZ 0000000180039a10 f i libucrt:getmodulefilenamea.obj
 0001:00038a18       __acrt_GetModuleFileNameA  0000000180039a18 f   libucrt:getmodulefilenamea.obj
 0001:00038d1c       ??$initialize_from_array@$$BY10BAA@E@?$dual_state_global@PEAE@__crt_state_management@@QEAAXAEAY10BAA@E@Z 0000000180039d1c f i libucrt:mbctype.obj
 0001:00038d20       ??$initialize_from_array@$$BY10BAB@E@?$dual_state_global@PEAE@__crt_state_management@@QEAAXAEAY10BAB@E@Z 0000000180039d20 f i libucrt:mbctype.obj
 0001:00038f2c       ?dangerous_get_state_array@?$dual_state_global@PEAE@__crt_state_management@@QEAAPEAPEAEXZ 0000000180039f2c f i libucrt:mbctype.obj
 0001:00038f30       ?dangerous_get_state_array@?$dual_state_global@PEAU__crt_multibyte_data@@@__crt_state_management@@QEAAPEAPEAU__crt_multibyte_data@@XZ 0000000180039f30 f i libucrt:mbctype.obj
 0001:00038fb4       ?initialize@?$dual_state_global@PEAU__crt_multibyte_data@@@__crt_state_management@@QEAAXQEAU__crt_multibyte_data@@@Z 0000000180039fb4 f i libucrt:mbctype.obj
 0001:000394cc       ?value@?$dual_state_global@PEAE@__crt_state_management@@QEAAAEAPEAEXZ 000000018003a4cc f i libucrt:mbctype.obj
 0001:000394d0       __acrt_initialize_multibyte 000000018003a4d0 f   libucrt:mbctype.obj
 0001:00039530       __acrt_update_thread_multibyte_data 000000018003a530 f   libucrt:mbctype.obj
 0001:0003954c       __p__mbcasemap             000000018003a54c f   libucrt:mbctype.obj
 0001:00039554       __p__mbctype               000000018003a554 f   libucrt:mbctype.obj
 0001:0003955c       _getmbcp                   000000018003a55c f   libucrt:mbctype.obj
 0001:00039598       _setmbcp                   000000018003a598 f   libucrt:mbctype.obj
 0001:000395c0       _setmbcp_nolock            000000018003a5c0 f   libucrt:mbctype.obj
 0001:0003997c       _ismbbalnum                000000018003a97c f   libucrt:ismbbyte.obj
 0001:00039994       _ismbbalnum_l              000000018003a994 f   libucrt:ismbbyte.obj
 0001:000399b0       _ismbbalpha                000000018003a9b0 f   libucrt:ismbbyte.obj
 0001:000399c8       _ismbbalpha_l              000000018003a9c8 f   libucrt:ismbbyte.obj
 0001:000399e4       _ismbbblank                000000018003a9e4 f   libucrt:ismbbyte.obj
 0001:00039a00       _ismbbblank_l              000000018003aa00 f   libucrt:ismbbyte.obj
 0001:00039a20       _ismbbgraph                000000018003aa20 f   libucrt:ismbbyte.obj
 0001:00039a38       _ismbbgraph_l              000000018003aa38 f   libucrt:ismbbyte.obj
 0001:00039a54       _ismbbkalnum               000000018003aa54 f   libucrt:ismbbyte.obj
 0001:00039a68       _ismbbkalnum_l             000000018003aa68 f   libucrt:ismbbyte.obj
 0001:00039a80       _ismbbkana                 000000018003aa80 f   libucrt:ismbbyte.obj
 0001:00039a88       _ismbbkana_l               000000018003aa88 f   libucrt:ismbbyte.obj
 0001:00039af0       _ismbbkprint               000000018003aaf0 f   libucrt:ismbbyte.obj
 0001:00039b04       _ismbbkprint_l             000000018003ab04 f   libucrt:ismbbyte.obj
 0001:00039b1c       _ismbbkpunct               000000018003ab1c f   libucrt:ismbbyte.obj
 0001:00039b30       _ismbbkpunct_l             000000018003ab30 f   libucrt:ismbbyte.obj
 0001:00039b48       _ismbblead                 000000018003ab48 f   libucrt:ismbbyte.obj
 0001:00039b5c       _ismbblead_l               000000018003ab5c f   libucrt:ismbbyte.obj
 0001:00039b74       _ismbbprint                000000018003ab74 f   libucrt:ismbbyte.obj
 0001:00039b8c       _ismbbprint_l              000000018003ab8c f   libucrt:ismbbyte.obj
 0001:00039ba8       _ismbbpunct                000000018003aba8 f   libucrt:ismbbyte.obj
 0001:00039bbc       _ismbbpunct_l              000000018003abbc f   libucrt:ismbbyte.obj
 0001:00039bd4       _ismbbtrail                000000018003abd4 f   libucrt:ismbbyte.obj
 0001:00039be8       _ismbbtrail_l              000000018003abe8 f   libucrt:ismbbyte.obj
 0001:00039c00       __acrt_initialize_command_line 000000018003ac00 f   libucrt:argv_data.obj
 0001:00039c28       __acrt_uninitialize_command_line 000000018003ac28 f   libucrt:argv_data.obj
 0001:00039c2c       __p___argc                 000000018003ac2c f   libucrt:argv_data.obj
 0001:00039c34       __p___argv                 000000018003ac34 f   libucrt:argv_data.obj
 0001:00039c3c       __p___wargv                000000018003ac3c f   libucrt:argv_data.obj
 0001:00039c44       __p__acmdln                000000018003ac44 f   libucrt:argv_data.obj
 0001:00039c4c       __p__pgmptr                000000018003ac4c f   libucrt:argv_data.obj
 0001:00039c54       __p__wcmdln                000000018003ac54 f   libucrt:argv_data.obj
 0001:00039c5c       __p__wpgmptr               000000018003ac5c f   libucrt:argv_data.obj
 0001:00039c64       _get_pgmptr                000000018003ac64 f   libucrt:argv_data.obj
 0001:00039c9c       _get_wpgmptr               000000018003ac9c f   libucrt:argv_data.obj
 0001:00039d40       wcscpy_s                   000000018003ad40 f   libucrt:wcscpy_s.obj
 0001:00039e00       __acrt_MultiByteToWideChar 000000018003ae00 f   libucrt:multibytetowidechar.obj
 0001:00039ea0       __acrt_WideCharToMultiByte 000000018003aea0 f   libucrt:widechartomultibyte.obj
 0001:00039fd8       __dcrt_get_narrow_environment_from_os 000000018003afd8 f   libucrt:get_environment_from_os.obj
 0001:0003a0dc       __dcrt_get_wide_environment_from_os 000000018003b0dc f   libucrt:get_environment_from_os.obj
 0001:0003ab00       ??$get_or_create_environment_nolock@$$V@?$__crt_char_traits@D@@SAPEAPEADXZ 000000018003bb00 f i libucrt:setenv.obj
 0001:0003ab08       ??$get_or_create_environment_nolock@$$V@?$__crt_char_traits@_W@@SAPEAPEA_WXZ 000000018003bb08 f i libucrt:setenv.obj
 0001:0003ab10       ??$set_environment_variable@AEBQEADQEAD@?$__crt_char_traits@D@@SAHAEBQEAD$$QEBQEAD@Z 000000018003bb10 f i libucrt:setenv.obj
 0001:0003ab1c       ??$set_environment_variable@AEBQEA_WQEA_W@?$__crt_char_traits@_W@@SAHAEBQEA_W$$QEBQEA_W@Z 000000018003bb1c f i libucrt:setenv.obj
 0001:0003ab2c       ??$tcschr@AEBQEADD@?$__crt_char_traits@D@@SAPEADAEBQEAD$$QEAD@Z 000000018003bb2c f i libucrt:setenv.obj
 0001:0003ab38       ??$tcschr@AEBQEA_WD@?$__crt_char_traits@_W@@SAPEA_WAEBQEA_W$$QEAD@Z 000000018003bb38 f i libucrt:setenv.obj
 0001:0003ab44       ??$tcscpy_s@AEAPEADAEB_KAEAPEAD@?$__crt_char_traits@D@@SAHAEAPEADAEB_K0@Z 000000018003bb44 f i libucrt:setenv.obj
 0001:0003ab54       ??$tcscpy_s@AEAPEA_WAEB_KAEAPEA_W@?$__crt_char_traits@_W@@SAHAEAPEA_WAEB_K0@Z 000000018003bb54 f i libucrt:setenv.obj
 0001:0003ab64       ??$tcscpy_s@AEBQEADAEB_KAEBQEAD@?$__crt_char_traits@D@@SAHAEBQEADAEB_K0@Z 000000018003bb64 f i libucrt:setenv.obj
 0001:0003ab74       ??$tcscpy_s@AEBQEA_WAEB_KAEBQEA_W@?$__crt_char_traits@_W@@SAHAEBQEA_WAEB_K0@Z 000000018003bb74 f i libucrt:setenv.obj
 0001:0003ab84       ??$tcslen@AEBQEAD@?$__crt_char_traits@D@@SA_KAEBQEAD@Z 000000018003bb84 f i libucrt:setenv.obj
 0001:0003ab98       ??$tcslen@AEBQEA_W@?$__crt_char_traits@_W@@SA_KAEBQEA_W@Z 000000018003bb98 f i libucrt:setenv.obj
 0001:0003abac       ??$tcsnicoll@AEBQEBDAEAPEADAEB_K@?$__crt_char_traits@D@@SAHAEBQEBDAEAPEADAEB_K@Z 000000018003bbac f i libucrt:setenv.obj
 0001:0003abbc       ??$tcsnicoll@AEBQEB_WAEAPEA_WAEB_K@?$__crt_char_traits@_W@@SAHAEBQEB_WAEAPEA_WAEB_K@Z 000000018003bbbc f i libucrt:setenv.obj
 0001:0003abfc       ?strchr@@YAPEADQEADH@Z     000000018003bbfc f i libucrt:setenv.obj
 0001:0003ac04       ?wcschr@@YAPEA_WPEA_W_W@Z  000000018003bc04 f i libucrt:setenv.obj
 0001:0003ac0c       __dcrt_set_variable_in_narrow_environment_nolock 000000018003bc0c f   libucrt:setenv.obj
 0001:0003ac14       __dcrt_set_variable_in_wide_environment_nolock 000000018003bc14 f   libucrt:setenv.obj
 0001:0003ac1c       _recalloc                  000000018003bc1c f   libucrt:recalloc.obj
 0001:0003ac24       _recalloc_base             000000018003bc24 f   libucrt:recalloc.obj
 0001:0003acbc       __acrt_getheap             000000018003bcbc f   libucrt:heap_handle.obj
 0001:0003acc4       __acrt_initialize_heap     000000018003bcc4 f   libucrt:heap_handle.obj
 0001:0003ace0       __acrt_uninitialize_heap   000000018003bce0 f   libucrt:heap_handle.obj
 0001:0003acec       _get_heap_handle           000000018003bcec f   libucrt:heap_handle.obj
 0001:0003acf4       __acrt_execute_initializers 000000018003bcf4 f   libucrt:shared_initialization.obj
 0001:0003ad74       __acrt_execute_uninitializers 000000018003bd74 f   libucrt:shared_initialization.obj
 0001:0003adb0       ??$?B$$A6AH_K@Z@__crt_fast_encoded_nullptr_t@@QEBAP6AH_K@ZXZ 000000018003bdb0 f i libucrt:new_handler.obj
 0001:0003adb8       ??$__crt_fast_decode_pointer@P6AH_K@Z@@YAP6AH_K@ZQ6AH0@Z@Z 000000018003bdb8 f i libucrt:new_handler.obj
 0001:0003add0       ??$__crt_fast_encode_pointer@P6AH_K@Z@@YAP6AH_K@ZQ6AH0@Z@Z 000000018003bdd0 f i libucrt:new_handler.obj
 0001:0003adf0       ?_set_new_handler@@YAP6AH_K@ZH@Z 000000018003bdf0 f   libucrt:new_handler.obj
 0001:0003adfc       ?initialize@?$dual_state_global@P6AH_K@Z@__crt_state_management@@QEAAXQ6AH_K@Z@Z 000000018003bdfc f i libucrt:new_handler.obj
 0001:0003ae24       ?value@?$dual_state_global@P6AH_K@Z@__crt_state_management@@QEAAAEAP6AH_K@ZXZ 000000018003be24 f i libucrt:new_handler.obj
 0001:0003ae28       __acrt_initialize_new_handler 000000018003be28 f   libucrt:new_handler.obj
 0001:0003ae30       _callnewh                  000000018003be30 f   libucrt:new_handler.obj
 0001:0003ae60       _query_new_handler         000000018003be60 f   libucrt:new_handler.obj
 0001:0003ae94       _set_new_handler           000000018003be94 f   libucrt:new_handler.obj
 0001:0003aef0       ??$?B$$A6AXH@Z@__crt_fast_encoded_nullptr_t@@QEBAP6AXH@ZXZ 000000018003bef0 f i libucrt:signal.obj
 0001:0003af68       ??$__crt_fast_decode_pointer@P6AXH@Z@@YAP6AXH@ZQ6AXH@Z@Z 000000018003bf68 f i libucrt:signal.obj
 0001:0003af80       ??$__crt_fast_encode_pointer@P6AXH@Z@@YAP6AXH@ZQ6AXH@Z@Z 000000018003bf80 f i libucrt:signal.obj
 0001:0003b0a8       ?initialize@?$dual_state_global@P6AXH@Z@__crt_state_management@@QEAAXQ6AXH@Z@Z 000000018003c0a8 f i libucrt:signal.obj
 0001:0003b144       ?value@?$dual_state_global@P6AXH@Z@__crt_state_management@@QEAAAEAP6AXH@ZXZ 000000018003c144 f i libucrt:signal.obj
 0001:0003b148       __acrt_get_sigabrt_handler 000000018003c148 f   libucrt:signal.obj
 0001:0003b178       __acrt_initialize_signal_handlers 000000018003c178 f   libucrt:signal.obj
 0001:0003b198       __fpecode                  000000018003c198 f   libucrt:signal.obj
 0001:0003b1ac       __pxcptinfoptrs            000000018003c1ac f   libucrt:signal.obj
 0001:0003b1c0       raise                      000000018003c1c0 f   libucrt:signal.obj
 0001:0003b42c       signal                     000000018003c42c f   libucrt:signal.obj
 0001:0003b608       ??$__crt_fast_decode_pointer@P6AHPEAU_exception@@@Z@@YAP6AHPEAU_exception@@@ZQ6AH0@Z@Z 000000018003c608 f i libucrt:matherr.obj
 0001:0003b620       ??$__crt_fast_encode_pointer@P6AHPEAU_exception@@@Z@@YAP6AHPEAU_exception@@@ZQ6AH0@Z@Z 000000018003c620 f i libucrt:matherr.obj
 0001:0003b640       ?initialize@?$dual_state_global@P6AHPEAU_exception@@@Z@__crt_state_management@@QEAAXQ6AHPEAU_exception@@@Z@Z 000000018003c640 f i libucrt:matherr.obj
 0001:0003b668       ?value@?$dual_state_global@P6AHPEAU_exception@@@Z@__crt_state_management@@QEAAAEAP6AHPEAU_exception@@@ZXZ 000000018003c668 f i libucrt:matherr.obj
 0001:0003b66c       __acrt_has_user_matherr    000000018003c66c f   libucrt:matherr.obj
 0001:0003b68c       __acrt_initialize_user_matherr 000000018003c68c f   libucrt:matherr.obj
 0001:0003b694       __acrt_invoke_user_matherr 000000018003c694 f   libucrt:matherr.obj
 0001:0003b6c4       __setusermatherr           000000018003c6c4 f   libucrt:matherr.obj
 0001:0003b6ec       __pctype_func              000000018003c6ec f   libucrt:ctype.obj
 0001:0003b71c       __pwctype_func             000000018003c71c f   libucrt:ctype.obj
 0001:0003b724       _iswctype_l                000000018003c724 f   libucrt:iswctype.obj
 0001:0003b72c       iswctype                   000000018003c72c f   libucrt:iswctype.obj
 0001:0003b79c       _isctype                   000000018003c79c f   libucrt:isctype.obj
 0001:0003b7cc       _isctype_l                 000000018003c7cc f   libucrt:isctype.obj
 0001:0003b8d4       _isleadbyte_fast_internal  000000018003c8d4 f i libucrt:isctype.obj
 0001:0003b8ec       ?value@?$dual_state_global@J@__crt_state_management@@QEAAAEAJXZ 000000018003c8ec f i libucrt:new_mode.obj
 0001:0003b8f0       _query_new_mode            000000018003c8f0 f   libucrt:new_mode.obj
 0001:0003b8f8       _set_new_mode              000000018003c8f8 f   libucrt:new_mode.obj
 0001:0003b9f8       __acrt_DownlevelLCIDToLocaleName 000000018003c9f8 f   libucrt:lcidtoname_downlevel.obj
 0001:0003baec       __acrt_DownlevelLocaleNameToLCID 000000018003caec f   libucrt:lcidtoname_downlevel.obj
 0001:0003bce4       _commit                    000000018003cce4 f   libucrt:commit.obj
 0001:0003c76c       _utf8_no_of_trailbytes     000000018003d76c f i libucrt:write.obj
 0001:0003c77c       _write                     000000018003d77c f   libucrt:write.obj
 0001:0003c868       _write_nolock              000000018003d868 f   libucrt:write.obj
 0001:0003cb44       ??$?RU__crt_lowio_handle_data@@@__crt_internal_free_policy@@QEBAXQEBU__crt_lowio_handle_data@@@Z 000000018003db44 f i libucrt:osfinfo.obj
 0001:0003cb4c       ??0?$__crt_unique_heap_ptr@U__crt_lowio_handle_data@@U__crt_internal_free_policy@@@@QEAA@QEAU__crt_lowio_handle_data@@@Z 000000018003db4c f i libucrt:osfinfo.obj
 0001:0003cb54       ??1?$__crt_unique_heap_ptr@U__crt_lowio_handle_data@@U__crt_internal_free_policy@@@@QEAA@XZ 000000018003db54 f i libucrt:osfinfo.obj
 0001:0003cb70       ??B?$__crt_unique_heap_ptr@U__crt_lowio_handle_data@@U__crt_internal_free_policy@@@@QEBA_NXZ 000000018003db70 f i libucrt:osfinfo.obj
 0001:0003cb78       ?detach@?$__crt_unique_heap_ptr@U__crt_lowio_handle_data@@U__crt_internal_free_policy@@@@QEAAPEAU__crt_lowio_handle_data@@XZ 000000018003db78 f i libucrt:osfinfo.obj
 0001:0003cb80       ?get@?$__crt_unique_heap_ptr@U__crt_lowio_handle_data@@U__crt_internal_free_policy@@@@QEBAPEAU__crt_lowio_handle_data@@XZ 000000018003db80 f i libucrt:osfinfo.obj
 0001:0003cb84       ?is_valid@?$__crt_unique_heap_ptr@U__crt_lowio_handle_data@@U__crt_internal_free_policy@@@@QEBA_NXZ 000000018003db84 f i libucrt:osfinfo.obj
 0001:0003cb8c       ?release@?$__crt_unique_heap_ptr@U__crt_lowio_handle_data@@U__crt_internal_free_policy@@@@QEAAXXZ 000000018003db8c f i libucrt:osfinfo.obj
 0001:0003cba8       __acrt_lowio_create_handle_array 000000018003dba8 f   libucrt:osfinfo.obj
 0001:0003cc50       __acrt_lowio_destroy_handle_array 000000018003dc50 f   libucrt:osfinfo.obj
 0001:0003cca0       __acrt_lowio_ensure_fh_exists 000000018003dca0 f   libucrt:osfinfo.obj
 0001:0003cd48       __acrt_lowio_lock_fh       000000018003dd48 f   libucrt:osfinfo.obj
 0001:0003cd70       __acrt_lowio_set_os_handle 000000018003dd70 f   libucrt:osfinfo.obj
 0001:0003ce30       __acrt_lowio_unlock_fh     000000018003de30 f   libucrt:osfinfo.obj
 0001:0003ce58       _alloc_osfhnd              000000018003de58 f   libucrt:osfinfo.obj
 0001:0003cf98       _free_osfhnd               000000018003df98 f   libucrt:osfinfo.obj
 0001:0003d054       _get_osfhandle             000000018003e054 f   libucrt:osfinfo.obj
 0001:0003d0cc       _open_osfhandle            000000018003e0cc f   libucrt:osfinfo.obj
 0001:0003d1d0       __ascii_wcsnicmp           000000018003e1d0 f   libucrt:wcsnicmp.obj
 0001:0003d21c       _towlower_fast_internal    000000018003e21c f i libucrt:wcsnicmp.obj
 0001:0003d244       _towlower_internal         000000018003e244 f i libucrt:wcsnicmp.obj
 0001:0003d278       _wcsnicmp                  000000018003e278 f   libucrt:wcsnicmp.obj
 0001:0003d2c0       _wcsnicmp_l                000000018003e2c0 f   libucrt:wcsnicmp.obj
 0001:0003d410       __ascii_strnicmp           000000018003e410 f   libucrt:strnicmp.obj
 0001:0003d45c       _strnicmp                  000000018003e45c f   libucrt:strnicmp.obj
 0001:0003d4ac       _strnicmp_l                000000018003e4ac f   libucrt:strnicmp.obj
 0001:0003d9c0       ??$tsopen_nolock@PEAHAEBQEAHAEBQEBDAEBHAEBHAEBHAEBH@?$__crt_char_traits@D@@SAH$$QEAPEAHAEBQEAHAEBQEBDAEBH333@Z 000000018003e9c0 f i libucrt:open.obj
 0001:0003d9f8       ??$tsopen_nolock@PEAHAEBQEAHAEBQEB_WAEBHAEBHAEBHAEBH@?$__crt_char_traits@_W@@SAH$$QEAPEAHAEBQEAHAEBQEB_WAEBH333@Z 000000018003e9f8 f i libucrt:open.obj
 0001:0003da30       ??$tsopen_nolock@PEAHPEAHAEBQEBDAEBHHAEBHH@?$__crt_char_traits@D@@SAH$$QEAPEAH0AEBQEBDAEBH$$QEAH23@Z 000000018003ea30 f i libucrt:open.obj
 0001:0003da68       ??$tsopen_nolock@PEAHPEAHAEBQEB_WAEBHHAEBHH@?$__crt_char_traits@_W@@SAH$$QEAPEAH0AEBQEB_WAEBH$$QEAH23@Z 000000018003ea68 f i libucrt:open.obj
 0001:0003e1e0       _open                      000000018003f1e0 f   libucrt:open.obj
 0001:0003e204       _sopen                     000000018003f204 f   libucrt:open.obj
 0001:0003e248       _sopen_dispatch            000000018003f248 f   libucrt:open.obj
 0001:0003e250       _sopen_nolock              000000018003f250 f   libucrt:open.obj
 0001:0003e368       _sopen_s                   000000018003f368 f   libucrt:open.obj
 0001:0003e39c       _wopen                     000000018003f39c f   libucrt:open.obj
 0001:0003e3c0       _wsopen                    000000018003f3c0 f   libucrt:open.obj
 0001:0003e404       _wsopen_dispatch           000000018003f404 f   libucrt:open.obj
 0001:0003e40c       _wsopen_nolock             000000018003f40c f   libucrt:open.obj
 0001:0003e7f4       _wsopen_s                  000000018003f7f4 f   libucrt:open.obj
 0001:0003e828       __p__commode               000000018003f828 f   libucrt:ncommode.obj
 0001:0003e830       __iswcsym                  000000018003f830 f i libucrt:_wctype.obj
 0001:0003e85c       __iswcsymf                 000000018003f85c f i libucrt:_wctype.obj
 0001:0003e888       _isleadbyte_l              000000018003f888 f i libucrt:_wctype.obj
 0001:0003e8d4       _iswalnum_l                000000018003f8d4 f i libucrt:_wctype.obj
 0001:0003e8e0       _iswalpha_l                000000018003f8e0 f i libucrt:_wctype.obj
 0001:0003e8ec       _iswblank_l                000000018003f8ec f i libucrt:_wctype.obj
 0001:0003e904       _iswcntrl_l                000000018003f904 f i libucrt:_wctype.obj
 0001:0003e910       _iswcsym_l                 000000018003f910 f i libucrt:_wctype.obj
 0001:0003e93c       _iswcsymf_l                000000018003f93c f i libucrt:_wctype.obj
 0001:0003e968       _iswdigit_l                000000018003f968 f i libucrt:_wctype.obj
 0001:0003e974       _iswgraph_l                000000018003f974 f i libucrt:_wctype.obj
 0001:0003e980       _iswlower_l                000000018003f980 f i libucrt:_wctype.obj
 0001:0003e98c       _iswprint_l                000000018003f98c f i libucrt:_wctype.obj
 0001:0003e998       _iswpunct_l                000000018003f998 f i libucrt:_wctype.obj
 0001:0003e9a4       _iswspace_l                000000018003f9a4 f i libucrt:_wctype.obj
 0001:0003e9b0       _iswupper_l                000000018003f9b0 f i libucrt:_wctype.obj
 0001:0003e9bc       _iswxdigit_l               000000018003f9bc f i libucrt:_wctype.obj
 0001:0003e9c8       isleadbyte                 000000018003f9c8 f i libucrt:_wctype.obj
 0001:0003ea18       iswalnum                   000000018003fa18 f i libucrt:_wctype.obj
 0001:0003ea24       iswalpha                   000000018003fa24 f i libucrt:_wctype.obj
 0001:0003ea30       iswascii                   000000018003fa30 f i libucrt:_wctype.obj
 0001:0003ea40       iswblank                   000000018003fa40 f i libucrt:_wctype.obj
 0001:0003ea58       iswcntrl                   000000018003fa58 f i libucrt:_wctype.obj
 0001:0003ea64       iswdigit                   000000018003fa64 f i libucrt:_wctype.obj
 0001:0003ea70       iswgraph                   000000018003fa70 f i libucrt:_wctype.obj
 0001:0003ea7c       iswlower                   000000018003fa7c f i libucrt:_wctype.obj
 0001:0003ea88       iswprint                   000000018003fa88 f i libucrt:_wctype.obj
 0001:0003ea94       iswpunct                   000000018003fa94 f i libucrt:_wctype.obj
 0001:0003eaa0       iswspace                   000000018003faa0 f i libucrt:_wctype.obj
 0001:0003eaac       iswupper                   000000018003faac f i libucrt:_wctype.obj
 0001:0003eab8       iswxdigit                  000000018003fab8 f i libucrt:_wctype.obj
 0001:0003eaec       ?__mbrtowc_utf8@__crt_mbstring@@YA_KPEA_WPEBD_KPEAU_Mbstatet@@@Z 000000018003faec f   libucrt:mbrtowc.obj
 0001:0003eb28       ?__mbsrtowcs_utf8@__crt_mbstring@@YA_KPEA_WPEAPEBD_KPEAU_Mbstatet@@@Z 000000018003fb28 f   libucrt:mbrtowc.obj
 0001:0003f054       btowc                      0000000180040054 f   libucrt:mbrtowc.obj
 0001:0003f0bc       mbrlen                     00000001800400bc f   libucrt:mbrtowc.obj
 0001:0003f0fc       mbrtowc                    00000001800400fc f   libucrt:mbrtowc.obj
 0001:0003f15c       mbsrtowcs                  000000018004015c f   libucrt:mbrtowc.obj
 0001:0003f164       mbsrtowcs_s                0000000180040164 f   libucrt:mbrtowc.obj
 0001:0003f238       ??$?RG@__crt_internal_free_policy@@QEBAXQEBG@Z 0000000180040238 f i libucrt:initctype.obj
 0001:0003f240       ??$?RJ@__crt_internal_free_policy@@QEBAXQEBJ@Z 0000000180040240 f i libucrt:initctype.obj
 0001:0003f248       ??0?$__crt_unique_heap_ptr@GU__crt_internal_free_policy@@@@QEAA@QEAG@Z 0000000180040248 f i libucrt:initctype.obj
 0001:0003f250       ??0?$__crt_unique_heap_ptr@JU__crt_internal_free_policy@@@@QEAA@QEAJ@Z 0000000180040250 f i libucrt:initctype.obj
 0001:0003f258       ??1?$__crt_unique_heap_ptr@GU__crt_internal_free_policy@@@@QEAA@XZ 0000000180040258 f i libucrt:initctype.obj
 0001:0003f274       ??1?$__crt_unique_heap_ptr@JU__crt_internal_free_policy@@@@QEAA@XZ 0000000180040274 f i libucrt:initctype.obj
 0001:0003f290       ?detach@?$__crt_unique_heap_ptr@GU__crt_internal_free_policy@@@@QEAAPEAGXZ 0000000180040290 f i libucrt:initctype.obj
 0001:0003f298       ?detach@?$__crt_unique_heap_ptr@JU__crt_internal_free_policy@@@@QEAAPEAJXZ 0000000180040298 f i libucrt:initctype.obj
 0001:0003f2a0       ?release@?$__crt_unique_heap_ptr@GU__crt_internal_free_policy@@@@QEAAXXZ 00000001800402a0 f i libucrt:initctype.obj
 0001:0003f2bc       ?release@?$__crt_unique_heap_ptr@JU__crt_internal_free_policy@@@@QEAAXXZ 00000001800402bc f i libucrt:initctype.obj
 0001:0003f2d8       ___lc_codepage_func        00000001800402d8 f   libucrt:initctype.obj
 0001:0003f308       ___lc_collate_cp_func      0000000180040308 f   libucrt:initctype.obj
 0001:0003f338       ___lc_locale_name_func     0000000180040338 f   libucrt:initctype.obj
 0001:0003f36c       ___mb_cur_max_func         000000018004036c f   libucrt:initctype.obj
 0001:0003f39c       ___mb_cur_max_l_func       000000018004039c f   libucrt:initctype.obj
 0001:0003f3ac       __acrt_locale_initialize_ctype 00000001800403ac f   libucrt:initctype.obj
 0001:0003fa10       ?__c32rtomb_utf8@__crt_mbstring@@YA_KPEAD_UPEAU_Mbstatet@@@Z 0000000180040a10 f   libucrt:c32rtomb.obj
 0001:0003fac4       ?reset_and_return@__crt_mbstring@@YA_K_KPEAU_Mbstatet@@@Z 0000000180040ac4 f i libucrt:c32rtomb.obj
 0001:0003facc       ?return_illegal_sequence@__crt_mbstring@@YA_KPEAU_Mbstatet@@@Z 0000000180040acc f i libucrt:c32rtomb.obj
 0001:0003fae8       c32rtomb                   0000000180040ae8 f   libucrt:c32rtomb.obj
 0001:0003faf0       __acrt_add_locale_ref      0000000180040af0 f   libucrt:locale_refcounting.obj
 0001:0003fb7c       __acrt_free_locale         0000000180040b7c f   libucrt:locale_refcounting.obj
 0001:0003fcf4       __acrt_locale_add_lc_time_reference 0000000180040cf4 f   libucrt:locale_refcounting.obj
 0001:0003fd1c       __acrt_locale_free_lc_time_if_unreferenced 0000000180040d1c f   libucrt:locale_refcounting.obj
 0001:0003fd54       __acrt_locale_release_lc_time_reference 0000000180040d54 f   libucrt:locale_refcounting.obj
 0001:0003fd7c       __acrt_release_locale_ref  0000000180040d7c f   libucrt:locale_refcounting.obj
 0001:0003fe24       __acrt_update_thread_locale_data 0000000180040e24 f   libucrt:locale_refcounting.obj
 0001:0003fe90       _updatetlocinfoEx_nolock   0000000180040e90 f   libucrt:locale_refcounting.obj
 0001:0003fef8       __acrt_fp_strflt_to_string 0000000180040ef8 f   libucrt:_fptostr.obj
 0001:00041130       ??0big_integer@__crt_strtox@@QEAA@AEBU01@@Z 0000000180042130 f i libucrt:cfout.obj
 0001:00041160       ??0big_integer@__crt_strtox@@QEAA@XZ 0000000180042160 f i libucrt:cfout.obj
 0001:000411c0       ??4big_integer@__crt_strtox@@QEAAAEAU01@AEBU01@@Z 00000001800421c0 f i libucrt:cfout.obj
 0001:000411f0       ??8__crt_strtox@@YA_NAEBUbig_integer@0@0@Z 00000001800421f0 f i libucrt:cfout.obj
 0001:00041220       ??9__crt_strtox@@YA_NAEBUbig_integer@0@0@Z 0000000180042220 f i libucrt:cfout.obj
 0001:00041260       ?add_carry@__crt_strtox@@YAIAEAIII@Z 0000000180042260 f i libucrt:cfout.obj
 0001:00041280       ?add_multiply_carry@__crt_strtox@@YAIAEAIIII@Z 0000000180042280 f i libucrt:cfout.obj
 0001:000412a0       ?bit_scan_reverse@__crt_strtox@@YAII@Z 00000001800422a0 f i libucrt:cfout.obj
 0001:000412c0       ?count_sequential_high_zeroes@__crt_strtox@@YAII@Z 00000001800422c0 f i libucrt:cfout.obj
 0001:000412e0       ?divide@__crt_strtox@@YA_KAEAUbig_integer@1@AEBU21@@Z 00000001800422e0 f i libucrt:cfout.obj
 0001:00041710       ?is_zero@__crt_strtox@@YA_NAEBUbig_integer@1@@Z 0000000180042710 f i libucrt:cfout.obj
 0001:00041720       ?make_big_integer@__crt_strtox@@YA?AUbig_integer@1@_K@Z 0000000180042720 f i libucrt:cfout.obj
 0001:00041740       ?make_big_integer_power_of_two@__crt_strtox@@YA?AUbig_integer@1@I@Z 0000000180042740 f i libucrt:cfout.obj
 0001:000417b0       ?multiply@__crt_strtox@@YA_NAEAUbig_integer@1@AEBU21@@Z 00000001800427b0 f i libucrt:cfout.obj
 0001:00041b60       ?multiply@__crt_strtox@@YA_NAEAUbig_integer@1@I@Z 0000000180042b60 f i libucrt:cfout.obj
 0001:00041c50       ?multiply_64_32@__crt_strtox@@YA_K_KI@Z 0000000180042c50 f i libucrt:cfout.obj
 0001:00041c60       ?multiply_by_power_of_ten@__crt_strtox@@YA_NAEAUbig_integer@1@I@Z 0000000180042c60 f i libucrt:cfout.obj
 0001:00042210       ?multiply_core@__crt_strtox@@YAIQEAIII@Z 0000000180043210 f i libucrt:cfout.obj
 0001:00042260       ?shift_left@__crt_strtox@@YA_NAEAUbig_integer@1@I@Z 0000000180043260 f i libucrt:cfout.obj
 0001:000423b0       __acrt_fltout              00000001800433b0 f   libucrt:cfout.obj
 0001:00043a0c       ?has_big_buffer@__crt_stdio_stream@@QEBA_NXZ 0000000180044a0c f i libucrt:_flsbuf.obj
 0001:00043a98       __acrt_stdio_flush_and_write_narrow_nolock 0000000180044a98 f   libucrt:_flsbuf.obj
 0001:00043b84       __acrt_stdio_flush_and_write_wide_nolock 0000000180044b84 f   libucrt:_flsbuf.obj
 0001:00043c70       _isatty                    0000000180044c70 f   libucrt:isatty.obj
 0001:00043cd0       ??$?RUlconv@@@__crt_internal_free_policy@@QEBAXQEBUlconv@@@Z 0000000180044cd0 f i libucrt:initmon.obj
 0001:00043cd8       ??0?$__crt_unique_heap_ptr@Ulconv@@U__crt_internal_free_policy@@@@QEAA@QEAUlconv@@@Z 0000000180044cd8 f i libucrt:initmon.obj
 0001:00043ce0       ??1?$__crt_unique_heap_ptr@Ulconv@@U__crt_internal_free_policy@@@@QEAA@XZ 0000000180044ce0 f i libucrt:initmon.obj
 0001:00043cfc       ?detach@?$__crt_unique_heap_ptr@Ulconv@@U__crt_internal_free_policy@@@@QEAAPEAUlconv@@XZ 0000000180044cfc f i libucrt:initmon.obj
 0001:00043d04       ?release@?$__crt_unique_heap_ptr@Ulconv@@U__crt_internal_free_policy@@@@QEAAXXZ 0000000180044d04 f i libucrt:initmon.obj
 0001:00043d20       __acrt_locale_free_monetary 0000000180044d20 f   libucrt:initmon.obj
 0001:00043e2c       __acrt_locale_initialize_monetary 0000000180044e2c f   libucrt:initmon.obj
 0001:00044394       __acrt_locale_free_numeric 0000000180045394 f   libucrt:initnum.obj
 0001:00044400       __acrt_locale_initialize_numeric 0000000180045400 f   libucrt:initnum.obj
 0001:0004471c       ??$?RU__crt_lc_time_data@@@__crt_internal_free_policy@@QEBAXQEBU__crt_lc_time_data@@@Z 000000018004571c f i libucrt:inittime.obj
 0001:0004476c       ??0?$__crt_unique_heap_ptr@U__crt_lc_time_data@@U__crt_internal_free_policy@@@@QEAA@QEAU__crt_lc_time_data@@@Z 000000018004576c f i libucrt:inittime.obj
 0001:00044774       ??1?$__crt_unique_heap_ptr@U__crt_lc_time_data@@U__crt_internal_free_policy@@@@QEAA@XZ 0000000180045774 f i libucrt:inittime.obj
 0001:00044790       ??B?$__crt_unique_heap_ptr@U__crt_lc_time_data@@U__crt_internal_free_policy@@@@QEBA_NXZ 0000000180045790 f i libucrt:inittime.obj
 0001:00044798       ?detach@?$__crt_unique_heap_ptr@U__crt_lc_time_data@@U__crt_internal_free_policy@@@@QEAAPEAU__crt_lc_time_data@@XZ 0000000180045798 f i libucrt:inittime.obj
 0001:000447f8       ?get@?$__crt_unique_heap_ptr@U__crt_lc_time_data@@U__crt_internal_free_policy@@@@QEBAPEAU__crt_lc_time_data@@XZ 00000001800457f8 f i libucrt:inittime.obj
 0001:00044bb4       ?is_valid@?$__crt_unique_heap_ptr@U__crt_lc_time_data@@U__crt_internal_free_policy@@@@QEBA_NXZ 0000000180045bb4 f i libucrt:inittime.obj
 0001:00044bbc       ?release@?$__crt_unique_heap_ptr@U__crt_lc_time_data@@U__crt_internal_free_policy@@@@QEAAXXZ 0000000180045bbc f i libucrt:inittime.obj
 0001:00044bd8       __acrt_locale_free_time    0000000180045bd8 f   libucrt:inittime.obj
 0001:00044ce0       __acrt_locale_initialize_time 0000000180045ce0 f   libucrt:inittime.obj
 0001:00044e04       wcscat_s                   0000000180045e04 f   libucrt:wcscat_s.obj
 0001:00044f7c       wcsncat_s                  0000000180045f7c f   libucrt:wcsncat_s.obj
 0001:00045158       wcsncpy_s                  0000000180046158 f   libucrt:wcsncpy_s.obj
 0001:0004523c       wcscspn                    000000018004623c f   libucrt:wcscspn.obj
 0001:0004527c       wcspbrk                    000000018004627c f   libucrt:wcspbrk.obj
 0001:000452b0       ??0?$__crt_scoped_stack_ptr@_W@@QEAA@U?$__crt_scoped_stack_ptr_tag@_W@@@Z 00000001800462b0 f i libucrt:getstringtypea.obj
 0001:000452b8       ??0?$__crt_scoped_stack_ptr_tag@_W@@QEAA@QEA_W@Z 00000001800462b8 f i libucrt:getstringtypea.obj
 0001:000452c0       ??1?$__crt_scoped_stack_ptr@_W@@QEAA@XZ 00000001800462c0 f i libucrt:getstringtypea.obj
 0001:000452e4       ?get@?$__crt_scoped_stack_ptr@_W@@QEBAPEA_WXZ 00000001800462e4 f i libucrt:getstringtypea.obj
 0001:000452e8       _MallocaComputeSize        00000001800462e8 f i libucrt:getstringtypea.obj
 0001:000452f8       _MarkAllocaS               00000001800462f8 f i libucrt:getstringtypea.obj
 0001:00045308       __acrt_GetStringTypeA      0000000180046308 f   libucrt:getstringtypea.obj
 0001:00045498       _freea_crt                 0000000180046498 f i libucrt:getstringtypea.obj
 0001:00045d14       __acrt_get_qualified_locale 0000000180046d14 f   libucrt:get_qualified_locale.obj
 0001:00046818       __acrt_get_qualified_locale_downlevel 0000000180047818 f   libucrt:getqloc_downlevel.obj
 0001:00046a98       localeconv                 0000000180047a98 f   libucrt:localeconv.obj
 0001:00046bc0       qsort                      0000000180047bc0 f   libucrt:qsort.obj
 0001:00047038       strncpy_s                  0000000180048038 f   libucrt:strncpy_s.obj
 0001:000471b0       strpbrk                    00000001800481b0 f   libucrt:strpbrk.obj
 0001:00047590       _mbsdec                    0000000180048590 f   libucrt:mbsdec.obj
 0001:00047598       _mbsdec_l                  0000000180048598 f   libucrt:mbsdec.obj
 0001:0004762c       ??B?$__crt_scoped_stack_ptr@_W@@QEBA_NXZ 000000018004862c f i libucrt:lcmapstringa.obj
 0001:0004794c       __acrt_LCMapStringA        000000018004894c f   libucrt:lcmapstringa.obj
 0001:000479fc       _wcsnicoll                 00000001800489fc f   libucrt:wcsnicol.obj
 0001:00047a4c       _wcsnicoll_l               0000000180048a4c f   libucrt:wcsnicol.obj
 0001:00047b3c       _strnicoll                 0000000180048b3c f   libucrt:strnicol.obj
 0001:00047b54       _strnicoll_l               0000000180048b54 f   libucrt:strnicol.obj
 0001:00047df8       __acrt_SetEnvironmentVariableA 0000000180048df8 f   libucrt:setenvironmentvariablea.obj
 0001:00047f90       _msize                     0000000180048f90 f   libucrt:msize.obj
 0001:00047f98       _msize_base                0000000180048f98 f   libucrt:msize.obj
 0001:00047fd4       _realloc_base              0000000180048fd4 f   libucrt:realloc_base.obj
 0001:00048050       __acrt_GetStringTypeW      0000000180049050 f   libucrt:getstringtypew.obj
 0001:00048498       _lseek                     0000000180049498 f   libucrt:lseek.obj
 0001:000484a0       _lseek_nolock              00000001800494a0 f   libucrt:lseek.obj
 0001:000484a8       _lseeki64                  00000001800494a8 f   libucrt:lseek.obj
 0001:000484b0       _lseeki64_nolock           00000001800494b0 f   libucrt:lseek.obj
 0001:00048554       _putwch                    0000000180049554 f   libucrt:putwch.obj
 0001:00048590       _putwch_nolock             0000000180049590 f   libucrt:putwch.obj
 0001:00048c9c       _read                      0000000180049c9c f   libucrt:read.obj
 0001:00048db8       _read_nolock               0000000180049db8 f   libucrt:read.obj
 0001:000492e8       __acrt_report_runtime_error 000000018004a2e8 f   libucrt:report_runtime_error.obj
 0001:00049448       _query_app_type            000000018004a448 f   libucrt:report_runtime_error.obj
 0001:00049450       _set_app_type              000000018004a450 f   libucrt:report_runtime_error.obj
 0001:00049458       _towlower_l                000000018004a458 f   libucrt:towlower.obj
 0001:00049514       towlower                   000000018004a514 f   libucrt:towlower.obj
 0001:0004951c       ??$__crt_interlocked_read@H@@YAHPEDH@Z 000000018004a51c f i libucrt:setmode.obj
 0001:00049520       ?value@?$dual_state_global@H@__crt_state_management@@QEAAAEAHXZ 000000018004a520 f i libucrt:setmode.obj
 0001:00049524       _get_fmode                 000000018004a524 f   libucrt:setmode.obj
 0001:00049554       _set_fmode                 000000018004a554 f   libucrt:setmode.obj
 0001:00049594       _setmode                   000000018004a594 f   libucrt:setmode.obj
 0001:00049698       _setmode_nolock            000000018004a698 f   libucrt:setmode.obj
 0001:00049834       ??0__crt_seek_guard@@QEAA@H_J@Z 000000018004a834 f i libucrt:chsize.obj
 0001:0004988c       ??1__crt_seek_guard@@QEAA@XZ 000000018004a88c f i libucrt:chsize.obj
 0001:00049900       _chsize                    000000018004a900 f   libucrt:chsize.obj
 0001:00049918       _chsize_nolock             000000018004a918 f   libucrt:chsize.obj
 0001:00049a84       _chsize_s                  000000018004aa84 f   libucrt:chsize.obj
 0001:00049b4c       _umask                     000000018004ab4c f   libucrt:umask.obj
 0001:00049b60       _umask_s                   000000018004ab60 f   libucrt:umask.obj
 0001:00049ba0       ?__mbrtoc32_utf8@__crt_mbstring@@YA_KPEA_UPEBD_KPEAU_Mbstatet@@@Z 000000018004aba0 f   libucrt:mbrtoc32.obj
 0001:00049d7c       mbrtoc32                   000000018004ad7c f   libucrt:mbrtoc32.obj
 0001:00049f00       __acrt_GetLocaleInfoA      000000018004af00 f   libucrt:getlocaleinfoa.obj
 0001:0004a0c8       fegetenv                   000000018004b0c8 f   libucrt:fegetenv.obj
 0001:0004a0e8       fesetenv                   000000018004b0e8 f   libucrt:fesetenv.obj
 0001:0004a134       feholdexcept               000000018004b134 f   libucrt:feholdexcept.obj
 0001:0004a184       ceil                       000000018004b184 f   libucrt:ceil.obj
 0001:0004a250       log10                      000000018004b250 f   libucrt:log10.obj
 0001:0004a7fc       __acrt_stdio_allocate_buffer_nolock 000000018004b7fc f   libucrt:_getbuf.obj
 0001:0004ad50       _i64toa                    000000018004bd50 f   libucrt:xtoa.obj
 0001:0004ad84       _i64toa_s                  000000018004bd84 f   libucrt:xtoa.obj
 0001:0004ada8       _i64tow                    000000018004bda8 f   libucrt:xtoa.obj
 0001:0004addc       _i64tow_s                  000000018004bddc f   libucrt:xtoa.obj
 0001:0004ae00       _itoa                      000000018004be00 f   libucrt:xtoa.obj
 0001:0004ae30       _itoa_s                    000000018004be30 f   libucrt:xtoa.obj
 0001:0004ae50       _itow                      000000018004be50 f   libucrt:xtoa.obj
 0001:0004ae80       _itow_s                    000000018004be80 f   libucrt:xtoa.obj
 0001:0004aea0       _ltoa                      000000018004bea0 f   libucrt:xtoa.obj
 0001:0004aed0       _ltoa_s                    000000018004bed0 f   libucrt:xtoa.obj
 0001:0004aef0       _ltow                      000000018004bef0 f   libucrt:xtoa.obj
 0001:0004af20       _ltow_s                    000000018004bf20 f   libucrt:xtoa.obj
 0001:0004af40       _ui64toa                   000000018004bf40 f   libucrt:xtoa.obj
 0001:0004af64       _ui64toa_s                 000000018004bf64 f   libucrt:xtoa.obj
 0001:0004af78       _ui64tow                   000000018004bf78 f   libucrt:xtoa.obj
 0001:0004af9c       _ui64tow_s                 000000018004bf9c f   libucrt:xtoa.obj
 0001:0004afb0       _ultoa                     000000018004bfb0 f   libucrt:xtoa.obj
 0001:0004afd4       _ultoa_s                   000000018004bfd4 f   libucrt:xtoa.obj
 0001:0004afe8       _ultow                     000000018004bfe8 f   libucrt:xtoa.obj
 0001:0004b00c       _ultow_s                   000000018004c00c f   libucrt:xtoa.obj
 0001:0004b020       __ascii_wcsicmp            000000018004c020 f   libucrt:wcsicmp.obj
 0001:0004b060       _wcsicmp                   000000018004c060 f   libucrt:wcsicmp.obj
 0001:0004b0a8       _wcsicmp_l                 000000018004c0a8 f   libucrt:wcsicmp.obj
 0001:0004b1d0       wcscmp                     000000018004c1d0 f   libucrt:wcscmp.obj
 0001:0004b208       __strncnt                  000000018004c208 f   libucrt:strncnt.obj
 0001:0004b220       __acrt_CompareStringW      000000018004c220 f   libucrt:comparestringw.obj
 0001:0004b640       __acrt_CompareStringA      000000018004c640 f   libucrt:comparestringa.obj
 0001:0004b7f4       __dcrt_lowio_ensure_console_output_initialized 000000018004c7f4 f   libucrt:initcon.obj
 0001:0004b848       __dcrt_terminate_console_output 000000018004c848 f   libucrt:initcon.obj
 0001:0004b864       __dcrt_write_console       000000018004c864 f   libucrt:initcon.obj
 0001:0004b924       _set_error_mode            000000018004c924 f   libucrt:set_error_mode.obj
 0001:0004baac       ??$message_box@$$TAEBQEBDAEBQEBDK@?$__crt_char_traits@D@@SAH$$QEA$$TAEBQEBD1$$QEAK@Z 000000018004caac f i libucrt:crtmbox.obj
 0001:0004bac0       ??$message_box@$$TAEBQEB_WAEBQEB_WK@?$__crt_char_traits@_W@@SAH$$QEA$$TAEBQEB_W1$$QEAK@Z 000000018004cac0 f i libucrt:crtmbox.obj
 0001:0004bad4       ??$message_box@PEAUHWND__@@AEBQEBDAEBQEBDAEBI@?$__crt_char_traits@D@@SAH$$QEAPEAUHWND__@@AEBQEBD1AEBI@Z 000000018004cad4 f i libucrt:crtmbox.obj
 0001:0004bae8       ??$message_box@PEAUHWND__@@AEBQEB_WAEBQEB_WAEBI@?$__crt_char_traits@_W@@SAH$$QEAPEAUHWND__@@AEBQEB_W1AEBI@Z 000000018004cae8 f i libucrt:crtmbox.obj
 0001:0004bafc       ??$output_debug_string@AEBQEBD@?$__crt_char_traits@D@@SAXAEBQEBD@Z 000000018004cafc f i libucrt:crtmbox.obj
 0001:0004bb04       ??$output_debug_string@AEBQEB_W@?$__crt_char_traits@_W@@SAXAEBQEB_W@Z 000000018004cb04 f i libucrt:crtmbox.obj
 0001:0004bb10       __acrt_show_narrow_message_box 000000018004cb10 f   libucrt:crtmbox.obj
 0001:0004bbb4       __acrt_show_wide_message_box 000000018004cbb4 f   libucrt:crtmbox.obj
 0001:0004bc58       __acrt_LCMapStringW        000000018004cc58 f   libucrt:lcmapstringw.obj
 0001:0004bce0       __p__fmode                 000000018004cce0 f   libucrt:txtmode.obj
 0001:0004bce8       ??$__acrt_fenv_shift_bits@W4__acrt_fenv_abstract_control@@@@YA?AW4__acrt_fenv_abstract_control@@W40@0I@Z 000000018004cce8 f i libucrt:_fenvutils.obj
 0001:0004bcf4       ??$__acrt_fenv_shift_bits@W4__acrt_fenv_abstract_status@@@@YA?AW4__acrt_fenv_abstract_status@@W40@0I@Z 000000018004ccf4 f i libucrt:_fenvutils.obj
 0001:0004bd00       ??$__acrt_fenv_translate_bit@W4__acrt_fenv_abstract_control@@W4__acrt_fenv_machine_sse_control@@@@YA?AW4__acrt_fenv_abstract_control@@W4__acrt_fenv_machine_sse_control@@0W40@1@Z 000000018004cd00 f i libucrt:_fenvutils.obj
 0001:0004bd0c       ??$__acrt_fenv_translate_bit@W4__acrt_fenv_abstract_status@@W4__acrt_fenv_machine_sse_status@@@@YA?AW4__acrt_fenv_abstract_status@@W4__acrt_fenv_machine_sse_status@@0W40@1@Z 000000018004cd0c f i libucrt:_fenvutils.obj
 0001:0004bd18       ??$__acrt_fenv_translate_bit@W4__acrt_fenv_machine_sse_control@@W4__acrt_fenv_abstract_control@@@@YA?AW4__acrt_fenv_machine_sse_control@@W4__acrt_fenv_abstract_control@@0W40@1@Z 000000018004cd18 f i libucrt:_fenvutils.obj
 0001:0004bd24       ??$__acrt_fenv_translate_bit@W4__acrt_fenv_machine_sse_status@@W4__acrt_fenv_abstract_status@@@@YA?AW4__acrt_fenv_machine_sse_status@@W4__acrt_fenv_abstract_status@@0W40@1@Z 000000018004cd24 f i libucrt:_fenvutils.obj
 0001:0004bd30       ??$__acrt_fenv_unshift_bits@W4__acrt_fenv_abstract_control@@@@YA?AW4__acrt_fenv_abstract_control@@W40@0I@Z 000000018004cd30 f i libucrt:_fenvutils.obj
 0001:0004bd3c       ??$__acrt_fenv_unshift_bits@W4__acrt_fenv_abstract_status@@@@YA?AW4__acrt_fenv_abstract_status@@W40@0I@Z 000000018004cd3c f i libucrt:_fenvutils.obj
 0001:0004bf94       ??I@YA?AW4__acrt_fenv_abstract_control@@W40@0@Z 000000018004cf94 f i libucrt:_fenvutils.obj
 0001:0004bf9c       ??I@YA?AW4__acrt_fenv_abstract_status@@W40@0@Z 000000018004cf9c f i libucrt:_fenvutils.obj
 0001:0004bfa4       ??I@YA?AW4__acrt_fenv_machine_sse_control@@W40@0@Z 000000018004cfa4 f i libucrt:_fenvutils.obj
 0001:0004bfac       ??I@YA?AW4__acrt_fenv_machine_sse_status@@W40@0@Z 000000018004cfac f i libucrt:_fenvutils.obj
 0001:0004bfb4       ??U@YA?AW4__acrt_fenv_abstract_control@@W40@0@Z 000000018004cfb4 f i libucrt:_fenvutils.obj
 0001:0004bfbc       ??U@YA?AW4__acrt_fenv_abstract_status@@W40@0@Z 000000018004cfbc f i libucrt:_fenvutils.obj
 0001:0004bfc4       ??U@YA?AW4__acrt_fenv_machine_sse_control@@W40@0@Z 000000018004cfc4 f i libucrt:_fenvutils.obj
 0001:0004bfcc       ??_5@YAAEAW4__acrt_fenv_abstract_control@@AEAW40@W40@@Z 000000018004cfcc f i libucrt:_fenvutils.obj
 0001:0004bfd4       ??_5@YAAEAW4__acrt_fenv_abstract_status@@AEAW40@W40@@Z 000000018004cfd4 f i libucrt:_fenvutils.obj
 0001:0004bfdc       ??_5@YAAEAW4__acrt_fenv_machine_sse_control@@AEAW40@W40@@Z 000000018004cfdc f i libucrt:_fenvutils.obj
 0001:0004bfe4       ??_5@YAAEAW4__acrt_fenv_machine_sse_status@@AEAW40@W40@@Z 000000018004cfe4 f i libucrt:_fenvutils.obj
 0001:0004bfec       ?__acrt_fenv_shift_abstract_sse_control@@YA?AW4__acrt_fenv_abstract_control@@W41@@Z 000000018004cfec f i libucrt:_fenvutils.obj
 0001:0004c000       ?__acrt_fenv_shift_abstract_sse_status@@YA?AW4__acrt_fenv_abstract_status@@W41@@Z 000000018004d000 f i libucrt:_fenvutils.obj
 0001:0004c00c       ?__acrt_fenv_unshift_abstract_sse_control@@YA?AW4__acrt_fenv_abstract_control@@W41@@Z 000000018004d00c f i libucrt:_fenvutils.obj
 0001:0004c024       ?__acrt_fenv_unshift_abstract_sse_status@@YA?AW4__acrt_fenv_abstract_status@@W41@@Z 000000018004d024 f i libucrt:_fenvutils.obj
 0001:0004c368       __acrt_fenv_expand_round_control 000000018004d368 f   libucrt:_fenvutils.obj
 0001:0004c380       __acrt_fenv_get_common_round_control 000000018004d380 f   libucrt:_fenvutils.obj
 0001:0004c38c       __acrt_fenv_get_control    000000018004d38c f   libucrt:_fenvutils.obj
 0001:0004c480       __acrt_fenv_get_fp_status_word_from_exception_mask 000000018004d480 f   libucrt:_fenvutils.obj
 0001:0004c48c       __acrt_fenv_get_status     000000018004d48c f   libucrt:_fenvutils.obj
 0001:0004c4e0       __acrt_fenv_set_control    000000018004d4e0 f   libucrt:_fenvutils.obj
 0001:0004c628       __acrt_fenv_set_status     000000018004d628 f   libucrt:_fenvutils.obj
 0001:0004c7d0       _clearfp                   000000018004d7d0 f   libucrt:ieee.obj
 0001:0004c840       _control87                 000000018004d840 f   libucrt:ieee.obj
 0001:0004c848       _controlfp                 000000018004d848 f   libucrt:ieee.obj
 0001:0004c854       _fpreset                   000000018004d854 f   libucrt:ieee.obj
 0001:0004c920       _set_controlfp             000000018004d920 f   libucrt:ieee.obj
 0001:0004c954       _statusfp                  000000018004d954 f   libucrt:ieee.obj
 0001:0004cd9c       _handle_error              000000018004dd9c f   libucrt:libm_error.obj
 0001:0004cec4       _handle_errorf             000000018004dec4 f   libucrt:libm_error.obj
 0001:0004cff8       _handle_nan                000000018004dff8 f   libucrt:libm_error.obj
 0001:0004d014       _handle_nanf               000000018004e014 f   libucrt:libm_error.obj
 0001:0004d030       __acrt_initialize_fma3     000000018004e030 f   libucrt:fma3_available.obj
 0001:0004d0a0       _get_FMA3_enable           000000018004e0a0 f   libucrt:fma3_available.obj
 0001:0004d0a8       _set_FMA3_enable           000000018004e0a8 f   libucrt:fma3_available.obj
 0001:0004d0c0       _log10_special             000000018004e0c0 f   libucrt:log_special.obj
 0001:0004d0e0       _log10f_special            000000018004e0e0 f   libucrt:log_special.obj
 0001:0004d100       _log_special               000000018004e100 f   libucrt:log_special.obj
 0001:0004d1b8       _logf_special              000000018004e1b8 f   libucrt:log_special.obj
 0001:0004d274       __acrt_OutputDebugStringA  000000018004e274 f   libucrt:outputdebugstringa.obj
 0001:0004d320       _get_fpsr                  000000018004e320 f   libucrt:fpsr.obj
 0001:0004d330       _set_fpsr                  000000018004e330 f   libucrt:fpsr.obj
 0001:0004d33a       _fclrf                     000000018004e33a f   libucrt:fpsr.obj
 0001:0004d34e       _frnd                      000000018004e34e f   libucrt:fpsr.obj
 0001:0004d370       _errcode                   000000018004e370 f   libucrt:fpexcept.obj
 0001:0004d3b4       _except1                   000000018004e3b4 f   libucrt:fpexcept.obj
 0001:0004d4a8       _except2                   000000018004e4a8 f   libucrt:fpexcept.obj
 0001:0004d5e4       _handle_exc                000000018004e5e4 f   libucrt:fpexcept.obj
 0001:0004d84c       _handle_qnan2              000000018004e84c f   libucrt:fpexcept.obj
 0001:0004d854       _raise_exc                 000000018004e854 f   libucrt:fpexcept.obj
 0001:0004d87c       _raise_exc_ex              000000018004e87c f   libucrt:fpexcept.obj
 0001:0004db8c       _raise_excf                000000018004eb8c f   libucrt:fpexcept.obj
 0001:0004dbb8       _set_errno_from_matherr    000000018004ebb8 f   libucrt:fpexcept.obj
 0001:0004dbe8       _umatherr                  000000018004ebe8 f   libucrt:fpexcept.obj
 0001:0004dcbc       _clrfp                     000000018004ecbc f   libucrt:fpctrl.obj
 0001:0004dcdc       _ctrlfp                    000000018004ecdc f   libucrt:fpctrl.obj
 0001:0004dd58       _set_statfp                000000018004ed58 f   libucrt:fpctrl.obj
 0001:0004dd78       _statfp                    000000018004ed78 f   libucrt:fpctrl.obj
 0001:0004df8c       _mbstowcs_l                000000018004ef8c f   libucrt:mbstowcs.obj
 0001:0004df94       _mbstowcs_s_l              000000018004ef94 f   libucrt:mbstowcs.obj
 0001:0004e0c8       mbstowcs                   000000018004f0c8 f   libucrt:mbstowcs.obj
 0001:0004e0e4       mbstowcs_s                 000000018004f0e4 f   libucrt:mbstowcs.obj
 0001:0004e104       _add_exp                   000000018004f104 f   libucrt:util.obj
 0001:0004e154       _decomp                    000000018004f154 f   libucrt:util.obj
 0001:0004e284       _get_exp                   000000018004f284 f   libucrt:util.obj
 0001:0004e2a4       _set_bexp                  000000018004f2a4 f   libucrt:util.obj
 0001:0004e2d4       _set_exp                   000000018004f2d4 f   libucrt:util.obj
 0001:0004e30c       _sptype                    000000018004f30c f   libucrt:util.obj
 0001:0004e380       _FindPESection             000000018004f380 f   LIBCMT:pesect.obj
 0001:0004e3d0       _IsNonwritableInCurrentImage 000000018004f3d0 f   LIBCMT:pesect.obj
 0001:0004e420       _ValidateImageBase         000000018004f420 f   LIBCMT:pesect.obj
 0001:0004e450       ??1type_info@@UEAA@XZ      000000018004f450 f   LIBCMT:std_type_info_static.obj
 0001:0004e45c       ??_Gtype_info@@UEAAPEAXI@Z 000000018004f45c f i LIBCMT:std_type_info_static.obj
 0001:0004e45c       ??_Etype_info@@UEAAPEAXI@Z 000000018004f45c f i LIBCMT:std_type_info_static.obj
 0001:0004e488       __GSHandlerCheck           000000018004f488 f   LIBCMT:gshandler.obj
 0001:0004e4a8       __GSHandlerCheckCommon     000000018004f4a8 f   LIBCMT:gshandler.obj
 0001:0004e520       __security_check_cookie    000000018004f520 f   LIBCMT:amdsecgs.obj
 0001:0004e544       ??3@YAXPEAX_K@Z            000000018004f544 f   LIBCMT:delete_scalar_size.obj
 0001:0004e54c       __GSHandlerCheck_SEH       000000018004f54c f   LIBCMT:gshandlerseh.obj
 0001:0004e5d4       __raise_securityfailure    000000018004f5d4 f   LIBCMT:gs_report.obj
 0001:0004e608       __report_gsfailure         000000018004f608 f   LIBCMT:gs_report.obj
 0001:0004e6dc       __report_rangecheckfailure 000000018004f6dc f   LIBCMT:gs_report.obj
 0001:0004e6f0       __report_securityfailure   000000018004f6f0 f   LIBCMT:gs_report.obj
 0001:0004e78c       __report_securityfailureEx 000000018004f78c f   LIBCMT:gs_report.obj
 0001:0004e990       __chkstk                   000000018004f990 f   LIBCMT:chkstk.obj
 0001:0004e990       _alloca_probe              000000018004f990 f   LIBCMT:chkstk.obj
 0001:0004e9e4       ??3@YAXPEAX@Z              000000018004f9e4 f   LIBCMT:delete_scalar.obj
 0001:0004e9e9       RtlUnwindEx                000000018004f9e9 f   kernel32:KERNEL32.dll
 0001:0004e9ef       InterlockedPushEntrySList  000000018004f9ef f   kernel32:KERNEL32.dll
 0001:0004e9f5       InterlockedFlushSList      000000018004f9f5 f   kernel32:KERNEL32.dll
 0001:0004e9fb       GetLastError               000000018004f9fb f   kernel32:KERNEL32.dll
 0001:0004ea01       SetLastError               000000018004fa01 f   kernel32:KERNEL32.dll
 0001:0004ea07       EnterCriticalSection       000000018004fa07 f   kernel32:KERNEL32.dll
 0001:0004ea0d       LeaveCriticalSection       000000018004fa0d f   kernel32:KERNEL32.dll
 0001:0004ea13       DeleteCriticalSection      000000018004fa13 f   kernel32:KERNEL32.dll
 0001:0004ea19       InitializeCriticalSectionAndSpinCount 000000018004fa19 f   kernel32:KERNEL32.dll
 0001:0004ea1f       TlsAlloc                   000000018004fa1f f   kernel32:KERNEL32.dll
 0001:0004ea25       TlsGetValue                000000018004fa25 f   kernel32:KERNEL32.dll
 0001:0004ea2b       TlsSetValue                000000018004fa2b f   kernel32:KERNEL32.dll
 0001:0004ea31       TlsFree                    000000018004fa31 f   kernel32:KERNEL32.dll
 0001:0004ea37       FreeLibrary                000000018004fa37 f   kernel32:KERNEL32.dll
 0001:0004ea3d       GetProcAddress             000000018004fa3d f   kernel32:KERNEL32.dll
 0001:0004ea43       LoadLibraryExW             000000018004fa43 f   kernel32:KERNEL32.dll
 0001:0004ea49       EncodePointer              000000018004fa49 f   kernel32:KERNEL32.dll
 0001:0004ea4f       RaiseException             000000018004fa4f f   kernel32:KERNEL32.dll
 0001:0004ea55       RtlPcToFileHeader          000000018004fa55 f   kernel32:KERNEL32.dll
 0001:0004ea5b       GetCurrentProcess          000000018004fa5b f   kernel32:KERNEL32.dll
 0001:0004ea61       ExitProcess                000000018004fa61 f   kernel32:KERNEL32.dll
 0001:0004ea67       TerminateProcess           000000018004fa67 f   kernel32:KERNEL32.dll
 0001:0004ea6d       GetModuleHandleExW         000000018004fa6d f   kernel32:KERNEL32.dll
 0001:0004ea73       GetModuleFileNameW         000000018004fa73 f   kernel32:KERNEL32.dll
 0001:0004ea79       HeapAlloc                  000000018004fa79 f   kernel32:KERNEL32.dll
 0001:0004ea7f       HeapFree                   000000018004fa7f f   kernel32:KERNEL32.dll
 0001:0004ea85       GetDateFormatW             000000018004fa85 f   kernel32:KERNEL32.dll
 0001:0004ea8b       GetTimeFormatW             000000018004fa8b f   kernel32:KERNEL32.dll
 0001:0004ea91       CompareStringW             000000018004fa91 f   kernel32:KERNEL32.dll
 0001:0004ea97       LCMapStringW               000000018004fa97 f   kernel32:KERNEL32.dll
 0001:0004ea9d       GetLocaleInfoW             000000018004fa9d f   kernel32:KERNEL32.dll
 0001:0004eaa3       IsValidLocale              000000018004faa3 f   kernel32:KERNEL32.dll
 0001:0004eaa9       GetUserDefaultLCID         000000018004faa9 f   kernel32:KERNEL32.dll
 0001:0004eaaf       EnumSystemLocalesW         000000018004faaf f   kernel32:KERNEL32.dll
 0001:0004eab5       GetStdHandle               000000018004fab5 f   kernel32:KERNEL32.dll
 0001:0004eabb       GetFileType                000000018004fabb f   kernel32:KERNEL32.dll
 0001:0004eac1       CloseHandle                000000018004fac1 f   kernel32:KERNEL32.dll
 0001:0004eac7       GetCurrentThread           000000018004fac7 f   kernel32:KERNEL32.dll
 0001:0004eacd       FindClose                  000000018004facd f   kernel32:KERNEL32.dll
 0001:0004ead3       FindFirstFileExW           000000018004fad3 f   kernel32:KERNEL32.dll
 0001:0004ead9       FindNextFileW              000000018004fad9 f   kernel32:KERNEL32.dll
 0001:0004eadf       IsValidCodePage            000000018004fadf f   kernel32:KERNEL32.dll
 0001:0004eae5       GetACP                     000000018004fae5 f   kernel32:KERNEL32.dll
 0001:0004eaeb       GetOEMCP                   000000018004faeb f   kernel32:KERNEL32.dll
 0001:0004eaf1       GetCPInfo                  000000018004faf1 f   kernel32:KERNEL32.dll
 0001:0004eaf7       GetCommandLineA            000000018004faf7 f   kernel32:KERNEL32.dll
 0001:0004eafd       GetCommandLineW            000000018004fafd f   kernel32:KERNEL32.dll
 0001:0004eb03       MultiByteToWideChar        000000018004fb03 f   kernel32:KERNEL32.dll
 0001:0004eb09       WideCharToMultiByte        000000018004fb09 f   kernel32:KERNEL32.dll
 0001:0004eb0f       GetEnvironmentStringsW     000000018004fb0f f   kernel32:KERNEL32.dll
 0001:0004eb15       FreeEnvironmentStringsW    000000018004fb15 f   kernel32:KERNEL32.dll
 0001:0004eb1b       SetEnvironmentVariableW    000000018004fb1b f   kernel32:KERNEL32.dll
 0001:0004eb21       GetProcessHeap             000000018004fb21 f   kernel32:KERNEL32.dll
 0001:0004eb27       SetConsoleCtrlHandler      000000018004fb27 f   kernel32:KERNEL32.dll
 0001:0004eb2d       FlushFileBuffers           000000018004fb2d f   kernel32:KERNEL32.dll
 0001:0004eb33       WriteFile                  000000018004fb33 f   kernel32:KERNEL32.dll
 0001:0004eb39       GetConsoleCP               000000018004fb39 f   kernel32:KERNEL32.dll
 0001:0004eb3f       GetConsoleMode             000000018004fb3f f   kernel32:KERNEL32.dll
 0001:0004eb45       SetStdHandle               000000018004fb45 f   kernel32:KERNEL32.dll
 0001:0004eb4b       CreateFileW                000000018004fb4b f   kernel32:KERNEL32.dll
 0001:0004eb51       GetFileSizeEx              000000018004fb51 f   kernel32:KERNEL32.dll
 0001:0004eb57       SetFilePointerEx           000000018004fb57 f   kernel32:KERNEL32.dll
 0001:0004eb5d       GetStringTypeW             000000018004fb5d f   kernel32:KERNEL32.dll
 0001:0004eb63       HeapSize                   000000018004fb63 f   kernel32:KERNEL32.dll
 0001:0004eb69       HeapReAlloc                000000018004fb69 f   kernel32:KERNEL32.dll
 0001:0004eb6f       ReadFile                   000000018004fb6f f   kernel32:KERNEL32.dll
 0001:0004eb75       ReadConsoleW               000000018004fb75 f   kernel32:KERNEL32.dll
 0001:0004eb7b       SetEndOfFile               000000018004fb7b f   kernel32:KERNEL32.dll
 0001:0004eb81       WriteConsoleW              000000018004fb81 f   kernel32:KERNEL32.dll
 0001:0004eb87       OutputDebugStringW         000000018004fb87 f   kernel32:KERNEL32.dll
 0001:0004eb90       strrchr                    000000018004fb90 f   libvcruntime:strrchr.obj
 0001:0004ecc0       _local_unwind              000000018004fcc0 f   libvcruntime:jmpuwind.obj
 0001:0004ed00       memcmp                     000000018004fd00 f   libvcruntime:memcmp.obj
 0001:0004edc8       strchr                     000000018004fdc8 f   libvcruntime:strchr.obj
 0001:0004ee48       wcschr                     000000018004fe48 f   libvcruntime:wcschr.obj
 0001:0004eec1       RtlUnwind                  000000018004fec1 f   kernel32:KERNEL32.dll
 0001:0004eee0       _guard_dispatch_icall_nop  000000018004fee0 f   LIBCMT:guard_dispatch.obj
 0001:0004ef00       _guard_xfg_dispatch_icall_nop 000000018004ff00 f   LIBCMT:guard_xfg_dispatch.obj
 0002:00000000       __imp_QueryPerformanceCounter 0000000180051000     kernel32:KERNEL32.dll
 0002:00000008       __imp_GetCurrentProcessId  0000000180051008     kernel32:KERNEL32.dll
 0002:00000010       __imp_GetCurrentThreadId   0000000180051010     kernel32:KERNEL32.dll
 0002:00000018       __imp_GetSystemTimeAsFileTime 0000000180051018     kernel32:KERNEL32.dll
 0002:00000020       __imp_InitializeSListHead  0000000180051020     kernel32:KERNEL32.dll
 0002:00000028       __imp_RtlCaptureContext    0000000180051028     kernel32:KERNEL32.dll
 0002:00000030       __imp_RtlLookupFunctionEntry 0000000180051030     kernel32:KERNEL32.dll
 0002:00000038       __imp_RtlVirtualUnwind     0000000180051038     kernel32:KERNEL32.dll
 0002:00000040       __imp_IsDebuggerPresent    0000000180051040     kernel32:KERNEL32.dll
 0002:00000048       __imp_UnhandledExceptionFilter 0000000180051048     kernel32:KERNEL32.dll
 0002:00000050       __imp_SetUnhandledExceptionFilter 0000000180051050     kernel32:KERNEL32.dll
 0002:00000058       __imp_GetStartupInfoW      0000000180051058     kernel32:KERNEL32.dll
 0002:00000060       __imp_IsProcessorFeaturePresent 0000000180051060     kernel32:KERNEL32.dll
 0002:00000068       __imp_GetModuleHandleW     0000000180051068     kernel32:KERNEL32.dll
 0002:00000070       __imp_OutputDebugStringW   0000000180051070     kernel32:KERNEL32.dll
 0002:00000078       __imp_RtlUnwindEx          0000000180051078     kernel32:KERNEL32.dll
 0002:00000080       __imp_InterlockedPushEntrySList 0000000180051080     kernel32:KERNEL32.dll
 0002:00000088       __imp_InterlockedFlushSList 0000000180051088     kernel32:KERNEL32.dll
 0002:00000090       __imp_GetLastError         0000000180051090     kernel32:KERNEL32.dll
 0002:00000098       __imp_SetLastError         0000000180051098     kernel32:KERNEL32.dll
 0002:000000a0       __imp_EnterCriticalSection 00000001800510a0     kernel32:KERNEL32.dll
 0002:000000a8       __imp_LeaveCriticalSection 00000001800510a8     kernel32:KERNEL32.dll
 0002:000000b0       __imp_DeleteCriticalSection 00000001800510b0     kernel32:KERNEL32.dll
 0002:000000b8       __imp_InitializeCriticalSectionAndSpinCount 00000001800510b8     kernel32:KERNEL32.dll
 0002:000000c0       __imp_TlsAlloc             00000001800510c0     kernel32:KERNEL32.dll
 0002:000000c8       __imp_TlsGetValue          00000001800510c8     kernel32:KERNEL32.dll
 0002:000000d0       __imp_TlsSetValue          00000001800510d0     kernel32:KERNEL32.dll
 0002:000000d8       __imp_TlsFree              00000001800510d8     kernel32:KERNEL32.dll
 0002:000000e0       __imp_FreeLibrary          00000001800510e0     kernel32:KERNEL32.dll
 0002:000000e8       __imp_GetProcAddress       00000001800510e8     kernel32:KERNEL32.dll
 0002:000000f0       __imp_LoadLibraryExW       00000001800510f0     kernel32:KERNEL32.dll
 0002:000000f8       __imp_EncodePointer        00000001800510f8     kernel32:KERNEL32.dll
 0002:00000100       __imp_RaiseException       0000000180051100     kernel32:KERNEL32.dll
 0002:00000108       __imp_RtlPcToFileHeader    0000000180051108     kernel32:KERNEL32.dll
 0002:00000110       __imp_GetCurrentProcess    0000000180051110     kernel32:KERNEL32.dll
 0002:00000118       __imp_ExitProcess          0000000180051118     kernel32:KERNEL32.dll
 0002:00000120       __imp_TerminateProcess     0000000180051120     kernel32:KERNEL32.dll
 0002:00000128       __imp_GetModuleHandleExW   0000000180051128     kernel32:KERNEL32.dll
 0002:00000130       __imp_GetModuleFileNameW   0000000180051130     kernel32:KERNEL32.dll
 0002:00000138       __imp_HeapAlloc            0000000180051138     kernel32:KERNEL32.dll
 0002:00000140       __imp_HeapFree             0000000180051140     kernel32:KERNEL32.dll
 0002:00000148       __imp_GetDateFormatW       0000000180051148     kernel32:KERNEL32.dll
 0002:00000150       __imp_GetTimeFormatW       0000000180051150     kernel32:KERNEL32.dll
 0002:00000158       __imp_CompareStringW       0000000180051158     kernel32:KERNEL32.dll
 0002:00000160       __imp_LCMapStringW         0000000180051160     kernel32:KERNEL32.dll
 0002:00000168       __imp_GetLocaleInfoW       0000000180051168     kernel32:KERNEL32.dll
 0002:00000170       __imp_IsValidLocale        0000000180051170     kernel32:KERNEL32.dll
 0002:00000178       __imp_GetUserDefaultLCID   0000000180051178     kernel32:KERNEL32.dll
 0002:00000180       __imp_EnumSystemLocalesW   0000000180051180     kernel32:KERNEL32.dll
 0002:00000188       __imp_GetStdHandle         0000000180051188     kernel32:KERNEL32.dll
 0002:00000190       __imp_GetFileType          0000000180051190     kernel32:KERNEL32.dll
 0002:00000198       __imp_CloseHandle          0000000180051198     kernel32:KERNEL32.dll
 0002:000001a0       __imp_GetCurrentThread     00000001800511a0     kernel32:KERNEL32.dll
 0002:000001a8       __imp_FindClose            00000001800511a8     kernel32:KERNEL32.dll
 0002:000001b0       __imp_FindFirstFileExW     00000001800511b0     kernel32:KERNEL32.dll
 0002:000001b8       __imp_FindNextFileW        00000001800511b8     kernel32:KERNEL32.dll
 0002:000001c0       __imp_IsValidCodePage      00000001800511c0     kernel32:KERNEL32.dll
 0002:000001c8       __imp_GetACP               00000001800511c8     kernel32:KERNEL32.dll
 0002:000001d0       __imp_GetOEMCP             00000001800511d0     kernel32:KERNEL32.dll
 0002:000001d8       __imp_GetCPInfo            00000001800511d8     kernel32:KERNEL32.dll
 0002:000001e0       __imp_GetCommandLineA      00000001800511e0     kernel32:KERNEL32.dll
 0002:000001e8       __imp_GetCommandLineW      00000001800511e8     kernel32:KERNEL32.dll
 0002:000001f0       __imp_MultiByteToWideChar  00000001800511f0     kernel32:KERNEL32.dll
 0002:000001f8       __imp_WideCharToMultiByte  00000001800511f8     kernel32:KERNEL32.dll
 0002:00000200       __imp_GetEnvironmentStringsW 0000000180051200     kernel32:KERNEL32.dll
 0002:00000208       __imp_FreeEnvironmentStringsW 0000000180051208     kernel32:KERNEL32.dll
 0002:00000210       __imp_SetEnvironmentVariableW 0000000180051210     kernel32:KERNEL32.dll
 0002:00000218       __imp_GetProcessHeap       0000000180051218     kernel32:KERNEL32.dll
 0002:00000220       __imp_SetConsoleCtrlHandler 0000000180051220     kernel32:KERNEL32.dll
 0002:00000228       __imp_FlushFileBuffers     0000000180051228     kernel32:KERNEL32.dll
 0002:00000230       __imp_WriteFile            0000000180051230     kernel32:KERNEL32.dll
 0002:00000238       __imp_GetConsoleCP         0000000180051238     kernel32:KERNEL32.dll
 0002:00000240       __imp_GetConsoleMode       0000000180051240     kernel32:KERNEL32.dll
 0002:00000248       __imp_SetStdHandle         0000000180051248     kernel32:KERNEL32.dll
 0002:00000250       __imp_CreateFileW          0000000180051250     kernel32:KERNEL32.dll
 0002:00000258       __imp_GetFileSizeEx        0000000180051258     kernel32:KERNEL32.dll
 0002:00000260       __imp_SetFilePointerEx     0000000180051260     kernel32:KERNEL32.dll
 0002:00000268       __imp_GetStringTypeW       0000000180051268     kernel32:KERNEL32.dll
 0002:00000270       __imp_HeapSize             0000000180051270     kernel32:KERNEL32.dll
 0002:00000278       __imp_HeapReAlloc          0000000180051278     kernel32:KERNEL32.dll
 0002:00000280       __imp_ReadFile             0000000180051280     kernel32:KERNEL32.dll
 0002:00000288       __imp_ReadConsoleW         0000000180051288     kernel32:KERNEL32.dll
 0002:00000290       __imp_SetEndOfFile         0000000180051290     kernel32:KERNEL32.dll
 0002:00000298       __imp_WriteConsoleW        0000000180051298     kernel32:KERNEL32.dll
 0002:000002a0       __imp_RtlUnwind            00000001800512a0     kernel32:KERNEL32.dll
 0002:000002a8       \177KERNEL32_NULL_THUNK_DATA 00000001800512a8     kernel32:KERNEL32.dll
 0002:000002b0       __guard_check_icall_fptr   00000001800512b0     LIBCMT:guard_support.obj
 0002:000002b8       __guard_xfg_check_icall_fptr 00000001800512b8     LIBCMT:guard_support.obj
 0002:000002c0       __guard_dispatch_icall_fptr 00000001800512c0     LIBCMT:guard_support.obj
 0002:000002c8       __guard_xfg_dispatch_icall_fptr 00000001800512c8     LIBCMT:guard_support.obj
 0002:000002d0       __guard_xfg_table_dispatch_icall_fptr 00000001800512d0     LIBCMT:guard_support.obj
 0002:000002d8       __xc_a                     00000001800512d8     LIBCMT:initializers.obj
 0002:000002e0       __xc_z                     00000001800512e0     LIBCMT:initializers.obj
 0002:000002e8       __xi_a                     00000001800512e8     LIBCMT:initializers.obj
 0002:000002f0       __acrt_stdio_initializer   00000001800512f0     libucrt:stdio_initializer.obj
 0002:000002f8       __acrt_multibyte_initializer 00000001800512f8     libucrt:multibyte_initializer.obj
 0002:00000300       __acrt_tran_fma3_initializer 0000000180051300     libucrt:fma3_initializer.obj
 0002:00000308       __xi_z                     0000000180051308     LIBCMT:initializers.obj
 0002:00000310       __xp_a                     0000000180051310     LIBCMT:initializers.obj
 0002:00000318       __acrt_locale_terminator   0000000180051318     libucrt:locale_initializer.obj
 0002:00000320       __dcrt_console_output_terminator 0000000180051320     libucrt:console_output_initializer.obj
 0002:00000328       __acrt_stdio_terminator    0000000180051328     libucrt:stdio_initializer.obj
 0002:00000330       __xp_z                     0000000180051330     LIBCMT:initializers.obj
 0002:00000338       __xt_a                     0000000180051338     LIBCMT:initializers.obj
 0002:00000340       __xt_z                     0000000180051340     LIBCMT:initializers.obj
 0002:00000970       _pRawDllMain               0000000180051970     LIBCMT:dll_dllmain.obj
 0002:00000970       _pDefaultRawDllMain        0000000180051970     LIBCMT:dll_dllmain.obj
 0002:00000980       __xmm@ffffffffffffffffffffffffffffffff 0000000180051980     LIBCMT:utility.obj
 0002:00000990       _pDestructExceptionObject  0000000180051990     libvcruntime:ehhelpers.obj
 0002:000010a0       ??_C@_08EHJDFFNH@__based?$CI@ 00000001800520a0     libvcruntime:undname.obj
 0002:000010b0       ??_C@_07KOLFKCDI@__cdecl@  00000001800520b0     libvcruntime:undname.obj
 0002:000010b8       ??_C@_08GHMPAG@__pascal@   00000001800520b8     libvcruntime:undname.obj
 0002:000010c8       ??_C@_09IFJBGAPI@__stdcall@ 00000001800520c8     libvcruntime:undname.obj
 0002:000010d8       ??_C@_0L@NPHFGOKO@__thiscall@ 00000001800520d8     libvcruntime:undname.obj
 0002:000010e8       ??_C@_0L@JMKHOMEK@__fastcall@ 00000001800520e8     libvcruntime:undname.obj
 0002:000010f8       ??_C@_0N@BCKKPABJ@__vectorcall@ 00000001800520f8     libvcruntime:undname.obj
 0002:00001108       ??_C@_09HIJEGCPM@__clrcall@ 0000000180052108     libvcruntime:undname.obj
 0002:00001114       ??_C@_06GHPCKEAG@__eabi@   0000000180052114     libvcruntime:undname.obj
 0002:00001120       ??_C@_09IOPIDJLG@__swift_1@ 0000000180052120     libvcruntime:undname.obj
 0002:00001130       ??_C@_09KFNFGKHF@__swift_2@ 0000000180052130     libvcruntime:undname.obj
 0002:00001140       ??_C@_07JOMMBBKO@__ptr64@  0000000180052140     libvcruntime:undname.obj
 0002:00001148       ??_C@_0L@PILCLIHE@__restrict@ 0000000180052148     libvcruntime:undname.obj
 0002:00001158       ??_C@_0M@GFIIJFMG@__unaligned@ 0000000180052158     libvcruntime:undname.obj
 0002:00001168       ??_C@_09DHDLOLLB@restrict?$CI@ 0000000180052168     libvcruntime:undname.obj
 0002:00001172       ??_C@_00CNPNBAHC@@         0000000180052172     libvcruntime:undname.obj
 0002:00001174       ??_C@_04NIHEBCM@?5new@     0000000180052174     libvcruntime:undname.obj
 0002:00001180       ??_C@_07FPCDHGMM@?5delete@ 0000000180052180     libvcruntime:undname.obj
 0002:00001188       ??_C@_01NEMOKFLO@?$DN@     0000000180052188     libvcruntime:undname.obj
 0002:0000118c       ??_C@_02GPIOPFAK@?$DO?$DO@ 000000018005218c     libvcruntime:undname.obj
 0002:00001190       ??_C@_02FODMEDOG@?$DM?$DM@ 0000000180052190     libvcruntime:undname.obj
 0002:00001194       ??_C@_01DCLJPIOD@?$CB@     0000000180052194     libvcruntime:undname.obj
 0002:00001198       ??_C@_02EGOFBIJA@?$DN?$DN@ 0000000180052198     libvcruntime:undname.obj
 0002:0000119c       ??_C@_02FDNJECIE@?$CB?$DN@ 000000018005219c     libvcruntime:undname.obj
 0002:000011a0       ??_C@_02GPECMEKF@?$FL?$FN@ 00000001800521a0     libvcruntime:undname.obj
 0002:000011a8       ??_C@_08LHJFAFGD@operator@ 00000001800521a8     libvcruntime:undname.obj
 0002:000011b4       ??_C@_02HBOOOICD@?9?$DO@   00000001800521b4     libvcruntime:undname.obj
 0002:000011b8       ??_C@_01NBENCBCI@?$CK@     00000001800521b8     libvcruntime:undname.obj
 0002:000011bc       ??_C@_02ECNGHCIF@?$CL?$CL@ 00000001800521bc     libvcruntime:undname.obj
 0002:000011c0       ??_C@_02BAABKJLB@?9?9@     00000001800521c0     libvcruntime:undname.obj
 0002:000011c4       ??_C@_01JOAMLHOP@?9@       00000001800521c4     libvcruntime:undname.obj
 0002:000011c8       ??_C@_01MIFGBAGJ@?$CL@     00000001800521c8     libvcruntime:undname.obj
 0002:000011cc       ??_C@_01HNPIGOCE@?$CG@     00000001800521cc     libvcruntime:undname.obj
 0002:000011d0       ??_C@_03MNHNFDLC@?9?$DO?$CK@ 00000001800521d0     libvcruntime:undname.obj
 0002:000011d4       ??_C@_01KMDKNFGN@?1@       00000001800521d4     libvcruntime:undname.obj
 0002:000011d8       ??_C@_01FGNFDNOH@?$CF@     00000001800521d8     libvcruntime:undname.obj
 0002:000011dc       ??_C@_01MNNFJEPP@?$DM@     00000001800521dc     libvcruntime:undname.obj
 0002:000011e0       ??_C@_02EHCHHCKH@?$DM?$DN@ 00000001800521e0     libvcruntime:undname.obj
 0002:000011e4       ??_C@_01PPODPGHN@?$DO@     00000001800521e4     libvcruntime:undname.obj
 0002:000011e8       ??_C@_02EEKDKGMJ@?$DO?$DN@ 00000001800521e8     libvcruntime:undname.obj
 0002:000011ec       ??_C@_01IHBHIGKO@?0@       00000001800521ec     libvcruntime:undname.obj
 0002:000011f0       ??_C@_02HCKGKOFO@?$CI?$CJ@ 00000001800521f0     libvcruntime:undname.obj
 0002:000011f4       ??_C@_01PJKLJHI@?$HO@      00000001800521f4     libvcruntime:undname.obj
 0002:000011f8       ??_C@_01JKBOJNNK@?$FO@     00000001800521f8     libvcruntime:undname.obj
 0002:000011fc       ??_C@_01DNKMNLPK@?$HM@     00000001800521fc     libvcruntime:undname.obj
 0002:00001200       ??_C@_02PPKAJPJL@?$CG?$CG@ 0000000180052200     libvcruntime:undname.obj
 0002:00001204       ??_C@_02NONPIBCD@?$HM?$HM@ 0000000180052204     libvcruntime:undname.obj
 0002:00001208       ??_C@_02FPIMKNGF@?$CK?$DN@ 0000000180052208     libvcruntime:undname.obj
 0002:0000120c       ??_C@_02FOEOMHFC@?$CL?$DN@ 000000018005220c     libvcruntime:undname.obj
 0002:00001210       ??_C@_02FKMDLLOA@?9?$DN@   0000000180052210     libvcruntime:undname.obj
 0002:00001214       ??_C@_02FJEHGPIO@?1?$DN@   0000000180052214     libvcruntime:undname.obj
 0002:00001218       ??_C@_02FENAOKFI@?$CF?$DN@ 0000000180052218     libvcruntime:undname.obj
 0002:0000121c       ??_C@_03IKFCCPFF@?$DO?$DO?$DN@ 000000018005221c     libvcruntime:undname.obj
 0002:00001220       ??_C@_03CDNPDDLA@?$DM?$DM?$DN@ 0000000180052220     libvcruntime:undname.obj
 0002:00001224       ??_C@_02FGJGFEAB@?$CG?$DN@ 0000000180052224     libvcruntime:undname.obj
 0002:00001228       ??_C@_02DHLNPPGH@?$HM?$DN@ 0000000180052228     libvcruntime:undname.obj
 0002:0000122c       ??_C@_02MHEGNOJ@?$FO?$DN@  000000018005222c     libvcruntime:undname.obj
 0002:00001230       ??_C@_09IFPLHPGF@?$GAvftable?8@ 0000000180052230     libvcruntime:undname.obj
 0002:00001240       ??_C@_09BLBHBJP@?$GAvbtable?8@ 0000000180052240     libvcruntime:undname.obj
 0002:00001250       ??_C@_07FEEIOKP@?$GAvcall?8@ 0000000180052250     libvcruntime:undname.obj
 0002:00001258       ??_C@_08LLFFHHDJ@?$GAtypeof?8@ 0000000180052258     libvcruntime:undname.obj
 0002:00001268       ??_C@_0BF@KDPPACIK@?$GAlocal?5static?5guard?8@ 0000000180052268     libvcruntime:undname.obj
 0002:00001280       ??_C@_08OBABFOLI@?$GAstring?8@ 0000000180052280     libvcruntime:undname.obj
 0002:00001290       ??_C@_0BD@JDLKDPAB@?$GAvbase?5destructor?8@ 0000000180052290     libvcruntime:undname.obj
 0002:000012a8       ??_C@_0BN@DEGPLNFK@?$GAvector?5deleting?5destructor?8@ 00000001800522a8     libvcruntime:undname.obj
 0002:000012c8       ??_C@_0BO@OBMKPJIG@?$GAdefault?5constructor?5closure?8@ 00000001800522c8     libvcruntime:undname.obj
 0002:000012e8       ??_C@_0BN@IMDCHIKM@?$GAscalar?5deleting?5destructor?8@ 00000001800522e8     libvcruntime:undname.obj
 0002:00001308       ??_C@_0BO@PFGOCPJJ@?$GAvector?5constructor?5iterator?8@ 0000000180052308     libvcruntime:undname.obj
 0002:00001328       ??_C@_0BN@LFPFMEDL@?$GAvector?5destructor?5iterator?8@ 0000000180052328     libvcruntime:undname.obj
 0002:00001348       ??_C@_0CE@IKBNEHA@?$GAvector?5vbase?5constructor?5itera@ 0000000180052348     libvcruntime:undname.obj
 0002:00001370       ??_C@_0BL@NILFHHPC@?$GAvirtual?5displacement?5map?8@ 0000000180052370     libvcruntime:undname.obj
 0002:00001390       ??_C@_0CB@JONCMFFK@?$GAeh?5vector?5constructor?5iterator@ 0000000180052390     libvcruntime:undname.obj
 0002:000013b8       ??_C@_0CA@GCEOPDGL@?$GAeh?5vector?5destructor?5iterator?8@ 00000001800523b8     libvcruntime:undname.obj
 0002:000013d8       ??_C@_0CH@OOJPLCPH@?$GAeh?5vector?5vbase?5constructor?5it@ 00000001800523d8     libvcruntime:undname.obj
 0002:00001400       ??_C@_0BL@LLKPOHJI@?$GAcopy?5constructor?5closure?8@ 0000000180052400     libvcruntime:undname.obj
 0002:00001420       ??_C@_0BA@KBCDOMBN@?$GAudt?5returning?8@ 0000000180052420     libvcruntime:undname.obj
 0002:00001430       ??_C@_03KLGMFNMG@?$GAEH@   0000000180052430     libvcruntime:undname.obj
 0002:00001434       ??_C@_05KHLCHHI@?$GARTTI@  0000000180052434     libvcruntime:undname.obj
 0002:00001440       ??_C@_0BA@KKLDJDLB@?$GAlocal?5vftable?8@ 0000000180052440     libvcruntime:undname.obj
 0002:00001450       ??_C@_0CE@IIHCMGGL@?$GAlocal?5vftable?5constructor?5clos@ 0000000180052450     libvcruntime:undname.obj
 0002:00001474       ??_C@_06FHBGPFGH@?5new?$FL?$FN@ 0000000180052474     libvcruntime:undname.obj
 0002:00001480       ??_C@_09LBNFPBCA@?5delete?$FL?$FN@ 0000000180052480     libvcruntime:undname.obj
 0002:00001490       ??_C@_0P@HJKNJFNN@?$GAomni?5callsig?8@ 0000000180052490     libvcruntime:undname.obj
 0002:000014a0       ??_C@_0BL@CNOONJFP@?$GAplacement?5delete?5closure?8@ 00000001800524a0     libvcruntime:undname.obj
 0002:000014c0       ??_C@_0BN@CKNJLHMB@?$GAplacement?5delete?$FL?$FN?5closure?8@ 00000001800524c0     libvcruntime:undname.obj
 0002:000014e0       ??_C@_0CG@CFDHKGGD@?$GAmanaged?5vector?5constructor?5ite@ 00000001800524e0     libvcruntime:undname.obj
 0002:00001508       ??_C@_0CF@IMGKMJNO@?$GAmanaged?5vector?5destructor?5iter@ 0000000180052508     libvcruntime:undname.obj
 0002:00001530       ??_C@_0CG@HLDDJMAG@?$GAeh?5vector?5copy?5constructor?5ite@ 0000000180052530     libvcruntime:undname.obj
 0002:00001558       ??_C@_0CM@FCBBDIGB@?$GAeh?5vector?5vbase?5copy?5construct@ 0000000180052558     libvcruntime:undname.obj
 0002:00001588       ??_C@_0BL@CLIPGLGB@?$GAdynamic?5initializer?5for?5?8@ 0000000180052588     libvcruntime:undname.obj
 0002:000015a8       ??_C@_0CB@PDBIFEP@?$GAdynamic?5atexit?5destructor?5for?5@ 00000001800525a8     libvcruntime:undname.obj
 0002:000015d0       ??_C@_0CD@CGAJBKEJ@?$GAvector?5copy?5constructor?5iterat@ 00000001800525d0     libvcruntime:undname.obj
 0002:000015f8       ??_C@_0CJ@GJELGAMM@?$GAvector?5vbase?5copy?5constructor?5@ 00000001800525f8     libvcruntime:undname.obj
 0002:00001628       ??_C@_0CL@FGIJHLCE@?$GAmanaged?5vector?5copy?5constructo@ 0000000180052628     libvcruntime:undname.obj
 0002:00001658       ??_C@_0BM@PMGGMLDN@?$GAlocal?5static?5thread?5guard?8@ 0000000180052658     libvcruntime:undname.obj
 0002:00001678       ??_C@_0N@BDNMDMOL@operator?5?$CC?$CC?5@ 0000000180052678     libvcruntime:undname.obj
 0002:00001688       ??_C@_0BC@GGEBGALA@operator?5co_await@ 0000000180052688     libvcruntime:undname.obj
 0002:000016a0       ??_C@_0M@GAAIMMOH@operator?$DM?$DN?$DO@ 00000001800526a0     libvcruntime:undname.obj
 0002:000016b0       ??_C@_0BC@DAFEJGAK@?5Type?5Descriptor?8@ 00000001800526b0     libvcruntime:undname.obj
 0002:000016c8       ??_C@_0BM@LDKODKLH@?5Base?5Class?5Descriptor?5at?5?$CI@ 00000001800526c8     libvcruntime:undname.obj
 0002:000016e8       ??_C@_0BD@LGICGFMM@?5Base?5Class?5Array?8@ 00000001800526e8     libvcruntime:undname.obj
 0002:00001700       ??_C@_0BN@MECKDCOJ@?5Class?5Hierarchy?5Descriptor?8@ 0000000180052700     libvcruntime:undname.obj
 0002:00001720       ??_C@_0BK@CFCOFLF@?5Complete?5Object?5Locator?8@ 0000000180052720     libvcruntime:undname.obj
 0002:00001740       ??_C@_0BG@JNJLAMPM@?$GAanonymous?5namespace?8@ 0000000180052740     libvcruntime:undname.obj
 0002:00001758       ??_C@_04HEJADOOB@CV?3?5@   0000000180052758     libvcruntime:undname.obj
 0002:00001760       ??_C@_02MOLJINC@?3?3@      0000000180052760     libvcruntime:undname.obj
 0002:00001768       ??_C@_0BE@JAEOCHPE@template?9parameter?9@ 0000000180052768     libvcruntime:undname.obj
 0002:00001780       ??_C@_0BF@LNLGBBNL@?$GAtemplate?9parameter?9@ 0000000180052780     libvcruntime:undname.obj
 0002:00001798       ??_C@_0O@KHGCOMHP@generic?9type?9@ 0000000180052798     libvcruntime:undname.obj
 0002:000017a8       ??_C@_0P@ODDENDLM@?$GAgeneric?9type?9@ 00000001800527a8     libvcruntime:undname.obj
 0002:000017b8       ??_C@_02OHHJMEON@?8?8@     00000001800527b8     libvcruntime:undname.obj
 0002:000017c0       ??_C@_0BN@IBLMMFAP@?$GAnon?9type?9template?9parameter@ 00000001800527c0     libvcruntime:undname.obj
 0002:000017e0       ??_C@_03DLDNIBIK@?$CFlf@   00000001800527e0     libvcruntime:undname.obj
 0002:000017e4       ??_C@_04OFALKAJ@?$DP?$DP_C@ 00000001800527e4     libvcruntime:undname.obj
 0002:000017ec       ??_C@_03KHICJKCI@?4?4?4@   00000001800527ec     libvcruntime:undname.obj
 0002:000017f0       ??_C@_04HIBGFPH@NULL@      00000001800527f0     libvcruntime:undname.obj
 0002:000017f8       ??_C@_02DPKJAMEF@?$CFd@    00000001800527f8     libvcruntime:undname.obj
 0002:00001800       ??_C@_0BK@IHCCFNEL@?$GAtemplate?9type?9parameter?9@ 0000000180052800     libvcruntime:undname.obj
 0002:00001820       ??_C@_0BK@OFCNNNKO@?$GAgeneric?9class?9parameter?9@ 0000000180052820     libvcruntime:undname.obj
 0002:00001840       ??_C@_0BL@NGJBLFIL@?$GAgeneric?9method?9parameter?9@ 0000000180052840     libvcruntime:undname.obj
 0002:0000185c       ??_C@_04GKJNKENE@void@     000000018005285c     libvcruntime:undname.obj
 0002:00001868       ??_C@_0BE@EODMJLIF@?$GAtemplate?9parameter@ 0000000180052868     libvcruntime:undname.obj
 0002:0000187c       ??_C@_03OPGICMGF@?$HN?8?5@ 000000018005287c     libvcruntime:undname.obj
 0002:00001880       ??_C@_02IGFCGPIL@?$HN?8@   0000000180052880     libvcruntime:undname.obj
 0002:00001888       ??_C@_0N@CBHHHENL@?$GAvtordispex?$HL@ 0000000180052888     libvcruntime:undname.obj
 0002:00001898       ??_C@_0L@GHPFDFH@?$GAvtordisp?$HL@ 0000000180052898     libvcruntime:undname.obj
 0002:000018a8       ??_C@_0L@HNGCOGAE@?$GAadjustor?$HL@ 00000001800528a8     libvcruntime:undname.obj
 0002:000018b8       ??_C@_0CB@KJDOOODE@?$GAlocal?5static?5destructor?5helper@ 00000001800528b8     libvcruntime:undname.obj
 0002:000018e0       ??_C@_0DB@ILEFOCIJ@?$GAtemplate?5static?5data?5member?5co@ 00000001800528e0     libvcruntime:undname.obj
 0002:00001918       ??_C@_0DA@HGFJFBBE@?$GAtemplate?5static?5data?5member?5de@ 0000000180052918     libvcruntime:undname.obj
 0002:00001948       ??_C@_07PGOEDBHP@static?5@ 0000000180052948     libvcruntime:undname.obj
 0002:00001950       ??_C@_08NIEOINHE@virtual?5@ 0000000180052950     libvcruntime:undname.obj
 0002:00001960       ??_C@_09LAPHOOG@private?3?5@ 0000000180052960     libvcruntime:undname.obj
 0002:00001970       ??_C@_0M@GAIFPFIP@protected?3?5@ 0000000180052970     libvcruntime:undname.obj
 0002:00001980       ??_C@_08GPDDCMKI@public?3?5@ 0000000180052980     libvcruntime:undname.obj
 0002:00001990       ??_C@_08KJLFOPNE@?$FLthunk?$FN?3@ 0000000180052990     libvcruntime:undname.obj
 0002:000019a0       ??_C@_0M@DHNBOJMP@extern?5?$CCC?$CC?5@ 00000001800529a0     libvcruntime:undname.obj
 0002:000019ac       ??_C@_02KCKGHPCA@?$CJ?5@   00000001800529ac     libvcruntime:undname.obj
 0002:000019b0       ??_C@_05CIHEBHNO@char?5@   00000001800529b0     libvcruntime:undname.obj
 0002:000019b8       ??_C@_06EHJMALKF@short?5@  00000001800529b8     libvcruntime:undname.obj
 0002:000019c0       ??_C@_04LAHKHJMA@int?5@    00000001800529c0     libvcruntime:undname.obj
 0002:000019c8       ??_C@_05CJIMAING@long?5@   00000001800529c8     libvcruntime:undname.obj
 0002:000019d0       ??_C@_09EBBEKKIH@unsigned?5@ 00000001800529d0     libvcruntime:undname.obj
 0002:000019dc       ??_C@_05BEFAKPML@void?5@   00000001800529dc     libvcruntime:undname.obj
 0002:000019e8       ??_C@_09GAIEOBLP@volatile?5@ 00000001800529e8     libvcruntime:undname.obj
 0002:000019f8       ??_C@_08PABEKFH@volatile@  00000001800529f8     libvcruntime:undname.obj
 0002:00001a08       ??_C@_0BA@LKIJLKPP@std?3?3nullptr_t?5@ 0000000180052a08     libvcruntime:undname.obj
 0002:00001a18       ??_C@_0P@GCOCNKDM@std?3?3nullptr_t@ 0000000180052a18     libvcruntime:undname.obj
 0002:00001a28       ??_C@_0L@EGPHHEKN@?$DMellipsis?$DO@ 0000000180052a28     libvcruntime:undname.obj
 0002:00001a34       ??_C@_04EENFHACM@?0?4?4?4@ 0000000180052a34     libvcruntime:undname.obj
 0002:00001a40       ??_C@_0M@ELJOJFFH@?0?$DMellipsis?$DO@ 0000000180052a40     libvcruntime:undname.obj
 0002:00001a50       ??_C@_09DNHFEOJI@?5noexcept@ 0000000180052a50     libvcruntime:undname.obj
 0002:00001a5c       ??_C@_03PBJBJNON@cpu@      0000000180052a5c     libvcruntime:undname.obj
 0002:00001a60       ??_C@_03DCBBJBAA@amp@      0000000180052a60     libvcruntime:undname.obj
 0002:00001a64       ??_C@_02KEGNLNML@?0?5@     0000000180052a64     libvcruntime:undname.obj
 0002:00001a68       ??_C@_04ENMBGAPA@char@     0000000180052a68     libvcruntime:undname.obj
 0002:00001a70       ??_C@_05BFKKPKCG@short@    0000000180052a70     libvcruntime:undname.obj
 0002:00001a78       ??_C@_03JBIPMCLC@int@      0000000180052a78     libvcruntime:undname.obj
 0002:00001a7c       ??_C@_04GOKPGOLB@long@     0000000180052a7c     libvcruntime:undname.obj
 0002:00001a84       ??_C@_05KNFBNCOH@float@    0000000180052a84     libvcruntime:undname.obj
 0002:00001a8c       ??_C@_06BNJCAIGJ@double@   0000000180052a8c     libvcruntime:undname.obj
 0002:00001a94       ??_C@_04DDKJGDCM@bool@     0000000180052a94     libvcruntime:undname.obj
 0002:00001a9c       ??_C@_06EBGKOKIG@__int8@   0000000180052a9c     libvcruntime:undname.obj
 0002:00001aa8       ??_C@_07ICFHOGAF@__int16@  0000000180052aa8     libvcruntime:undname.obj
 0002:00001ab0       ??_C@_07OFLPPHGP@__int32@  0000000180052ab0     libvcruntime:undname.obj
 0002:00001ab8       ??_C@_07LFCOJCAC@__int64@  0000000180052ab8     libvcruntime:undname.obj
 0002:00001ac0       ??_C@_08GAHOLHEO@__int128@ 0000000180052ac0     libvcruntime:undname.obj
 0002:00001ad0       ??_C@_09EEKGDCPH@?$DMunknown?$DO@ 0000000180052ad0     libvcruntime:undname.obj
 0002:00001ae0       ??_C@_07CFHGOPCN@char8_t@  0000000180052ae0     libvcruntime:undname.obj
 0002:00001ae8       ??_C@_08HBIPOFJB@char16_t@ 0000000180052ae8     libvcruntime:undname.obj
 0002:00001af8       ??_C@_08IECNCBKG@char32_t@ 0000000180052af8     libvcruntime:undname.obj
 0002:00001b08       ??_C@_07CLGGIAMF@wchar_t@  0000000180052b08     libvcruntime:undname.obj
 0002:00001b10       ??_C@_06GCICPBLB@__w64?5@  0000000180052b10     libvcruntime:undname.obj
 0002:00001b18       ??_C@_07NFANNNEC@UNKNOWN@  0000000180052b18     libvcruntime:undname.obj
 0002:00001b20       ??_C@_07EDHNAJHC@signed?5@ 0000000180052b20     libvcruntime:undname.obj
 0002:00001b28       ??_C@_05BNCCCJPP@const@    0000000180052b28     libvcruntime:undname.obj
 0002:00001b30       ??_C@_09EFNPDFFP@?5volatile@ 0000000180052b30     libvcruntime:undname.obj
 0002:00001b40       ??_C@_0P@GCIFDJCJ@?$GAunknown?5ecsu?8@ 0000000180052b40     libvcruntime:undname.obj
 0002:00001b50       ??_C@_06MOJHIBMG@union?5@  0000000180052b50     libvcruntime:undname.obj
 0002:00001b58       ??_C@_07DIBCDNGL@struct?5@ 0000000180052b58     libvcruntime:undname.obj
 0002:00001b60       ??_C@_06LJBABKPM@class?5@  0000000180052b60     libvcruntime:undname.obj
 0002:00001b68       ??_C@_08KOFANOFK@coclass?5@ 0000000180052b68     libvcruntime:undname.obj
 0002:00001b78       ??_C@_0N@DLIEFKNA@cointerface?5@ 0000000180052b78     libvcruntime:undname.obj
 0002:00001b88       ??_C@_05LJGMCFOG@enum?5@   0000000180052b88     libvcruntime:undname.obj
 0002:00001b90       ??_C@_06LIJLOJAG@const?5@  0000000180052b90     libvcruntime:undname.obj
 0002:00001b98       ??_C@_02KJPKDIBN@?$CG?5@   0000000180052b98     libvcruntime:undname.obj
 0002:00001b9c       ??_C@_03PCKGMOPB@?$CG?$CG?5@ 0000000180052b9c     libvcruntime:undname.obj
 0002:00001ba0       ??_C@_0M@EALIELKG@cli?3?3array?$DM@ 0000000180052ba0     libvcruntime:undname.obj
 0002:00001bb0       ??_C@_0O@GKABPPIF@cli?3?3pin_ptr?$DM@ 0000000180052bb0     libvcruntime:undname.obj
 0002:00001bc0       ??_C@_02GOGNNPBN@?$CJ?$FL@ 0000000180052bc0     libvcruntime:undname.obj
 0002:00001bc4       ??_C@_06EEGAIFAK@?$HLflat?$HN@ 0000000180052bc4     libvcruntime:undname.obj
 0002:00001bcc       ??_C@_05JIBOFOHK@?$HLfor?5@ 0000000180052bcc     libvcruntime:undname.obj
 0002:00001bd4       ??_C@_02MDINNEEG@s?5@      0000000180052bd4     libvcruntime:undname.obj
 0002:00001be0       ??_7DNameNode@@6B@         0000000180052be0     libvcruntime:undname.obj
 0002:00001c08       ??_7charNode@@6B@          0000000180052c08     libvcruntime:undname.obj
 0002:00001c30       ??_7pcharNode@@6B@         0000000180052c30     libvcruntime:undname.obj
 0002:00001c58       ??_7pDNameNode@@6B@        0000000180052c58     libvcruntime:undname.obj
 0002:00001c80       ??_7DNameStatusNode@@6B@   0000000180052c80     libvcruntime:undname.obj
 0002:00001ca8       ??_7pairNode@@6B@          0000000180052ca8     libvcruntime:undname.obj
 0002:00001dd0       ??_C@_04OKOHEJBO@?5?$DP?$DP?5@ 0000000180052dd0     libvcruntime:undname.obj
 0002:00001de0       ?nodes@?1??make@DNameStatusNode@@SAPEBV2@W4DNameStatus@@@Z@4QBV2@B 0000000180052de0     libvcruntime:undname.obj
 0002:00001e20       ?s_negLengthTab@FH4@@3QBCB 0000000180052e20     libvcruntime:risctrnsctrl.obj
 0002:00001e30       ?s_shiftTab@FH4@@3QBEB     0000000180052e30     libvcruntime:risctrnsctrl.obj
 0002:00001f90       ??_C@_1DM@KHCHBNEB@?$AAa?$AAp?$AAi?$AA?9?$AAm?$AAs?$AA?9?$AAw?$AAi?$AAn?$AA?9?$AAc?$AAo?$AAr?$AAe@ 0000000180052f90     libvcruntime:winapi_downlevel.obj
 0002:00001fd0       ??_C@_1DK@LPPGFMPP@?$AAa?$AAp?$AAi?$AA?9?$AAm?$AAs?$AA?9?$AAw?$AAi?$AAn?$AA?9?$AAc?$AAo?$AAr?$AAe@ 0000000180052fd0     libvcruntime:winapi_downlevel.obj
 0002:00002010       ??_C@_1BC@GDMECMAK@?$AAk?$AAe?$AAr?$AAn?$AAe?$AAl?$AA3?$AA2@ 0000000180053010     libvcruntime:winapi_downlevel.obj
 0002:00002028       ??_C@_1BA@PFFKHIOG@?$AAa?$AAp?$AAi?$AA?9?$AAm?$AAs?$AA?9@ 0000000180053028     libvcruntime:winapi_downlevel.obj
 0002:00002040       ??_C@_08KNHFBNJ@FlsAlloc@  0000000180053040     libvcruntime:winapi_downlevel.obj
 0002:00002058       ??_C@_07PEJMOBNF@FlsFree@  0000000180053058     libvcruntime:winapi_downlevel.obj
 0002:00002068       ??_C@_0M@GDNOONDI@FlsGetValue@ 0000000180053068     libvcruntime:winapi_downlevel.obj
 0002:00002080       ??_C@_0M@JCPCPOEF@FlsSetValue@ 0000000180053080     libvcruntime:winapi_downlevel.obj
 0002:00002098       ??_C@_0BM@HCFOFFN@InitializeCriticalSectionEx@ 0000000180053098     libvcruntime:winapi_downlevel.obj
 0002:000020c0       ??_7exception@std@@6B@     00000001800530c0     libvcruntime:frame.obj
 0002:000020d0       ??_C@_0BC@EOODALEL@Unknown?5exception@ 00000001800530d0     libvcruntime:frame.obj
 0002:000020f0       ??_7bad_exception@std@@6B@ 00000001800530f0     libvcruntime:frame.obj
 0002:00002100       ??_C@_0O@DPKOEFFH@bad?5exception@ 0000000180053100     libvcruntime:frame.obj
 0002:00002110       standard_lookup_table      0000000180053110     libucrt:output.obj
 0002:00002170       format_validation_lookup_table 0000000180053170     libucrt:output.obj
 0002:000021d0       ??_C@_1O@CEDCILHN@?$AA?$CI?$AAn?$AAu?$AAl?$AAl?$AA?$CJ@ 00000001800531d0     libucrt:output.obj
 0002:000021e0       ??_C@_06OJHGLDPL@?$CInull?$CJ@ 00000001800531e0     libucrt:output.obj
 0002:000021f0       __acrt_exception_action_table 00000001800531f0     libucrt:exception_filter.obj
 0002:000022b0       __acrt_signal_action_table_count 00000001800532b0     libucrt:exception_filter.obj
 0002:000022b8       __acrt_signal_action_table_size 00000001800532b8     libucrt:exception_filter.obj
 0002:000022c0       __acrt_signal_action_first_fpe_index 00000001800532c0     libucrt:exception_filter.obj
 0002:000022c8       __acrt_signal_action_fpe_count 00000001800532c8     libucrt:exception_filter.obj
 0002:000022d0       RtlNtPathSeperatorString   00000001800532d0     libucrt:exit.obj
 0002:000022e0       ??_C@_13FPGAJAPJ@?$AA?2@   00000001800532e0     libucrt:exit.obj
 0002:000022e8       RtlDosPathSeperatorsString 00000001800532e8     libucrt:exit.obj
 0002:000022f8       ??_C@_15MNCACJLI@?$AA?2?$AA?1@ 00000001800532f8     libucrt:exit.obj
 0002:00002300       RtlAlternateDosPathSeperatorString 0000000180053300     libucrt:exit.obj
 0002:00002310       ??_C@_13CGOKJPIL@?$AA?1@   0000000180053310     libucrt:exit.obj
 0002:00002318       ??_C@_1BI@BGOHAHKC@?$AAm?$AAs?$AAc?$AAo?$AAr?$AAe?$AAe?$AA?4?$AAd?$AAl?$AAl@ 0000000180053318     libucrt:exit.obj
 0002:00002330       ??_C@_0P@MIGLKIOC@CorExitProcess@ 0000000180053330     libucrt:exit.obj
 0002:00002440       _Fenv1                     0000000180053440     libucrt:atox.obj
 0002:00002660       ??_C@_1EA@JGEFHKEI@?$AAa?$AAp?$AAi?$AA?9?$AAm?$AAs?$AA?9?$AAw?$AAi?$AAn?$AA?9?$AAc?$AAo?$AAr?$AAe@ 0000000180053660     libucrt:winapi_thunks.obj
 0002:000026a0       ??_C@_1DI@IJCEHOCB@?$AAa?$AAp?$AAi?$AA?9?$AAm?$AAs?$AA?9?$AAw?$AAi?$AAn?$AA?9?$AAc?$AAo?$AAr?$AAe@ 00000001800536a0     libucrt:winapi_thunks.obj
 0002:000026e0       ??_C@_1EI@MPIAOHOC@?$AAa?$AAp?$AAi?$AA?9?$AAm?$AAs?$AA?9?$AAw?$AAi?$AAn?$AA?9?$AAc?$AAo?$AAr?$AAe@ 00000001800536e0     libucrt:winapi_thunks.obj
 0002:00002730       ??_C@_1FK@FPHCKFIE@?$AAa?$AAp?$AAi?$AA?9?$AAm?$AAs?$AA?9?$AAw?$AAi?$AAn?$AA?9?$AAc?$AAo?$AAr?$AAe@ 0000000180053730     libucrt:winapi_thunks.obj
 0002:00002790       ??_C@_1EM@DILCGIIO@?$AAa?$AAp?$AAi?$AA?9?$AAm?$AAs?$AA?9?$AAw?$AAi?$AAn?$AA?9?$AAc?$AAo?$AAr?$AAe@ 0000000180053790     libucrt:winapi_thunks.obj
 0002:000027e0       ??_C@_1DM@LNCGDDPN@?$AAa?$AAp?$AAi?$AA?9?$AAm?$AAs?$AA?9?$AAw?$AAi?$AAn?$AA?9?$AAc?$AAo?$AAr?$AAe@ 00000001800537e0     libucrt:winapi_thunks.obj
 0002:00002820       ??_C@_1DO@FPAPJEMD@?$AAa?$AAp?$AAi?$AA?9?$AAm?$AAs?$AA?9?$AAw?$AAi?$AAn?$AA?9?$AAc?$AAo?$AAr?$AAe@ 0000000180053820     libucrt:winapi_thunks.obj
 0002:00002860       ??_C@_1DK@NDHNAHIO@?$AAa?$AAp?$AAi?$AA?9?$AAm?$AAs?$AA?9?$AAw?$AAi?$AAn?$AA?9?$AAc?$AAo?$AAr?$AAe@ 0000000180053860     libucrt:winapi_thunks.obj
 0002:000028a0       ??_C@_1DM@KGHDGBCM@?$AAa?$AAp?$AAi?$AA?9?$AAm?$AAs?$AA?9?$AAw?$AAi?$AAn?$AA?9?$AAc?$AAo?$AAr?$AAe@ 00000001800538a0     libucrt:winapi_thunks.obj
 0002:000028e0       ??_C@_1EO@IJIOEFOH@?$AAa?$AAp?$AAi?$AA?9?$AAm?$AAs?$AA?9?$AAw?$AAi?$AAn?$AA?9?$AAr?$AAt?$AAc?$AAo@ 00000001800538e0     libucrt:winapi_thunks.obj
 0002:00002930       ??_C@_1FG@HHGEKANL@?$AAa?$AAp?$AAi?$AA?9?$AAm?$AAs?$AA?9?$AAw?$AAi?$AAn?$AA?9?$AAs?$AAe?$AAc?$AAu@ 0000000180053930     libucrt:winapi_thunks.obj
 0002:00002990       ??_C@_1EG@DBIOJECG@?$AAe?$AAx?$AAt?$AA?9?$AAm?$AAs?$AA?9?$AAw?$AAi?$AAn?$AA?9?$AAn?$AAt?$AAu?$AAs@ 0000000180053990     libucrt:winapi_thunks.obj
 0002:000029e0       ??_C@_1EO@FIHMJCLF@?$AAe?$AAx?$AAt?$AA?9?$AAm?$AAs?$AA?9?$AAw?$AAi?$AAn?$AA?9?$AAn?$AAt?$AAu?$AAs@ 00000001800539e0     libucrt:winapi_thunks.obj
 0002:00002a30       ??_C@_1BC@DNHGCMLG@?$AAa?$AAd?$AAv?$AAa?$AAp?$AAi?$AA3?$AA2@ 0000000180053a30     libucrt:winapi_thunks.obj
 0002:00002a48       ??_C@_1M@OAIMIKLP@?$AAn?$AAt?$AAd?$AAl?$AAl@ 0000000180053a48     libucrt:winapi_thunks.obj
 0002:00002a60       ??_C@_1EG@DPGNFKGC@?$AAa?$AAp?$AAi?$AA?9?$AAm?$AAs?$AA?9?$AAw?$AAi?$AAn?$AA?9?$AAa?$AAp?$AAp?$AAm@ 0000000180053a60     libucrt:winapi_thunks.obj
 0002:00002aa8       ??_C@_1O@BCCLBEOE@?$AAu?$AAs?$AAe?$AAr?$AA3?$AA2@ 0000000180053aa8     libucrt:winapi_thunks.obj
 0002:00002ab8       ??_C@_1BA@IAIFMGEF@?$AAe?$AAx?$AAt?$AA?9?$AAm?$AAs?$AA?9@ 0000000180053ab8     libucrt:winapi_thunks.obj
 0002:00002ad0       ??_C@_0BA@FHFNEAED@AreFileApisANSI@ 0000000180053ad0     libucrt:winapi_thunks.obj
 0002:00002ae8       ??_C@_0BA@IHGNDAEB@CompareStringEx@ 0000000180053ae8     libucrt:winapi_thunks.obj
 0002:00002b00       ??_C@_0BE@LJANKFHF@EnumSystemLocalesEx@ 0000000180053b00     libucrt:winapi_thunks.obj
 0002:00002b40       ??_C@_0BA@HNOPNCHB@GetActiveWindow@ 0000000180053b40     libucrt:winapi_thunks.obj
 0002:00002b58       ??_C@_0BA@EPCJIIPD@GetDateFormatEx@ 0000000180053b58     libucrt:winapi_thunks.obj
 0002:00002b70       ??_C@_0BJ@DIBIJBHA@GetEnabledXStateFeatures@ 0000000180053b70     libucrt:winapi_thunks.obj
 0002:00002b98       ??_C@_0BD@HHGDFDBJ@GetLastActivePopup@ 0000000180053b98     libucrt:winapi_thunks.obj
 0002:00002bb8       ??_C@_0BA@ONOKGCMP@GetLocaleInfoEx@ 0000000180053bb8     libucrt:winapi_thunks.obj
 0002:00002bd0       ??_C@_0BI@DFKBFLJE@GetProcessWindowStation@ 0000000180053bd0     libucrt:winapi_thunks.obj
 0002:00002bf0       ??_C@_0BP@FPNJPEJC@GetSystemTimePreciseAsFileTime@ 0000000180053bf0     libucrt:winapi_thunks.obj
 0002:00002c18       ??_C@_0BA@CIJJKCJJ@GetTimeFormatEx@ 0000000180053c18     libucrt:winapi_thunks.obj
 0002:00002c30       ??_C@_0BJ@PBCCBIPI@GetUserDefaultLocaleName@ 0000000180053c30     libucrt:winapi_thunks.obj
 0002:00002c58       ??_C@_0BK@DEKFELLI@GetUserObjectInformationW@ 0000000180053c58     libucrt:winapi_thunks.obj
 0002:00002c80       ??_C@_0BG@IKLDMBLM@GetXStateFeaturesMask@ 0000000180053c80     libucrt:winapi_thunks.obj
 0002:00002ca8       ??_C@_0BC@CELBKLLA@IsValidLocaleName@ 0000000180053ca8     libucrt:winapi_thunks.obj
 0002:00002cc8       ??_C@_0O@KKBNKAPF@LCMapStringEx@ 0000000180053cc8     libucrt:winapi_thunks.obj
 0002:00002ce0       ??_C@_0BB@CDHDDLLP@LCIDToLocaleName@ 0000000180053ce0     libucrt:winapi_thunks.obj
 0002:00002d00       ??_C@_0BB@HBDEELFH@LocaleNameToLCID@ 0000000180053d00     libucrt:winapi_thunks.obj
 0002:00002d20       ??_C@_0BE@KINNKFDA@LocateXStateFeature@ 0000000180053d20     libucrt:winapi_thunks.obj
 0002:00002d40       ??_C@_0M@CHKKJDAI@MessageBoxA@ 0000000180053d40     libucrt:winapi_thunks.obj
 0002:00002d58       ??_C@_0M@DLDCCGNP@MessageBoxW@ 0000000180053d58     libucrt:winapi_thunks.obj
 0002:00002d68       ??_C@_0N@PPOMPGGK@RoInitialize@ 0000000180053d68     libucrt:winapi_thunks.obj
 0002:00002d80       ??_C@_0P@LLFHBIJD@RoUninitialize@ 0000000180053d80     libucrt:winapi_thunks.obj
 0002:00002d98       ??_C@_0CF@OJOFEIGO@AppPolicyGetProcessTerminationM@ 0000000180053d98     libucrt:winapi_thunks.obj
 0002:00002dc8       ??_C@_0CF@NNDFDCOC@AppPolicyGetThreadInitializatio@ 0000000180053dc8     libucrt:winapi_thunks.obj
 0002:00002df8       ??_C@_0CE@OICFMIKE@AppPolicyGetShowDeveloperDiagno@ 0000000180053df8     libucrt:winapi_thunks.obj
 0002:00002e20       ??_C@_0BL@ODDJNEDA@AppPolicyGetWindowingModel@ 0000000180053e20     libucrt:winapi_thunks.obj
 0002:00002e48       ??_C@_0BI@BKLFFAPO@SetThreadStackGuarantee@ 0000000180053e48     libucrt:winapi_thunks.obj
 0002:00002e68       ??_C@_0BC@JEAENNKH@SystemFunction036@ 0000000180053e68     libucrt:winapi_thunks.obj
 0002:00002e7c       ?ccs@?1???$__acrt_stdio_parse_mode@D@@YA?AU__acrt_stdio_stream_mode@@QEBD@Z@4QBDB 0000000180053e7c     libucrt:openfile.obj
 0002:00002e80       ?utf8_encoding@?1???$__acrt_stdio_parse_mode@D@@YA?AU__acrt_stdio_stream_mode@@QEBD@Z@4QBDB 0000000180053e80     libucrt:openfile.obj
 0002:00002e88       ?utf16_encoding@?1???$__acrt_stdio_parse_mode@D@@YA?AU__acrt_stdio_stream_mode@@QEBD@Z@4QBDB 0000000180053e88     libucrt:openfile.obj
 0002:00002e90       ?unicode_encoding@?1???$__acrt_stdio_parse_mode@D@@YA?AU__acrt_stdio_stream_mode@@QEBD@Z@4QBDB 0000000180053e90     libucrt:openfile.obj
 0002:00002e98       ?ccs@?1???$__acrt_stdio_parse_mode@_W@@YA?AU__acrt_stdio_stream_mode@@QEB_W@Z@4QB_WB 0000000180053e98     libucrt:openfile.obj
 0002:00002ea0       ?utf8_encoding@?1???$__acrt_stdio_parse_mode@_W@@YA?AU__acrt_stdio_stream_mode@@QEB_W@Z@4QB_WB 0000000180053ea0     libucrt:openfile.obj
 0002:00002eb0       ?utf16_encoding@?1???$__acrt_stdio_parse_mode@_W@@YA?AU__acrt_stdio_stream_mode@@QEB_W@Z@4QB_WB 0000000180053eb0     libucrt:openfile.obj
 0002:00002ec0       ?unicode_encoding@?1???$__acrt_stdio_parse_mode@_W@@YA?AU__acrt_stdio_stream_mode@@QEB_W@Z@4QB_WB 0000000180053ec0     libucrt:openfile.obj
 0002:00002f50       ??_C@_03OEIAHPBN@INF@      0000000180053f50     libucrt:cvt.obj
 0002:00002f54       ??_C@_03OJHLLCGB@inf@      0000000180053f54     libucrt:cvt.obj
 0002:00002f58       ??_C@_03LKNCIKJB@NAN@      0000000180053f58     libucrt:cvt.obj
 0002:00002f5c       ??_C@_03LHCJEHON@nan@      0000000180053f5c     libucrt:cvt.obj
 0002:00002f60       ??_C@_09OFJJIMPC@NAN?$CISNAN?$CJ@ 0000000180053f60     libucrt:cvt.obj
 0002:00002f70       ??_C@_09IPFBKMDL@nan?$CIsnan?$CJ@ 0000000180053f70     libucrt:cvt.obj
 0002:00002f80       ??_C@_08IKHNHAJ@NAN?$CIIND?$CJ@ 0000000180053f80     libucrt:cvt.obj
 0002:00002f90       ??_C@_08OFCDMILK@nan?$CIind?$CJ@ 0000000180053f90     libucrt:cvt.obj
 0002:00002f9c       ??_C@_05KLBDPFGC@e?$CL000@ 0000000180053f9c     libucrt:cvt.obj
 0002:00003030       __lc_category              0000000180054030     libucrt:wsetlocale.obj
 0002:000030c0       ??_C@_1O@GIFLHMA@?$AAL?$AAC?$AA_?$AAA?$AAL?$AAL@ 00000001800540c0     libucrt:wsetlocale.obj
 0002:000030d0       ??_C@_1BG@PPOMIBNJ@?$AAL?$AAC?$AA_?$AAC?$AAO?$AAL?$AAL?$AAA?$AAT?$AAE@ 00000001800540d0     libucrt:wsetlocale.obj
 0002:000030e8       ??_C@_1BC@FFJGAPJM@?$AAL?$AAC?$AA_?$AAC?$AAT?$AAY?$AAP?$AAE@ 00000001800540e8     libucrt:wsetlocale.obj
 0002:00003100       ??_C@_1BI@PCKFNJFB@?$AAL?$AAC?$AA_?$AAM?$AAO?$AAN?$AAE?$AAT?$AAA?$AAR?$AAY@ 0000000180054100     libucrt:wsetlocale.obj
 0002:00003118       ??_C@_1BG@ENIEDKID@?$AAL?$AAC?$AA_?$AAN?$AAU?$AAM?$AAE?$AAR?$AAI?$AAC@ 0000000180054118     libucrt:wsetlocale.obj
 0002:00003130       ??_C@_1BA@HAAOMIIG@?$AAL?$AAC?$AA_?$AAT?$AAI?$AAM?$AAE@ 0000000180054130     libucrt:wsetlocale.obj
 0002:00003140       ??_C@_15NBPDDFIP@?$AA?$DN?$AA?$DL@ 0000000180054140     libucrt:wsetlocale.obj
 0002:00003148       ??_C@_13PJJBFPED@?$AA?$DL@ 0000000180054148     libucrt:wsetlocale.obj
 0002:0000314c       ??_C@_13NMPKAAJP@?$AA?$DN@ 000000018005414c     libucrt:wsetlocale.obj
 0002:00003150       ??_C@_13IMODFHAA@?$AA?9@   0000000180054150     libucrt:wsetlocale.obj
 0002:00003158       ??_C@_17EFJLDFDO@?$AA?9?$AA_?$AA?4@ 0000000180054158     libucrt:wsetlocale.obj
 0002:00003160       ??_C@_13FHBKNHDA@?$AAC@    0000000180054160     libucrt:wsetlocale.obj
 0002:00003168       ??_C@_17MBJJLFDM@?$AA_?$AA?4?$AA?0@ 0000000180054168     libucrt:wsetlocale.obj
 0002:00003170       ??_C@_13ENNFDPBH@?$AA_@    0000000180054170     libucrt:wsetlocale.obj
 0002:00003174       ??_C@_13JOFGPIOO@?$AA?4@   0000000180054174     libucrt:wsetlocale.obj
 0002:00003180       __lc_time_c                0000000180054180     libucrt:nlsdata.obj
 0002:00003440       ??_C@_03KOEHGMDN@Sun@      0000000180054440     libucrt:nlsdata.obj
 0002:00003444       ??_C@_03PDAGKDH@Mon@       0000000180054444     libucrt:nlsdata.obj
 0002:00003448       ??_C@_03NAGEINEP@Tue@      0000000180054448     libucrt:nlsdata.obj
 0002:0000344c       ??_C@_03MHOMLAJA@Wed@      000000018005444c     libucrt:nlsdata.obj
 0002:00003450       ??_C@_03IOFIKPDN@Thu@      0000000180054450     libucrt:nlsdata.obj
 0002:00003454       ??_C@_03IDIOELNC@Fri@      0000000180054454     libucrt:nlsdata.obj
 0002:00003458       ??_C@_03FEFJNEK@Sat@       0000000180054458     libucrt:nlsdata.obj
 0002:0000345c       ??_C@_06OOPIFAJ@Sunday@    000000018005445c     libucrt:nlsdata.obj
 0002:00003464       ??_C@_06JLEDEDGH@Monday@   0000000180054464     libucrt:nlsdata.obj
 0002:00003470       ??_C@_07BAAGCFCM@Tuesday@  0000000180054470     libucrt:nlsdata.obj
 0002:00003478       ??_C@_09DLIGFAKA@Wednesday@ 0000000180054478     libucrt:nlsdata.obj
 0002:00003488       ??_C@_08HACCIKIA@Thursday@ 0000000180054488     libucrt:nlsdata.obj
 0002:00003494       ??_C@_06JECMNKMI@Friday@   0000000180054494     libucrt:nlsdata.obj
 0002:000034a0       ??_C@_08INBOOONO@Saturday@ 00000001800544a0     libucrt:nlsdata.obj
 0002:000034ac       ??_C@_03JIHJHPIE@Jan@      00000001800544ac     libucrt:nlsdata.obj
 0002:000034b0       ??_C@_03HJBDCHOM@Feb@      00000001800544b0     libucrt:nlsdata.obj
 0002:000034b4       ??_C@_03ODNJBKGA@Mar@      00000001800544b4     libucrt:nlsdata.obj
 0002:000034b8       ??_C@_03LEOLGMJP@Apr@      00000001800544b8     libucrt:nlsdata.obj
 0002:000034bc       ??_C@_03CNMDKL@May@        00000001800544bc     libucrt:nlsdata.obj
 0002:000034c0       ??_C@_03IDFGHECI@Jun@      00000001800544c0     libucrt:nlsdata.obj
 0002:000034c4       ??_C@_03LBGABGKK@Jul@      00000001800544c4     libucrt:nlsdata.obj
 0002:000034c8       ??_C@_03IFJFEIGA@Aug@      00000001800544c8     libucrt:nlsdata.obj
 0002:000034cc       ??_C@_03GGCAPAJC@Sep@      00000001800544cc     libucrt:nlsdata.obj
 0002:000034d0       ??_C@_03BMAOKBAD@Oct@      00000001800544d0     libucrt:nlsdata.obj
 0002:000034d4       ??_C@_03JPJOFNIA@Nov@      00000001800544d4     libucrt:nlsdata.obj
 0002:000034d8       ??_C@_03MKABNOCG@Dec@      00000001800544d8     libucrt:nlsdata.obj
 0002:000034e0       ??_C@_07CGJPFGJA@January@  00000001800544e0     libucrt:nlsdata.obj
 0002:000034e8       ??_C@_08GNJGEPFN@February@ 00000001800544e8     libucrt:nlsdata.obj
 0002:000034f4       ??_C@_05HPCKOFNC@March@    00000001800544f4     libucrt:nlsdata.obj
 0002:000034fc       ??_C@_05DMJDNLEJ@April@    00000001800544fc     libucrt:nlsdata.obj
 0002:00003504       ??_C@_04CNLMGBGM@June@     0000000180054504     libucrt:nlsdata.obj
 0002:0000350c       ??_C@_04MIEPOIFP@July@     000000018005450c     libucrt:nlsdata.obj
 0002:00003514       ??_C@_06LBBHFDDG@August@   0000000180054514     libucrt:nlsdata.obj
 0002:00003520       ??_C@_09BHHEALKD@September@ 0000000180054520     libucrt:nlsdata.obj
 0002:00003530       ??_C@_07JJNFCEND@October@  0000000180054530     libucrt:nlsdata.obj
 0002:00003538       ??_C@_08HCHEGEOA@November@ 0000000180054538     libucrt:nlsdata.obj
 0002:00003548       ??_C@_08EDHMEBNP@December@ 0000000180054548     libucrt:nlsdata.obj
 0002:00003554       ??_C@_02DEDBPAFC@AM@       0000000180054554     libucrt:nlsdata.obj
 0002:00003558       ??_C@_02CJNFDJBF@PM@       0000000180054558     libucrt:nlsdata.obj
 0002:00003560       ??_C@_08BPBNCDIB@MM?1dd?1yy@ 0000000180054560     libucrt:nlsdata.obj
 0002:00003570       ??_C@_0BE@CKGJFCPC@dddd?0?5MMMM?5dd?0?5yyyy@ 0000000180054570     libucrt:nlsdata.obj
 0002:00003588       ??_C@_08JCCMCCIL@HH?3mm?3ss@ 0000000180054588     libucrt:nlsdata.obj
 0002:00003598       ??_C@_17MBGCMIPB@?$AAS?$AAu?$AAn@ 0000000180054598     libucrt:nlsdata.obj
 0002:000035a0       ??_C@_17KBOMKBF@?$AAM?$AAo?$AAn@ 00000001800545a0     libucrt:nlsdata.obj
 0002:000035a8       ??_C@_17BMKGEGOJ@?$AAT?$AAu?$AAe@ 00000001800545a8     libucrt:nlsdata.obj
 0002:000035b0       ??_C@_17CJEDCEPE@?$AAW?$AAe?$AAd@ 00000001800545b0     libucrt:nlsdata.obj
 0002:000035b8       ??_C@_17PDPHAADD@?$AAT?$AAh?$AAu@ 00000001800545b8     libucrt:nlsdata.obj
 0002:000035c0       ??_C@_17HFOLPPLP@?$AAF?$AAr?$AAi@ 00000001800545c0     libucrt:nlsdata.obj
 0002:000035c8       ??_C@_17GGIBDPIH@?$AAS?$AAa?$AAt@ 00000001800545c8     libucrt:nlsdata.obj
 0002:000035d0       ??_C@_1O@IHNHDHPB@?$AAS?$AAu?$AAn?$AAd?$AAa?$AAy@ 00000001800545d0     libucrt:nlsdata.obj
 0002:000035e0       ??_C@_1O@MMNBFLIA@?$AAM?$AAo?$AAn?$AAd?$AAa?$AAy@ 00000001800545e0     libucrt:nlsdata.obj
 0002:000035f0       ??_C@_1BA@ENFBFFEK@?$AAT?$AAu?$AAe?$AAs?$AAd?$AAa?$AAy@ 00000001800545f0     libucrt:nlsdata.obj
 0002:00003600       ??_C@_1BE@EBOGMDOH@?$AAW?$AAe?$AAd?$AAn?$AAe?$AAs?$AAd?$AAa?$AAy@ 0000000180054600     libucrt:nlsdata.obj
 0002:00003618       ??_C@_1BC@HHMNLIHE@?$AAT?$AAh?$AAu?$AAr?$AAs?$AAd?$AAa?$AAy@ 0000000180054618     libucrt:nlsdata.obj
 0002:00003630       ??_C@_1O@PDICJHAG@?$AAF?$AAr?$AAi?$AAd?$AAa?$AAy@ 0000000180054630     libucrt:nlsdata.obj
 0002:00003640       ??_C@_1BC@ENMNNPAJ@?$AAS?$AAa?$AAt?$AAu?$AAr?$AAd?$AAa?$AAy@ 0000000180054640     libucrt:nlsdata.obj
 0002:00003658       ??_C@_17DKNBKCHM@?$AAJ?$AAa?$AAn@ 0000000180054658     libucrt:nlsdata.obj
 0002:00003660       ??_C@_17LMDJEKJN@?$AAF?$AAe?$AAb@ 0000000180054660     libucrt:nlsdata.obj
 0002:00003668       ??_C@_17CKNLEDEC@?$AAM?$AAa?$AAr@ 0000000180054668     libucrt:nlsdata.obj
 0002:00003670       ??_C@_17LFPOIHDD@?$AAA?$AAp?$AAr@ 0000000180054670     libucrt:nlsdata.obj
 0002:00003678       ??_C@_17PNNKMEED@?$AAM?$AAa?$AAy@ 0000000180054678     libucrt:nlsdata.obj
 0002:00003680       ??_C@_17KCJGOCPB@?$AAJ?$AAu?$AAn@ 0000000180054680     libucrt:nlsdata.obj
 0002:00003688       ??_C@_17IJPCKHK@?$AAJ?$AAu?$AAl@ 0000000180054688     libucrt:nlsdata.obj
 0002:00003690       ??_C@_17ICPELBCN@?$AAA?$AAu?$AAg@ 0000000180054690     libucrt:nlsdata.obj
 0002:00003698       ??_C@_17HCHCOKMG@?$AAS?$AAe?$AAp@ 0000000180054698     libucrt:nlsdata.obj
 0002:000036a0       ??_C@_17FNLKOI@?$AAO?$AAc?$AAt@ 00000001800546a0     libucrt:nlsdata.obj
 0002:000036a8       ??_C@_17BBDMLCIG@?$AAN?$AAo?$AAv@ 00000001800546a8     libucrt:nlsdata.obj
 0002:000036b0       ??_C@_17EGKACKIF@?$AAD?$AAe?$AAc@ 00000001800546b0     libucrt:nlsdata.obj
 0002:000036b8       ??_C@_1BA@EFMEIEBA@?$AAJ?$AAa?$AAn?$AAu?$AAa?$AAr?$AAy@ 00000001800546b8     libucrt:nlsdata.obj
 0002:000036c8       ??_C@_1BC@JGDDFFAM@?$AAF?$AAe?$AAb?$AAr?$AAu?$AAa?$AAr?$AAy@ 00000001800546c8     libucrt:nlsdata.obj
 0002:000036e0       ??_C@_1M@IKEENEDF@?$AAM?$AAa?$AAr?$AAc?$AAh@ 00000001800546e0     libucrt:nlsdata.obj
 0002:000036f0       ??_C@_1M@GJNLMHFD@?$AAA?$AAp?$AAr?$AAi?$AAl@ 00000001800546f0     libucrt:nlsdata.obj
 0002:00003700       ??_C@_19EPFLPGAP@?$AAJ?$AAu?$AAn?$AAe@ 0000000180054700     libucrt:nlsdata.obj
 0002:00003710       ??_C@_19BIFMLPCD@?$AAJ?$AAu?$AAl?$AAy@ 0000000180054710     libucrt:nlsdata.obj
 0002:00003720       ??_C@_1O@PAHLKOAC@?$AAA?$AAu?$AAg?$AAu?$AAs?$AAt@ 0000000180054720     libucrt:nlsdata.obj
 0002:00003730       ??_C@_1BE@DKAAMBJL@?$AAS?$AAe?$AAp?$AAt?$AAe?$AAm?$AAb?$AAe?$AAr@ 0000000180054730     libucrt:nlsdata.obj
 0002:00003748       ??_C@_1BA@EPANDLNG@?$AAO?$AAc?$AAt?$AAo?$AAb?$AAe?$AAr@ 0000000180054748     libucrt:nlsdata.obj
 0002:00003758       ??_C@_1BC@BGLIFPF@?$AAN?$AAo?$AAv?$AAe?$AAm?$AAb?$AAe?$AAr@ 0000000180054758     libucrt:nlsdata.obj
 0002:00003770       ??_C@_1BC@FEMKIFH@?$AAD?$AAe?$AAc?$AAe?$AAm?$AAb?$AAe?$AAr@ 0000000180054770     libucrt:nlsdata.obj
 0002:00003784       ??_C@_15ODEHAHHF@?$AAA?$AAM@ 0000000180054784     libucrt:nlsdata.obj
 0002:0000378c       ??_C@_15CLMNNGEL@?$AAP?$AAM@ 000000018005478c     libucrt:nlsdata.obj
 0002:00003798       ??_C@_1BC@IEBCMHCM@?$AAM?$AAM?$AA?1?$AAd?$AAd?$AA?1?$AAy?$AAy@ 0000000180054798     libucrt:nlsdata.obj
 0002:000037b0       ??_C@_1CI@KNAKOEBC@?$AAd?$AAd?$AAd?$AAd?$AA?0?$AA?5?$AAM?$AAM?$AAM?$AAM?$AA?5?$AAd?$AAd?$AA?0?$AA?5@ 00000001800547b0     libucrt:nlsdata.obj
 0002:000037d8       ??_C@_1BC@GDGBMEMK@?$AAH?$AAH?$AA?3?$AAm?$AAm?$AA?3?$AAs?$AAs@ 00000001800547d8     libucrt:nlsdata.obj
 0002:000037f0       ??_C@_1M@BMHNFIME@?$AAe?$AAn?$AA?9?$AAU?$AAS@ 00000001800547f0     libucrt:nlsdata.obj
 0002:00003820       ??_C@_1M@HPNHIDJI@?$AAj?$AAa?$AA?9?$AAJ?$AAP@ 0000000180054820     libucrt:mbctype.obj
 0002:00003830       ??_C@_1M@BIBDDEMK@?$AAz?$AAh?$AA?9?$AAC?$AAN@ 0000000180054830     libucrt:mbctype.obj
 0002:00003840       ??_C@_1M@JLOOOEGK@?$AAk?$AAo?$AA?9?$AAK?$AAR@ 0000000180054840     libucrt:mbctype.obj
 0002:00003850       ??_C@_1M@CLNBBOPM@?$AAz?$AAh?$AA?9?$AAT?$AAW@ 0000000180054850     libucrt:mbctype.obj
 0002:00003860       __newctype                 0000000180054860     libucrt:ctype.obj
 0002:00003b60       __newclmap                 0000000180054b60     libucrt:ctype.obj
 0002:00003ce0       __newcumap                 0000000180054ce0     libucrt:ctype.obj
 0002:00003e60       _wctype                    0000000180054e60     libucrt:ctype.obj
 0002:00004eb0       ??_C@_15EMKDOKLE@?$AAa?$AAr@ 0000000180055eb0     libucrt:lcidtoname_downlevel.obj
 0002:00004eb8       ??_C@_15KNPADPLH@?$AAb?$AAg@ 0000000180055eb8     libucrt:lcidtoname_downlevel.obj
 0002:00004ec0       ??_C@_15EDMHLDMO@?$AAc?$AAa@ 0000000180055ec0     libucrt:lcidtoname_downlevel.obj
 0002:00004ec8       ??_C@_1O@BPEAJADD@?$AAz?$AAh?$AA?9?$AAC?$AAH?$AAS@ 0000000180055ec8     libucrt:lcidtoname_downlevel.obj
 0002:00004ed8       ??_C@_15LJNHCMNK@?$AAc?$AAs@ 0000000180055ed8     libucrt:lcidtoname_downlevel.obj
 0002:00004ee0       ??_C@_15FOMCIDHG@?$AAd?$AAa@ 0000000180055ee0     libucrt:lcidtoname_downlevel.obj
 0002:00004ee8       ??_C@_15NBKABECB@?$AAd?$AAe@ 0000000180055ee8     libucrt:lcidtoname_downlevel.obj
 0002:00004ef0       ??_C@_15GHPEIIAO@?$AAe?$AAl@ 0000000180055ef0     libucrt:lcidtoname_downlevel.obj
 0002:00004ef8       ??_C@_15MNPNEAIF@?$AAe?$AAn@ 0000000180055ef8     libucrt:lcidtoname_downlevel.obj
 0002:00004f00       ??_C@_15GPIOMPMH@?$AAe?$AAs@ 0000000180055f00     libucrt:lcidtoname_downlevel.obj
 0002:00004f08       ??_C@_15NGLOAKJC@?$AAf?$AAi@ 0000000180055f08     libucrt:lcidtoname_downlevel.obj
 0002:00004f10       ??_C@_15FBKGNKAM@?$AAf?$AAr@ 0000000180055f10     libucrt:lcidtoname_downlevel.obj
 0002:00004f18       ??_C@_15KGGCNEFK@?$AAh?$AAe@ 0000000180055f18     libucrt:lcidtoname_downlevel.obj
 0002:00004f20       ??_C@_15PGHLIDMF@?$AAh?$AAu@ 0000000180055f20     libucrt:lcidtoname_downlevel.obj
 0002:00004f28       ??_C@_15BIEMAPLM@?$AAi?$AAs@ 0000000180055f28     libucrt:lcidtoname_downlevel.obj
 0002:00004f30       ??_C@_15IFJLDHAF@?$AAi?$AAt@ 0000000180055f30     libucrt:lcidtoname_downlevel.obj
 0002:00004f38       ??_C@_15GEMIOCAG@?$AAj?$AAa@ 0000000180055f38     libucrt:lcidtoname_downlevel.obj
 0002:00004f40       ??_C@_15EPELEGJA@?$AAk?$AAo@ 0000000180055f40     libucrt:lcidtoname_downlevel.obj
 0002:00004f48       ??_C@_15NDDHIMN@?$AAn?$AAl@ 0000000180055f48     libucrt:lcidtoname_downlevel.obj
 0002:00004f50       ??_C@_15BPIGNHCD@?$AAn?$AAo@ 0000000180055f50     libucrt:lcidtoname_downlevel.obj
 0002:00004f58       ??_C@_15DEOPBLCG@?$AAp?$AAl@ 0000000180055f58     libucrt:lcidtoname_downlevel.obj
 0002:00004f60       ??_C@_15KBECGEFG@?$AAp?$AAt@ 0000000180055f60     libucrt:lcidtoname_downlevel.obj
 0002:00004f68       ??_C@_15GLJCBFMD@?$AAr?$AAo@ 0000000180055f68     libucrt:lcidtoname_downlevel.obj
 0002:00004f70       ??_C@_15FEDGKCDI@?$AAr?$AAu@ 0000000180055f70     libucrt:lcidtoname_downlevel.obj
 0002:00004f78       ??_C@_15GLKMLLHM@?$AAh?$AAr@ 0000000180055f78     libucrt:lcidtoname_downlevel.obj
 0002:00004f80       ??_C@_15CPKMFBDB@?$AAs?$AAk@ 0000000180055f80     libucrt:lcidtoname_downlevel.obj
 0002:00004f88       ??_C@_15BAAIOGMK@?$AAs?$AAq@ 0000000180055f88     libucrt:lcidtoname_downlevel.obj
 0002:00004f90       ??_C@_15INNPNOHD@?$AAs?$AAv@ 0000000180055f90     libucrt:lcidtoname_downlevel.obj
 0002:00004f98       ??_C@_15CABMMOGH@?$AAt?$AAh@ 0000000180055f98     libucrt:lcidtoname_downlevel.obj
 0002:00004fa0       ??_C@_15BPLIHJJM@?$AAt?$AAr@ 0000000180055fa0     libucrt:lcidtoname_downlevel.obj
 0002:00004fa8       ??_C@_15NEOEKKDJ@?$AAu?$AAr@ 0000000180055fa8     libucrt:lcidtoname_downlevel.obj
 0002:00004fb0       ??_C@_15NFICGAJK@?$AAi?$AAd@ 0000000180055fb0     libucrt:lcidtoname_downlevel.obj
 0002:00004fb8       ??_C@_15PJPFLCCM@?$AAu?$AAk@ 0000000180055fb8     libucrt:lcidtoname_downlevel.obj
 0002:00004fc0       ??_C@_15HPJPHDM@?$AAb?$AAe@ 0000000180055fc0     libucrt:lcidtoname_downlevel.obj
 0002:00004fc8       ??_C@_15LCHLGJII@?$AAs?$AAl@ 0000000180055fc8     libucrt:lcidtoname_downlevel.obj
 0002:00004fd0       ??_C@_15PCFJPHHO@?$AAe?$AAt@ 0000000180055fd0     libucrt:lcidtoname_downlevel.obj
 0002:00004fd8       ??_C@_15HPFPGODN@?$AAl?$AAv@ 0000000180055fd8     libucrt:lcidtoname_downlevel.obj
 0002:00004fe0       ??_C@_15NFFGKGLG@?$AAl?$AAt@ 0000000180055fe0     libucrt:lcidtoname_downlevel.obj
 0002:00004fe8       ??_C@_15BDAKCCHN@?$AAf?$AAa@ 0000000180055fe8     libucrt:lcidtoname_downlevel.obj
 0002:00004ff0       ??_C@_15NFGIAIAJ@?$AAv?$AAi@ 0000000180055ff0     libucrt:lcidtoname_downlevel.obj
 0002:00004ff8       ??_C@_15LMKNDMHN@?$AAh?$AAy@ 0000000180055ff8     libucrt:lcidtoname_downlevel.obj
 0002:00005000       ??_C@_15IJBHMCFL@?$AAa?$AAz@ 0000000180056000     libucrt:lcidtoname_downlevel.obj
 0002:00005008       ??_C@_15EKOFJABL@?$AAe?$AAu@ 0000000180056008     libucrt:lcidtoname_downlevel.obj
 0002:00005010       ??_C@_15BGHADCNK@?$AAm?$AAk@ 0000000180056010     libucrt:lcidtoname_downlevel.obj
 0002:00005018       ??_C@_15JDNICKHM@?$AAa?$AAf@ 0000000180056018     libucrt:lcidtoname_downlevel.obj
 0002:00005020       ??_C@_15KPJEDBKD@?$AAk?$AAa@ 0000000180056020     libucrt:lcidtoname_downlevel.obj
 0002:00005028       ??_C@_15PDNFFFEO@?$AAf?$AAo@ 0000000180056028     libucrt:lcidtoname_downlevel.obj
 0002:00005030       ??_C@_15OMLEGLOC@?$AAh?$AAi@ 0000000180056030     libucrt:lcidtoname_downlevel.obj
 0002:00005038       ??_C@_15IDNNENKK@?$AAm?$AAs@ 0000000180056038     libucrt:lcidtoname_downlevel.obj
 0002:00005040       ??_C@_15MACJNBMH@?$AAk?$AAk@ 0000000180056040     libucrt:lcidtoname_downlevel.obj
 0002:00005048       ??_C@_15DKDJEOND@?$AAk?$AAy@ 0000000180056048     libucrt:lcidtoname_downlevel.obj
 0002:00005050       ??_C@_15DFGDLJBG@?$AAs?$AAw@ 0000000180056050     libucrt:lcidtoname_downlevel.obj
 0002:00005058       ??_C@_15BBFAICNG@?$AAu?$AAz@ 0000000180056058     libucrt:lcidtoname_downlevel.obj
 0002:00005060       ??_C@_15DKNDCGEA@?$AAt?$AAt@ 0000000180056060     libucrt:lcidtoname_downlevel.obj
 0002:00005068       ??_C@_15MGIFMDPL@?$AAp?$AAa@ 0000000180056068     libucrt:lcidtoname_downlevel.obj
 0002:00005070       ??_C@_15HCNDBBA@?$AAg?$AAu@ 0000000180056070     libucrt:lcidtoname_downlevel.obj
 0002:00005078       ??_C@_15FNBEIBON@?$AAt?$AAa@ 0000000180056078     libucrt:lcidtoname_downlevel.obj
 0002:00005080       ??_C@_15NCHGBGLK@?$AAt?$AAe@ 0000000180056080     libucrt:lcidtoname_downlevel.obj
 0002:00005088       ??_C@_15PHPHCBPF@?$AAk?$AAn@ 0000000180056088     libucrt:lcidtoname_downlevel.obj
 0002:00005090       ??_C@_15DLGBCKMP@?$AAm?$AAr@ 0000000180056090     libucrt:lcidtoname_downlevel.obj
 0002:00005098       ??_C@_15EABBLBFF@?$AAs?$AAa@ 0000000180056098     libucrt:lcidtoname_downlevel.obj
 0002:000050a0       ??_C@_15CBKOMCOI@?$AAm?$AAn@ 00000001800560a0     libucrt:lcidtoname_downlevel.obj
 0002:000050a8       ??_C@_15CKDMCJAF@?$AAg?$AAl@ 00000001800560a8     libucrt:lcidtoname_downlevel.obj
 0002:000050b0       ??_C@_17CNJFBPG@?$AAk?$AAo?$AAk@ 00000001800560b0     libucrt:lcidtoname_downlevel.obj
 0002:000050b8       ??_C@_17FFBJICPL@?$AAs?$AAy?$AAr@ 00000001800560b8     libucrt:lcidtoname_downlevel.obj
 0002:000050c0       ??_C@_17KPNDCPAF@?$AAd?$AAi?$AAv@ 00000001800560c0     libucrt:lcidtoname_downlevel.obj
 0002:000050c8       ??_C@_11LOCGONAA@@         00000001800560c8     libucrt:lcidtoname_downlevel.obj
 0002:000050d0       ??_C@_1M@OKAHONE@?$AAa?$AAr?$AA?9?$AAS?$AAA@ 00000001800560d0     libucrt:lcidtoname_downlevel.obj
 0002:000050e0       ??_C@_1M@FFFIGIGK@?$AAb?$AAg?$AA?9?$AAB?$AAG@ 00000001800560e0     libucrt:lcidtoname_downlevel.obj
 0002:000050f0       ??_C@_1M@BJNKEDC@?$AAc?$AAa?$AA?9?$AAE?$AAS@ 00000001800560f0     libucrt:lcidtoname_downlevel.obj
 0002:00005100       ??_C@_1M@IJJHFJHA@?$AAc?$AAs?$AA?9?$AAC?$AAZ@ 0000000180056100     libucrt:lcidtoname_downlevel.obj
 0002:00005110       ??_C@_1M@CLPEOBGI@?$AAd?$AAa?$AA?9?$AAD?$AAK@ 0000000180056110     libucrt:lcidtoname_downlevel.obj
 0002:00005120       ??_C@_1M@MCMADGCB@?$AAd?$AAe?$AA?9?$AAD?$AAE@ 0000000180056120     libucrt:lcidtoname_downlevel.obj
 0002:00005130       ??_C@_1M@OOCKEMAM@?$AAe?$AAl?$AA?9?$AAG?$AAR@ 0000000180056130     libucrt:lcidtoname_downlevel.obj
 0002:00005140       ??_C@_1M@DDNJFGID@?$AAf?$AAi?$AA?9?$AAF?$AAI@ 0000000180056140     libucrt:lcidtoname_downlevel.obj
 0002:00005150       ??_C@_1M@GLIPPMAC@?$AAf?$AAr?$AA?9?$AAF?$AAR@ 0000000180056150     libucrt:lcidtoname_downlevel.obj
 0002:00005160       ??_C@_1M@GFMCHPE@?$AAh?$AAe?$AA?9?$AAI?$AAL@ 0000000180056160     libucrt:lcidtoname_downlevel.obj
 0002:00005170       ??_C@_1M@MHLPGNKM@?$AAh?$AAu?$AA?9?$AAH?$AAU@ 0000000180056170     libucrt:lcidtoname_downlevel.obj
 0002:00005180       ??_C@_1M@LPDDNNPN@?$AAi?$AAs?$AA?9?$AAI?$AAS@ 0000000180056180     libucrt:lcidtoname_downlevel.obj
 0002:00005190       ??_C@_1M@MADIPODN@?$AAi?$AAt?$AA?9?$AAI?$AAT@ 0000000180056190     libucrt:lcidtoname_downlevel.obj
 0002:000051a0       ??_C@_1M@IHBJJGG@?$AAn?$AAl?$AA?9?$AAN?$AAL@ 00000001800561a0     libucrt:lcidtoname_downlevel.obj
 0002:000051b0       ??_C@_1M@EANAGDL@?$AAn?$AAb?$AA?9?$AAN?$AAO@ 00000001800561b0     libucrt:lcidtoname_downlevel.obj
 0002:000051c0       ??_C@_1M@NEIEMEGP@?$AAp?$AAl?$AA?9?$AAP?$AAL@ 00000001800561c0     libucrt:lcidtoname_downlevel.obj
 0002:000051d0       ??_C@_1M@BOCFIGEP@?$AAp?$AAt?$AA?9?$AAB?$AAR@ 00000001800561d0     libucrt:lcidtoname_downlevel.obj
 0002:000051e0       ??_C@_1M@IMPFOPBG@?$AAr?$AAo?$AA?9?$AAR?$AAO@ 00000001800561e0     libucrt:lcidtoname_downlevel.obj
 0002:000051f0       ??_C@_1M@IDNNEJMM@?$AAr?$AAu?$AA?9?$AAR?$AAU@ 00000001800561f0     libucrt:lcidtoname_downlevel.obj
 0002:00005200       ??_C@_1M@LILEEOGM@?$AAh?$AAr?$AA?9?$AAH?$AAR@ 0000000180056200     libucrt:lcidtoname_downlevel.obj
 0002:00005210       ??_C@_1M@FKIFEHPB@?$AAs?$AAk?$AA?9?$AAS?$AAK@ 0000000180056210     libucrt:lcidtoname_downlevel.obj
 0002:00005220       ??_C@_1M@LJMAMNPJ@?$AAs?$AAq?$AA?9?$AAA?$AAL@ 0000000180056220     libucrt:lcidtoname_downlevel.obj
 0002:00005230       ??_C@_1M@GIAKDKJK@?$AAs?$AAv?$AA?9?$AAS?$AAE@ 0000000180056230     libucrt:lcidtoname_downlevel.obj
 0002:00005240       ??_C@_1M@MKJKIKCL@?$AAt?$AAh?$AA?9?$AAT?$AAH@ 0000000180056240     libucrt:lcidtoname_downlevel.obj
 0002:00005250       ??_C@_1M@MFLCCMPB@?$AAt?$AAr?$AA?9?$AAT?$AAR@ 0000000180056250     libucrt:lcidtoname_downlevel.obj
 0002:00005260       ??_C@_1M@OIJHDKJN@?$AAu?$AAr?$AA?9?$AAP?$AAK@ 0000000180056260     libucrt:lcidtoname_downlevel.obj
 0002:00005270       ??_C@_1M@LHIPCIEK@?$AAi?$AAd?$AA?9?$AAI?$AAD@ 0000000180056270     libucrt:lcidtoname_downlevel.obj
 0002:00005280       ??_C@_1M@MFMOBGI@?$AAu?$AAk?$AA?9?$AAU?$AAA@ 0000000180056280     libucrt:lcidtoname_downlevel.obj
 0002:00005290       ??_C@_1M@OBGLJIPL@?$AAb?$AAe?$AA?9?$AAB?$AAY@ 0000000180056290     libucrt:lcidtoname_downlevel.obj
 0002:000052a0       ??_C@_1M@BCFAJEAD@?$AAs?$AAl?$AA?9?$AAS?$AAI@ 00000001800562a0     libucrt:lcidtoname_downlevel.obj
 0002:000052b0       ??_C@_1M@FKFFEDDN@?$AAe?$AAt?$AA?9?$AAE?$AAE@ 00000001800562b0     libucrt:lcidtoname_downlevel.obj
 0002:000052c0       ??_C@_1M@KGKKAACI@?$AAl?$AAv?$AA?9?$AAL?$AAV@ 00000001800562c0     libucrt:lcidtoname_downlevel.obj
 0002:000052d0       ??_C@_1M@IFGBIJO@?$AAl?$AAt?$AA?9?$AAL?$AAT@ 00000001800562d0     libucrt:lcidtoname_downlevel.obj
 0002:000052e0       ??_C@_1M@FGEAHEDM@?$AAf?$AAa?$AA?9?$AAI?$AAR@ 00000001800562e0     libucrt:lcidtoname_downlevel.obj
 0002:000052f0       ??_C@_1M@KBMAIBFN@?$AAv?$AAi?$AA?9?$AAV?$AAN@ 00000001800562f0     libucrt:lcidtoname_downlevel.obj
 0002:00005300       ??_C@_1M@GPCBKDJK@?$AAh?$AAy?$AA?9?$AAA?$AAM@ 0000000180056300     libucrt:lcidtoname_downlevel.obj
 0002:00005310       ??_C@_1BG@BECMDDJB@?$AAa?$AAz?$AA?9?$AAA?$AAZ?$AA?9?$AAL?$AAa?$AAt?$AAn@ 0000000180056310     libucrt:lcidtoname_downlevel.obj
 0002:00005328       ??_C@_1M@MAOFCAEA@?$AAe?$AAu?$AA?9?$AAE?$AAS@ 0000000180056328     libucrt:lcidtoname_downlevel.obj
 0002:00005338       ??_C@_1M@IGHABKPI@?$AAm?$AAk?$AA?9?$AAM?$AAK@ 0000000180056338     libucrt:lcidtoname_downlevel.obj
 0002:00005348       ??_C@_1M@IAIGNEJG@?$AAt?$AAn?$AA?9?$AAZ?$AAA@ 0000000180056348     libucrt:lcidtoname_downlevel.obj
 0002:00005358       ??_C@_1M@IIJCOJFA@?$AAx?$AAh?$AA?9?$AAZ?$AAA@ 0000000180056358     libucrt:lcidtoname_downlevel.obj
 0002:00005368       ??_C@_1M@LGPJHNJH@?$AAz?$AAu?$AA?9?$AAZ?$AAA@ 0000000180056368     libucrt:lcidtoname_downlevel.obj
 0002:00005378       ??_C@_1M@HOKAOIO@?$AAa?$AAf?$AA?9?$AAZ?$AAA@ 0000000180056378     libucrt:lcidtoname_downlevel.obj
 0002:00005388       ??_C@_1M@DPCLHLIE@?$AAk?$AAa?$AA?9?$AAG?$AAE@ 0000000180056388     libucrt:lcidtoname_downlevel.obj
 0002:00005398       ??_C@_1M@BLKMHJBI@?$AAf?$AAo?$AA?9?$AAF?$AAO@ 0000000180056398     libucrt:lcidtoname_downlevel.obj
 0002:000053a8       ??_C@_1M@LGGJAPPB@?$AAh?$AAi?$AA?9?$AAI?$AAN@ 00000001800563a8     libucrt:lcidtoname_downlevel.obj
 0002:000053b8       ??_C@_1M@FIKPIHFE@?$AAm?$AAt?$AA?9?$AAM?$AAT@ 00000001800563b8     libucrt:lcidtoname_downlevel.obj
 0002:000053c8       ??_C@_1M@HEGGPBFA@?$AAs?$AAe?$AA?9?$AAN?$AAO@ 00000001800563c8     libucrt:lcidtoname_downlevel.obj
 0002:000053d8       ??_C@_1M@EIBJEEPA@?$AAm?$AAs?$AA?9?$AAM?$AAY@ 00000001800563d8     libucrt:lcidtoname_downlevel.obj
 0002:000053e8       ??_C@_1M@FHLBGMPP@?$AAk?$AAk?$AA?9?$AAK?$AAZ@ 00000001800563e8     libucrt:lcidtoname_downlevel.obj
 0002:000053f8       ??_C@_1M@NGJJLCGI@?$AAk?$AAy?$AA?9?$AAK?$AAG@ 00000001800563f8     libucrt:lcidtoname_downlevel.obj
 0002:00005408       ??_C@_1M@GIENNBFC@?$AAs?$AAw?$AA?9?$AAK?$AAE@ 0000000180056408     libucrt:lcidtoname_downlevel.obj
 0002:00005418       ??_C@_1BG@NDGMJIMJ@?$AAu?$AAz?$AA?9?$AAU?$AAZ?$AA?9?$AAL?$AAa?$AAt?$AAn@ 0000000180056418     libucrt:lcidtoname_downlevel.obj
 0002:00005430       ??_C@_1M@IDCCIHBC@?$AAt?$AAt?$AA?9?$AAR?$AAU@ 0000000180056430     libucrt:lcidtoname_downlevel.obj
 0002:00005440       ??_C@_1M@LOICPMOJ@?$AAb?$AAn?$AA?9?$AAI?$AAN@ 0000000180056440     libucrt:lcidtoname_downlevel.obj
 0002:00005450       ??_C@_1M@KPKKNEAH@?$AAp?$AAa?$AA?9?$AAI?$AAN@ 0000000180056450     libucrt:lcidtoname_downlevel.obj
 0002:00005460       ??_C@_1M@PJGPPBOG@?$AAg?$AAu?$AA?9?$AAI?$AAN@ 0000000180056460     libucrt:lcidtoname_downlevel.obj
 0002:00005470       ??_C@_1M@KMKMOPHI@?$AAt?$AAa?$AA?9?$AAI?$AAN@ 0000000180056470     libucrt:lcidtoname_downlevel.obj
 0002:00005480       ??_C@_1M@KFEHEPAC@?$AAt?$AAe?$AA?9?$AAI?$AAN@ 0000000180056480     libucrt:lcidtoname_downlevel.obj
 0002:00005490       ??_C@_1M@CDCLMGHI@?$AAk?$AAn?$AA?9?$AAI?$AAN@ 0000000180056490     libucrt:lcidtoname_downlevel.obj
 0002:000054a0       ??_C@_1M@MIODLDKF@?$AAm?$AAl?$AA?9?$AAI?$AAN@ 00000001800564a0     libucrt:lcidtoname_downlevel.obj
 0002:000054b0       ??_C@_1M@PBIEACPO@?$AAm?$AAr?$AA?9?$AAI?$AAN@ 00000001800564b0     libucrt:lcidtoname_downlevel.obj
 0002:000054c0       ??_C@_1M@NIDEAGPH@?$AAs?$AAa?$AA?9?$AAI?$AAN@ 00000001800564c0     libucrt:lcidtoname_downlevel.obj
 0002:000054d0       ??_C@_1M@FHIHCBIO@?$AAm?$AAn?$AA?9?$AAM?$AAN@ 00000001800564d0     libucrt:lcidtoname_downlevel.obj
 0002:000054e0       ??_C@_1M@JAIJPENP@?$AAc?$AAy?$AA?9?$AAG?$AAB@ 00000001800564e0     libucrt:lcidtoname_downlevel.obj
 0002:000054f0       ??_C@_1M@PHGFBEPN@?$AAg?$AAl?$AA?9?$AAE?$AAS@ 00000001800564f0     libucrt:lcidtoname_downlevel.obj
 0002:00005500       ??_C@_1O@KPIPDNCP@?$AAk?$AAo?$AAk?$AA?9?$AAI?$AAN@ 0000000180056500     libucrt:lcidtoname_downlevel.obj
 0002:00005510       ??_C@_1O@KNHJLDJA@?$AAs?$AAy?$AAr?$AA?9?$AAS?$AAY@ 0000000180056510     libucrt:lcidtoname_downlevel.obj
 0002:00005520       ??_C@_1O@MKEKBLAH@?$AAd?$AAi?$AAv?$AA?9?$AAM?$AAV@ 0000000180056520     libucrt:lcidtoname_downlevel.obj
 0002:00005530       ??_C@_1O@OHDCKDDF@?$AAq?$AAu?$AAz?$AA?9?$AAB?$AAO@ 0000000180056530     libucrt:lcidtoname_downlevel.obj
 0002:00005540       ??_C@_1M@LEPJNLFD@?$AAn?$AAs?$AA?9?$AAZ?$AAA@ 0000000180056540     libucrt:lcidtoname_downlevel.obj
 0002:00005550       ??_C@_1M@OMLEIIJB@?$AAm?$AAi?$AA?9?$AAN?$AAZ@ 0000000180056550     libucrt:lcidtoname_downlevel.obj
 0002:00005560       ??_C@_1M@PMPEAILG@?$AAa?$AAr?$AA?9?$AAI?$AAQ@ 0000000180056560     libucrt:lcidtoname_downlevel.obj
 0002:00005570       ??_C@_1M@CNKPNOEE@?$AAd?$AAe?$AA?9?$AAC?$AAH@ 0000000180056570     libucrt:lcidtoname_downlevel.obj
 0002:00005580       ??_C@_1M@LKMGMLKO@?$AAe?$AAn?$AA?9?$AAG?$AAB@ 0000000180056580     libucrt:lcidtoname_downlevel.obj
 0002:00005590       ??_C@_1M@PGKJFFGL@?$AAe?$AAs?$AA?9?$AAM?$AAX@ 0000000180056590     libucrt:lcidtoname_downlevel.obj
 0002:000055a0       ??_C@_1M@DNNANBDC@?$AAf?$AAr?$AA?9?$AAB?$AAE@ 00000001800565a0     libucrt:lcidtoname_downlevel.obj
 0002:000055b0       ??_C@_1M@HLGMDFHM@?$AAi?$AAt?$AA?9?$AAC?$AAH@ 00000001800565b0     libucrt:lcidtoname_downlevel.obj
 0002:000055c0       ??_C@_1M@CLLBGJH@?$AAn?$AAl?$AA?9?$AAB?$AAE@ 00000001800565c0     libucrt:lcidtoname_downlevel.obj
 0002:000055d0       ??_C@_1M@BODBOGLF@?$AAn?$AAn?$AA?9?$AAN?$AAO@ 00000001800565d0     libucrt:lcidtoname_downlevel.obj
 0002:000055e0       ??_C@_1M@HFFAHKAD@?$AAp?$AAt?$AA?9?$AAP?$AAT@ 00000001800565e0     libucrt:lcidtoname_downlevel.obj
 0002:000055f0       ??_C@_1BG@LNOAKHIE@?$AAs?$AAr?$AA?9?$AAS?$AAP?$AA?9?$AAL?$AAa?$AAt?$AAn@ 00000001800565f0     libucrt:lcidtoname_downlevel.obj
 0002:00005608       ??_C@_1M@HBMHBGAK@?$AAs?$AAv?$AA?9?$AAF?$AAI@ 0000000180056608     libucrt:lcidtoname_downlevel.obj
 0002:00005618       ??_C@_1BG@DGCJGJBE@?$AAa?$AAz?$AA?9?$AAA?$AAZ?$AA?9?$AAC?$AAy?$AAr?$AAl@ 0000000180056618     libucrt:lcidtoname_downlevel.obj
 0002:00005630       ??_C@_1M@KEJDAAHB@?$AAs?$AAe?$AA?9?$AAS?$AAE@ 0000000180056630     libucrt:lcidtoname_downlevel.obj
 0002:00005640       ??_C@_1M@HEIBJJAD@?$AAm?$AAs?$AA?9?$AAB?$AAN@ 0000000180056640     libucrt:lcidtoname_downlevel.obj
 0002:00005650       ??_C@_1BG@PBGJMCEM@?$AAu?$AAz?$AA?9?$AAU?$AAZ?$AA?9?$AAC?$AAy?$AAr?$AAl@ 0000000180056650     libucrt:lcidtoname_downlevel.obj
 0002:00005668       ??_C@_1O@LAOBCMDF@?$AAq?$AAu?$AAz?$AA?9?$AAE?$AAC@ 0000000180056668     libucrt:lcidtoname_downlevel.obj
 0002:00005678       ??_C@_1M@POEEMAIO@?$AAa?$AAr?$AA?9?$AAE?$AAG@ 0000000180056678     libucrt:lcidtoname_downlevel.obj
 0002:00005688       ??_C@_1M@EFAKDEDL@?$AAz?$AAh?$AA?9?$AAH?$AAK@ 0000000180056688     libucrt:lcidtoname_downlevel.obj
 0002:00005698       ??_C@_1M@HKKIJHGI@?$AAd?$AAe?$AA?9?$AAA?$AAT@ 0000000180056698     libucrt:lcidtoname_downlevel.obj
 0002:000056a8       ??_C@_1M@KBFBEHJF@?$AAe?$AAn?$AA?9?$AAA?$AAU@ 00000001800566a8     libucrt:lcidtoname_downlevel.obj
 0002:000056b8       ??_C@_1M@MNPLFAAH@?$AAe?$AAs?$AA?9?$AAE?$AAS@ 00000001800566b8     libucrt:lcidtoname_downlevel.obj
 0002:000056c8       ??_C@_1M@HJOOJFMA@?$AAf?$AAr?$AA?9?$AAC?$AAA@ 00000001800566c8     libucrt:lcidtoname_downlevel.obj
 0002:000056d8       ??_C@_1BG@JPOFPNAB@?$AAs?$AAr?$AA?9?$AAS?$AAP?$AA?9?$AAC?$AAy?$AAr?$AAl@ 00000001800566d8     libucrt:lcidtoname_downlevel.obj
 0002:000056f0       ??_C@_1M@LNFOCMOB@?$AAs?$AAe?$AA?9?$AAF?$AAI@ 00000001800566f0     libucrt:lcidtoname_downlevel.obj
 0002:00005700       ??_C@_1O@MGJBOAMB@?$AAq?$AAu?$AAz?$AA?9?$AAP?$AAE@ 0000000180056700     libucrt:lcidtoname_downlevel.obj
 0002:00005710       ??_C@_1M@GJINLBOK@?$AAa?$AAr?$AA?9?$AAL?$AAY@ 0000000180056710     libucrt:lcidtoname_downlevel.obj
 0002:00005720       ??_C@_1M@GGMNHJNL@?$AAz?$AAh?$AA?9?$AAS?$AAG@ 0000000180056720     libucrt:lcidtoname_downlevel.obj
 0002:00005730       ??_C@_1M@HOIKODND@?$AAd?$AAe?$AA?9?$AAL?$AAU@ 0000000180056730     libucrt:lcidtoname_downlevel.obj
 0002:00005740       ??_C@_1M@DDOCCGFG@?$AAe?$AAn?$AA?9?$AAC?$AAA@ 0000000180056740     libucrt:lcidtoname_downlevel.obj
 0002:00005750       ??_C@_1M@BNOEMJLF@?$AAe?$AAs?$AA?9?$AAG?$AAT@ 0000000180056750     libucrt:lcidtoname_downlevel.obj
 0002:00005760       ??_C@_1M@EOGNKEK@?$AAf?$AAr?$AA?9?$AAC?$AAH@ 0000000180056760     libucrt:lcidtoname_downlevel.obj
 0002:00005770       ??_C@_1M@FLIDJFHL@?$AAh?$AAr?$AA?9?$AAB?$AAA@ 0000000180056770     libucrt:lcidtoname_downlevel.obj
 0002:00005780       ??_C@_1O@FMCELNAJ@?$AAs?$AAm?$AAj?$AA?9?$AAN?$AAO@ 0000000180056780     libucrt:lcidtoname_downlevel.obj
 0002:00005790       ??_C@_1M@JHGLJMGJ@?$AAa?$AAr?$AA?9?$AAD?$AAZ@ 0000000180056790     libucrt:lcidtoname_downlevel.obj
 0002:000057a0       ??_C@_1M@JKKFDCNP@?$AAz?$AAh?$AA?9?$AAM?$AAO@ 00000001800567a0     libucrt:lcidtoname_downlevel.obj
 0002:000057b0       ??_C@_1M@GEEFALPE@?$AAd?$AAe?$AA?9?$AAL?$AAI@ 00000001800567b0     libucrt:lcidtoname_downlevel.obj
 0002:000057c0       ??_C@_1M@IGEOFBG@?$AAe?$AAn?$AA?9?$AAN?$AAZ@ 00000001800567c0     libucrt:lcidtoname_downlevel.obj
 0002:000057d0       ??_C@_1M@KDBONEHP@?$AAe?$AAs?$AA?9?$AAC?$AAR@ 00000001800567d0     libucrt:lcidtoname_downlevel.obj
 0002:000057e0       ??_C@_1M@FHMDOHNN@?$AAf?$AAr?$AA?9?$AAL?$AAU@ 00000001800567e0     libucrt:lcidtoname_downlevel.obj
 0002:000057f0       ??_C@_1BG@NFKKMAFG@?$AAb?$AAs?$AA?9?$AAB?$AAA?$AA?9?$AAL?$AAa?$AAt?$AAn@ 00000001800567f0     libucrt:lcidtoname_downlevel.obj
 0002:00005808       ??_C@_1O@IMNBEMCI@?$AAs?$AAm?$AAj?$AA?9?$AAS?$AAE@ 0000000180056808     libucrt:lcidtoname_downlevel.obj
 0002:00005818       ??_C@_1M@DHHMBNDP@?$AAa?$AAr?$AA?9?$AAM?$AAA@ 0000000180056818     libucrt:lcidtoname_downlevel.obj
 0002:00005828       ??_C@_1M@BNBLJCGH@?$AAe?$AAn?$AA?9?$AAI?$AAE@ 0000000180056828     libucrt:lcidtoname_downlevel.obj
 0002:00005838       ??_C@_1M@GEPAFMDL@?$AAe?$AAs?$AA?9?$AAP?$AAA@ 0000000180056838     libucrt:lcidtoname_downlevel.obj
 0002:00005848       ??_C@_1M@OJONDMDL@?$AAf?$AAr?$AA?9?$AAM?$AAC@ 0000000180056848     libucrt:lcidtoname_downlevel.obj
 0002:00005858       ??_C@_1BG@OBCNFJB@?$AAs?$AAr?$AA?9?$AAB?$AAA?$AA?9?$AAL?$AAa?$AAt?$AAn@ 0000000180056858     libucrt:lcidtoname_downlevel.obj
 0002:00005870       ??_C@_1O@KEMEEGPO@?$AAs?$AAm?$AAa?$AA?9?$AAN?$AAO@ 0000000180056870     libucrt:lcidtoname_downlevel.obj
 0002:00005880       ??_C@_1M@ELMGFODK@?$AAa?$AAr?$AA?9?$AAT?$AAN@ 0000000180056880     libucrt:lcidtoname_downlevel.obj
 0002:00005890       ??_C@_1M@BHDLHFAF@?$AAe?$AAn?$AA?9?$AAZ?$AAA@ 0000000180056890     libucrt:lcidtoname_downlevel.obj
 0002:000058a0       ??_C@_1M@BMGIGLIF@?$AAe?$AAs?$AA?9?$AAD?$AAO@ 00000001800568a0     libucrt:lcidtoname_downlevel.obj
 0002:000058b0       ??_C@_1BG@CMBHIPBE@?$AAs?$AAr?$AA?9?$AAB?$AAA?$AA?9?$AAC?$AAy?$AAr?$AAl@ 00000001800568b0     libucrt:lcidtoname_downlevel.obj
 0002:000058c8       ??_C@_1O@HEDBLHNP@?$AAs?$AAm?$AAa?$AA?9?$AAS?$AAE@ 00000001800568c8     libucrt:lcidtoname_downlevel.obj
 0002:000058d8       ??_C@_1M@DAGCADIM@?$AAa?$AAr?$AA?9?$AAO?$AAM@ 00000001800568d8     libucrt:lcidtoname_downlevel.obj
 0002:000058e8       ??_C@_1M@FODLMICG@?$AAe?$AAn?$AA?9?$AAJ?$AAM@ 00000001800568e8     libucrt:lcidtoname_downlevel.obj
 0002:000058f8       ??_C@_1M@DNMLCIHB@?$AAe?$AAs?$AA?9?$AAV?$AAE@ 00000001800568f8     libucrt:lcidtoname_downlevel.obj
 0002:00005908       ??_C@_1O@EOKHMKJK@?$AAs?$AAm?$AAs?$AA?9?$AAF?$AAI@ 0000000180056908     libucrt:lcidtoname_downlevel.obj
 0002:00005918       ??_C@_1M@CAFJMKOF@?$AAa?$AAr?$AA?9?$AAY?$AAE@ 0000000180056918     libucrt:lcidtoname_downlevel.obj
 0002:00005928       ??_C@_1M@CBFHIJLI@?$AAe?$AAn?$AA?9?$AAC?$AAB@ 0000000180056928     libucrt:lcidtoname_downlevel.obj
 0002:00005938       ??_C@_1M@BGNFLDN@?$AAe?$AAs?$AA?9?$AAC?$AAO@ 0000000180056938     libucrt:lcidtoname_downlevel.obj
 0002:00005948       ??_C@_1O@JMPHMAMC@?$AAs?$AAm?$AAn?$AA?9?$AAF?$AAI@ 0000000180056948     libucrt:lcidtoname_downlevel.obj
 0002:00005958       ??_C@_1M@JLANABKE@?$AAa?$AAr?$AA?9?$AAS?$AAY@ 0000000180056958     libucrt:lcidtoname_downlevel.obj
 0002:00005968       ??_C@_1M@HPKGCFGN@?$AAe?$AAn?$AA?9?$AAB?$AAZ@ 0000000180056968     libucrt:lcidtoname_downlevel.obj
 0002:00005978       ??_C@_1M@OLJCMLGM@?$AAe?$AAs?$AA?9?$AAP?$AAE@ 0000000180056978     libucrt:lcidtoname_downlevel.obj
 0002:00005988       ??_C@_1M@MKKGFKLE@?$AAa?$AAr?$AA?9?$AAJ?$AAO@ 0000000180056988     libucrt:lcidtoname_downlevel.obj
 0002:00005998       ??_C@_1M@EKPGLDNI@?$AAe?$AAn?$AA?9?$AAT?$AAT@ 0000000180056998     libucrt:lcidtoname_downlevel.obj
 0002:000059a8       ??_C@_1M@OONGHFHE@?$AAe?$AAs?$AA?9?$AAA?$AAR@ 00000001800569a8     libucrt:lcidtoname_downlevel.obj
 0002:000059b8       ??_C@_1M@OOJFGBHE@?$AAa?$AAr?$AA?9?$AAL?$AAB@ 00000001800569b8     libucrt:lcidtoname_downlevel.obj
 0002:000059c8       ??_C@_1M@GCEJHNEG@?$AAe?$AAn?$AA?9?$AAZ?$AAW@ 00000001800569c8     libucrt:lcidtoname_downlevel.obj
 0002:000059d8       ??_C@_1M@JNOCAHJI@?$AAe?$AAs?$AA?9?$AAE?$AAC@ 00000001800569d8     libucrt:lcidtoname_downlevel.obj
 0002:000059e8       ??_C@_1M@JEFHPGGB@?$AAa?$AAr?$AA?9?$AAK?$AAW@ 00000001800569e8     libucrt:lcidtoname_downlevel.obj
 0002:000059f8       ??_C@_1M@MLKIBJOJ@?$AAe?$AAn?$AA?9?$AAP?$AAH@ 00000001800569f8     libucrt:lcidtoname_downlevel.obj
 0002:00005a08       ??_C@_1M@BDNIPEND@?$AAe?$AAs?$AA?9?$AAC?$AAL@ 0000000180056a08     libucrt:lcidtoname_downlevel.obj
 0002:00005a18       ??_C@_1M@MPNMEKBD@?$AAa?$AAr?$AA?9?$AAA?$AAE@ 0000000180056a18     libucrt:lcidtoname_downlevel.obj
 0002:00005a28       ??_C@_1M@KBJALCPI@?$AAe?$AAs?$AA?9?$AAU?$AAY@ 0000000180056a28     libucrt:lcidtoname_downlevel.obj
 0002:00005a38       ??_C@_1M@LLCCOAGA@?$AAa?$AAr?$AA?9?$AAB?$AAH@ 0000000180056a38     libucrt:lcidtoname_downlevel.obj
 0002:00005a48       ??_C@_1M@PBFNCDEL@?$AAe?$AAs?$AA?9?$AAP?$AAY@ 0000000180056a48     libucrt:lcidtoname_downlevel.obj
 0002:00005a58       ??_C@_1M@EDGINPNP@?$AAa?$AAr?$AA?9?$AAQ?$AAA@ 0000000180056a58     libucrt:lcidtoname_downlevel.obj
 0002:00005a68       ??_C@_1M@MKDBIIJI@?$AAe?$AAs?$AA?9?$AAB?$AAO@ 0000000180056a68     libucrt:lcidtoname_downlevel.obj
 0002:00005a78       ??_C@_1M@CPKKEBLD@?$AAe?$AAs?$AA?9?$AAS?$AAV@ 0000000180056a78     libucrt:lcidtoname_downlevel.obj
 0002:00005a88       ??_C@_1M@NDBGMMJL@?$AAe?$AAs?$AA?9?$AAH?$AAN@ 0000000180056a88     libucrt:lcidtoname_downlevel.obj
 0002:00005a98       ??_C@_1M@JIJIBHDP@?$AAe?$AAs?$AA?9?$AAN?$AAI@ 0000000180056a98     libucrt:lcidtoname_downlevel.obj
 0002:00005aa8       ??_C@_1M@CGFMKEEK@?$AAe?$AAs?$AA?9?$AAP?$AAR@ 0000000180056aa8     libucrt:lcidtoname_downlevel.obj
 0002:00005ab8       ??_C@_1O@ICJHKIIK@?$AAz?$AAh?$AA?9?$AAC?$AAH?$AAT@ 0000000180056ab8     libucrt:lcidtoname_downlevel.obj
 0002:00005ac8       ??_C@_15CLNEJCE@?$AAs?$AAr@ 0000000180056ac8     libucrt:lcidtoname_downlevel.obj
 0002:00006910       ??_C@_1M@KAHEKEIG@?$AAa?$AAf?$AA?9?$AAz?$AAa@ 0000000180057910     libucrt:lcidtoname_downlevel.obj
 0002:00006920       ??_C@_1M@GIECOABL@?$AAa?$AAr?$AA?9?$AAa?$AAe@ 0000000180057920     libucrt:lcidtoname_downlevel.obj
 0002:00006930       ??_C@_1M@BMLMEKGI@?$AAa?$AAr?$AA?9?$AAb?$AAh@ 0000000180057930     libucrt:lcidtoname_downlevel.obj
 0002:00006940       ??_C@_1M@DAPFDGGB@?$AAa?$AAr?$AA?9?$AAd?$AAz@ 0000000180057940     libucrt:lcidtoname_downlevel.obj
 0002:00006950       ??_C@_1M@FJNKGKIG@?$AAa?$AAr?$AA?9?$AAe?$AAg@ 0000000180057950     libucrt:lcidtoname_downlevel.obj
 0002:00006960       ??_C@_1M@FLGKKCLO@?$AAa?$AAr?$AA?9?$AAi?$AAq@ 0000000180057960     libucrt:lcidtoname_downlevel.obj
 0002:00006970       ??_C@_1M@GNDIPALM@?$AAa?$AAr?$AA?9?$AAj?$AAo@ 0000000180057970     libucrt:lcidtoname_downlevel.obj
 0002:00006980       ??_C@_1M@DDMJFMGJ@?$AAa?$AAr?$AA?9?$AAk?$AAw@ 0000000180057980     libucrt:lcidtoname_downlevel.obj
 0002:00006990       ??_C@_1M@EJALMLHM@?$AAa?$AAr?$AA?9?$AAl?$AAb@ 0000000180057990     libucrt:lcidtoname_downlevel.obj
 0002:000069a0       ??_C@_1M@MOBDBLOC@?$AAa?$AAr?$AA?9?$AAl?$AAy@ 00000001800579a0     libucrt:lcidtoname_downlevel.obj
 0002:000069b0       ??_C@_1M@JAOCLHDH@?$AAa?$AAr?$AA?9?$AAm?$AAa@ 00000001800579b0     libucrt:lcidtoname_downlevel.obj
 0002:000069c0       ??_C@_1M@JHPMKJIE@?$AAa?$AAr?$AA?9?$AAo?$AAm@ 00000001800579c0     libucrt:lcidtoname_downlevel.obj
 0002:000069d0       ??_C@_1M@OEPGHFNH@?$AAa?$AAr?$AA?9?$AAq?$AAa@ 00000001800579d0     libucrt:lcidtoname_downlevel.obj
 0002:000069e0       ??_C@_1M@KJDONENM@?$AAa?$AAr?$AA?9?$AAs?$AAa@ 00000001800579e0     libucrt:lcidtoname_downlevel.obj
 0002:000069f0       ??_C@_1M@DMJDKLKM@?$AAa?$AAr?$AA?9?$AAs?$AAy@ 00000001800579f0     libucrt:lcidtoname_downlevel.obj
 0002:00006a00       ??_C@_1M@OMFIPEDC@?$AAa?$AAr?$AA?9?$AAt?$AAn@ 0000000180057a00     libucrt:lcidtoname_downlevel.obj
 0002:00006a10       ??_C@_1M@IHMHGAON@?$AAa?$AAr?$AA?9?$AAy?$AAe@ 0000000180057a10     libucrt:lcidtoname_downlevel.obj
 0002:00006a20       ??_C@_1BG@KDCPGJGB@?$AAa?$AAz?$AA?9?$AAa?$AAz?$AA?9?$AAc?$AAy?$AAr?$AAl@ 0000000180057a20     libucrt:lcidtoname_downlevel.obj
 0002:00006a38       ??_C@_1BG@IBCKDDOE@?$AAa?$AAz?$AA?9?$AAa?$AAz?$AA?9?$AAl?$AAa?$AAt?$AAn@ 0000000180057a38     libucrt:lcidtoname_downlevel.obj
 0002:00006a50       ??_C@_1M@EGPFDCPD@?$AAb?$AAe?$AA?9?$AAb?$AAy@ 0000000180057a50     libucrt:lcidtoname_downlevel.obj
 0002:00006a60       ??_C@_1M@PCMGMCGC@?$AAb?$AAg?$AA?9?$AAb?$AAg@ 0000000180057a60     libucrt:lcidtoname_downlevel.obj
 0002:00006a70       ??_C@_1M@BJBMFGOB@?$AAb?$AAn?$AA?9?$AAi?$AAn@ 0000000180057a70     libucrt:lcidtoname_downlevel.obj
 0002:00006a80       ??_C@_1BG@EAKMMACD@?$AAb?$AAs?$AA?9?$AAb?$AAa?$AA?9?$AAl?$AAa?$AAt?$AAn@ 0000000180057a80     libucrt:lcidtoname_downlevel.obj
 0002:00006a98       ??_C@_1M@KGADAODK@?$AAc?$AAa?$AA?9?$AAe?$AAs@ 0000000180057a98     libucrt:lcidtoname_downlevel.obj
 0002:00006aa8       ??_C@_1M@COAJPDHI@?$AAc?$AAs?$AA?9?$AAc?$AAz@ 0000000180057aa8     libucrt:lcidtoname_downlevel.obj
 0002:00006ab8       ??_C@_1M@DHBHFONH@?$AAc?$AAy?$AA?9?$AAg?$AAb@ 0000000180057ab8     libucrt:lcidtoname_downlevel.obj
 0002:00006ac8       ??_C@_1M@IMGKELGA@?$AAd?$AAa?$AA?9?$AAd?$AAk@ 0000000180057ac8     libucrt:lcidtoname_downlevel.obj
 0002:00006ad8       ??_C@_1M@NNDGDNGA@?$AAd?$AAe?$AA?9?$AAa?$AAt@ 0000000180057ad8     libucrt:lcidtoname_downlevel.obj
 0002:00006ae8       ??_C@_1M@IKDBHEEM@?$AAd?$AAe?$AA?9?$AAc?$AAh@ 0000000180057ae8     libucrt:lcidtoname_downlevel.obj
 0002:00006af8       ??_C@_1M@GFFOJMCJ@?$AAd?$AAe?$AA?9?$AAd?$AAe@ 0000000180057af8     libucrt:lcidtoname_downlevel.obj
 0002:00006b08       ??_C@_1M@MDNLKBPM@?$AAd?$AAe?$AA?9?$AAl?$AAi@ 0000000180057b08     libucrt:lcidtoname_downlevel.obj
 0002:00006b18       ??_C@_1M@NJBEEJNL@?$AAd?$AAe?$AA?9?$AAl?$AAu@ 0000000180057b18     libucrt:lcidtoname_downlevel.obj
 0002:00006b28       ??_C@_1O@GNNELBAP@?$AAd?$AAi?$AAv?$AA?9?$AAm?$AAv@ 0000000180057b28     libucrt:lcidtoname_downlevel.obj
 0002:00006b38       ??_C@_1M@EJLEOGAE@?$AAe?$AAl?$AA?9?$AAg?$AAr@ 0000000180057b38     libucrt:lcidtoname_downlevel.obj
 0002:00006b48       ??_C@_1M@GMPONJN@?$AAe?$AAn?$AA?9?$AAa?$AAu@ 0000000180057b48     libucrt:lcidtoname_downlevel.obj
 0002:00006b58       ??_C@_1M@NIDIIPGF@?$AAe?$AAn?$AA?9?$AAb?$AAz@ 0000000180057b58     libucrt:lcidtoname_downlevel.obj
 0002:00006b68       ??_C@_1M@JEHMIMFO@?$AAe?$AAn?$AA?9?$AAc?$AAa@ 0000000180057b68     libucrt:lcidtoname_downlevel.obj
 0002:00006b78       ??_C@_1M@IGMJCDLA@?$AAe?$AAn?$AA?9?$AAc?$AAb@ 0000000180057b78     libucrt:lcidtoname_downlevel.obj
 0002:00006b88       ??_C@_1M@BNFIGBKG@?$AAe?$AAn?$AA?9?$AAg?$AAb@ 0000000180057b88     libucrt:lcidtoname_downlevel.obj
 0002:00006b98       ??_C@_1M@LKIFDIGP@?$AAe?$AAn?$AA?9?$AAi?$AAe@ 0000000180057b98     libucrt:lcidtoname_downlevel.obj
 0002:00006ba8       ??_C@_1M@PJKFGCCO@?$AAe?$AAn?$AA?9?$AAj?$AAm@ 0000000180057ba8     libucrt:lcidtoname_downlevel.obj
 0002:00006bb8       ??_C@_1M@KPPKEPBO@?$AAe?$AAn?$AA?9?$AAn?$AAz@ 0000000180057bb8     libucrt:lcidtoname_downlevel.obj
 0002:00006bc8       ??_C@_1M@GMDGLDOB@?$AAe?$AAn?$AA?9?$AAp?$AAh@ 0000000180057bc8     libucrt:lcidtoname_downlevel.obj
 0002:00006bd8       ??_C@_1M@ONGIBJNA@?$AAe?$AAn?$AA?9?$AAt?$AAt@ 0000000180057bd8     libucrt:lcidtoname_downlevel.obj
 0002:00006be8       ??_C@_1M@LLODPCMM@?$AAe?$AAn?$AA?9?$AAu?$AAs@ 0000000180057be8     libucrt:lcidtoname_downlevel.obj
 0002:00006bf8       ??_C@_1M@LAKFNPAN@?$AAe?$AAn?$AA?9?$AAz?$AAa@ 0000000180057bf8     libucrt:lcidtoname_downlevel.obj
 0002:00006c08       ??_C@_1M@MFNHNHEO@?$AAe?$AAn?$AA?9?$AAz?$AAw@ 0000000180057c08     libucrt:lcidtoname_downlevel.obj
 0002:00006c18       ??_C@_1M@EJEINPHM@?$AAe?$AAs?$AA?9?$AAa?$AAr@ 0000000180057c18     libucrt:lcidtoname_downlevel.obj
 0002:00006c28       ??_C@_1M@GNKPCCJA@?$AAe?$AAs?$AA?9?$AAb?$AAo@ 0000000180057c28     libucrt:lcidtoname_downlevel.obj
 0002:00006c38       ??_C@_1M@LEEGFONL@?$AAe?$AAs?$AA?9?$AAc?$AAl@ 0000000180057c38     libucrt:lcidtoname_downlevel.obj
 0002:00006c48       ??_C@_1M@KGPDPBDF@?$AAe?$AAs?$AA?9?$AAc?$AAo@ 0000000180057c48     libucrt:lcidtoname_downlevel.obj
 0002:00006c58       ??_C@_1M@EIAHOHH@?$AAe?$AAs?$AA?9?$AAc?$AAr@ 0000000180057c58     libucrt:lcidtoname_downlevel.obj
 0002:00006c68       ??_C@_1M@LLPGMBIN@?$AAe?$AAs?$AA?9?$AAd?$AAo@ 0000000180057c68     libucrt:lcidtoname_downlevel.obj
 0002:00006c78       ??_C@_1M@DKHMKNJA@?$AAe?$AAs?$AA?9?$AAe?$AAc@ 0000000180057c78     libucrt:lcidtoname_downlevel.obj
 0002:00006c88       ??_C@_1M@GKGFPKAP@?$AAe?$AAs?$AA?9?$AAe?$AAs@ 0000000180057c88     libucrt:lcidtoname_downlevel.obj
 0002:00006c98       ??_C@_1M@LKHKGDLN@?$AAe?$AAs?$AA?9?$AAg?$AAt@ 0000000180057c98     libucrt:lcidtoname_downlevel.obj
 0002:00006ca8       ??_C@_1M@HEIIGGJD@?$AAe?$AAs?$AA?9?$AAh?$AAn@ 0000000180057ca8     libucrt:lcidtoname_downlevel.obj
 0002:00006cb8       ??_C@_1M@FBDHPPGD@?$AAe?$AAs?$AA?9?$AAm?$AAx@ 0000000180057cb8     libucrt:lcidtoname_downlevel.obj
 0002:00006cc8       ??_C@_1M@DPAGLNDH@?$AAe?$AAs?$AA?9?$AAn?$AAi@ 0000000180057cc8     libucrt:lcidtoname_downlevel.obj
 0002:00006cd8       ??_C@_1M@MDGOPGDD@?$AAe?$AAs?$AA?9?$AAp?$AAa@ 0000000180057cd8     libucrt:lcidtoname_downlevel.obj
 0002:00006ce8       ??_C@_1M@EMAMGBGE@?$AAe?$AAs?$AA?9?$AAp?$AAe@ 0000000180057ce8     libucrt:lcidtoname_downlevel.obj
 0002:00006cf8       ??_C@_1M@IBMCAOEC@?$AAe?$AAs?$AA?9?$AAp?$AAr@ 0000000180057cf8     libucrt:lcidtoname_downlevel.obj
 0002:00006d08       ??_C@_1M@FGMDIJED@?$AAe?$AAs?$AA?9?$AAp?$AAy@ 0000000180057d08     libucrt:lcidtoname_downlevel.obj
 0002:00006d18       ??_C@_1M@IIDEOLLL@?$AAe?$AAs?$AA?9?$AAs?$AAv@ 0000000180057d18     libucrt:lcidtoname_downlevel.obj
 0002:00006d28       ??_C@_1M@GAOBIPA@?$AAe?$AAs?$AA?9?$AAu?$AAy@ 0000000180057d28     libucrt:lcidtoname_downlevel.obj
 0002:00006d38       ??_C@_1M@JKFFICHJ@?$AAe?$AAs?$AA?9?$AAv?$AAe@ 0000000180057d38     libucrt:lcidtoname_downlevel.obj
 0002:00006d48       ??_C@_1M@PNMLOJDF@?$AAe?$AAt?$AA?9?$AAe?$AAe@ 0000000180057d48     libucrt:lcidtoname_downlevel.obj
 0002:00006d58       ??_C@_1M@GHHLIKEI@?$AAe?$AAu?$AA?9?$AAe?$AAs@ 0000000180057d58     libucrt:lcidtoname_downlevel.obj
 0002:00006d68       ??_C@_1M@PBNONODE@?$AAf?$AAa?$AA?9?$AAi?$AAr@ 0000000180057d68     libucrt:lcidtoname_downlevel.obj
 0002:00006d78       ??_C@_1M@JEEHPMIL@?$AAf?$AAi?$AA?9?$AAf?$AAi@ 0000000180057d78     libucrt:lcidtoname_downlevel.obj
 0002:00006d88       ??_C@_1M@LMDCNDBA@?$AAf?$AAo?$AA?9?$AAf?$AAo@ 0000000180057d88     libucrt:lcidtoname_downlevel.obj
 0002:00006d98       ??_C@_1M@JKEOHLDK@?$AAf?$AAr?$AA?9?$AAb?$AAe@ 0000000180057d98     libucrt:lcidtoname_downlevel.obj
 0002:00006da8       ??_C@_1M@NOHADPMI@?$AAf?$AAr?$AA?9?$AAc?$AAa@ 0000000180057da8     libucrt:lcidtoname_downlevel.obj
 0002:00006db8       ??_C@_1M@KDHIHAEC@?$AAf?$AAr?$AA?9?$AAc?$AAh@ 0000000180057db8     libucrt:lcidtoname_downlevel.obj
 0002:00006dc8       ??_C@_1M@MMBBFGAK@?$AAf?$AAr?$AA?9?$AAf?$AAr@ 0000000180057dc8     libucrt:lcidtoname_downlevel.obj
 0002:00006dd8       ??_C@_1M@PAFNENNF@?$AAf?$AAr?$AA?9?$AAl?$AAu@ 0000000180057dd8     libucrt:lcidtoname_downlevel.obj
 0002:00006de8       ??_C@_1M@EOHDJGDD@?$AAf?$AAr?$AA?9?$AAm?$AAc@ 0000000180057de8     libucrt:lcidtoname_downlevel.obj
 0002:00006df8       ??_C@_1M@FAPLLOPF@?$AAg?$AAl?$AA?9?$AAe?$AAs@ 0000000180057df8     libucrt:lcidtoname_downlevel.obj
 0002:00006e08       ??_C@_1M@FOPBFLOO@?$AAg?$AAu?$AA?9?$AAi?$AAn@ 0000000180057e08     libucrt:lcidtoname_downlevel.obj
 0002:00006e18       ??_C@_1M@KBMCINPM@?$AAh?$AAe?$AA?9?$AAi?$AAl@ 0000000180057e18     libucrt:lcidtoname_downlevel.obj
 0002:00006e28       ??_C@_1M@BBPHKFPJ@?$AAh?$AAi?$AA?9?$AAi?$AAn@ 0000000180057e28     libucrt:lcidtoname_downlevel.obj
 0002:00006e38       ??_C@_1M@PMBNDPHD@?$AAh?$AAr?$AA?9?$AAb?$AAa@ 0000000180057e38     libucrt:lcidtoname_downlevel.obj
 0002:00006e48       ??_C@_1M@BPCKOEGE@?$AAh?$AAr?$AA?9?$AAh?$AAr@ 0000000180057e48     libucrt:lcidtoname_downlevel.obj
 0002:00006e58       ??_C@_1M@GACBMHKE@?$AAh?$AAu?$AA?9?$AAh?$AAu@ 0000000180057e58     libucrt:lcidtoname_downlevel.obj
 0002:00006e68       ??_C@_1M@MILPAJJC@?$AAh?$AAy?$AA?9?$AAa?$AAm@ 0000000180057e68     libucrt:lcidtoname_downlevel.obj
 0002:00006e78       ??_C@_1M@BABBICEC@?$AAi?$AAd?$AA?9?$AAi?$AAd@ 0000000180057e78     libucrt:lcidtoname_downlevel.obj
 0002:00006e88       ??_C@_1M@BIKNHHPF@?$AAi?$AAs?$AA?9?$AAi?$AAs@ 0000000180057e88     libucrt:lcidtoname_downlevel.obj
 0002:00006e98       ??_C@_1M@NMPCJPHE@?$AAi?$AAt?$AA?9?$AAc?$AAh@ 0000000180057e98     libucrt:lcidtoname_downlevel.obj
 0002:00006ea8       ??_C@_1M@GHKGFEDF@?$AAi?$AAt?$AA?9?$AAi?$AAt@ 0000000180057ea8     libucrt:lcidtoname_downlevel.obj
 0002:00006eb8       ??_C@_1M@NIEJCJJA@?$AAj?$AAa?$AA?9?$AAj?$AAp@ 0000000180057eb8     libucrt:lcidtoname_downlevel.obj
 0002:00006ec8       ??_C@_1M@JILFNBIM@?$AAk?$AAa?$AA?9?$AAg?$AAe@ 0000000180057ec8     libucrt:lcidtoname_downlevel.obj
 0002:00006ed8       ??_C@_1M@PACPMGPH@?$AAk?$AAk?$AA?9?$AAk?$AAz@ 0000000180057ed8     libucrt:lcidtoname_downlevel.obj
 0002:00006ee8       ??_C@_1M@IELFGMHA@?$AAk?$AAn?$AA?9?$AAi?$AAn@ 0000000180057ee8     libucrt:lcidtoname_downlevel.obj
 0002:00006ef8       ??_C@_1O@IBBJHCH@?$AAk?$AAo?$AAk?$AA?9?$AAi?$AAn@ 0000000180057ef8     libucrt:lcidtoname_downlevel.obj
 0002:00006f08       ??_C@_1M@DMHAEOGC@?$AAk?$AAo?$AA?9?$AAk?$AAr@ 0000000180057f08     libucrt:lcidtoname_downlevel.obj
 0002:00006f18       ??_C@_1M@HBAHBIGA@?$AAk?$AAy?$AA?9?$AAk?$AAg@ 0000000180057f18     libucrt:lcidtoname_downlevel.obj
 0002:00006f28       ??_C@_1M@KPMILCJG@?$AAl?$AAt?$AA?9?$AAl?$AAt@ 0000000180057f28     libucrt:lcidtoname_downlevel.obj
 0002:00006f38       ??_C@_1M@BDEKKCA@?$AAl?$AAv?$AA?9?$AAl?$AAv@ 0000000180057f38     libucrt:lcidtoname_downlevel.obj
 0002:00006f48       ??_C@_1M@ELCKCCJJ@?$AAm?$AAi?$AA?9?$AAn?$AAz@ 0000000180057f48     libucrt:lcidtoname_downlevel.obj
 0002:00006f58       ??_C@_1M@CBOOLAPA@?$AAm?$AAk?$AA?9?$AAm?$AAk@ 0000000180057f58     libucrt:lcidtoname_downlevel.obj
 0002:00006f68       ??_C@_1M@GPHNBJKN@?$AAm?$AAl?$AA?9?$AAi?$AAn@ 0000000180057f68     libucrt:lcidtoname_downlevel.obj
 0002:00006f78       ??_C@_1M@PABJILIG@?$AAm?$AAn?$AA?9?$AAm?$AAn@ 0000000180057f78     libucrt:lcidtoname_downlevel.obj
 0002:00006f88       ??_C@_1M@FGBKKIPG@?$AAm?$AAr?$AA?9?$AAi?$AAn@ 0000000180057f88     libucrt:lcidtoname_downlevel.obj
 0002:00006f98       ??_C@_1M@NDBPDDAL@?$AAm?$AAs?$AA?9?$AAb?$AAn@ 0000000180057f98     libucrt:lcidtoname_downlevel.obj
 0002:00006fa8       ??_C@_1M@OPIHOOPI@?$AAm?$AAs?$AA?9?$AAm?$AAy@ 0000000180057fa8     libucrt:lcidtoname_downlevel.obj
 0002:00006fb8       ??_C@_1M@PPDBCNFM@?$AAm?$AAt?$AA?9?$AAm?$AAt@ 0000000180057fb8     libucrt:lcidtoname_downlevel.obj
 0002:00006fc8       ??_C@_1M@KDJDKMDD@?$AAn?$AAb?$AA?9?$AAn?$AAo@ 0000000180057fc8     libucrt:lcidtoname_downlevel.obj
 0002:00006fd8       ??_C@_1M@KFCFLMJP@?$AAn?$AAl?$AA?9?$AAb?$AAe@ 0000000180057fd8     libucrt:lcidtoname_downlevel.obj
 0002:00006fe8       ??_C@_1M@KPOPDDGO@?$AAn?$AAl?$AA?9?$AAn?$AAl@ 0000000180057fe8     libucrt:lcidtoname_downlevel.obj
 0002:00006ff8       ??_C@_1M@LJKPEMLN@?$AAn?$AAn?$AA?9?$AAn?$AAo@ 0000000180057ff8     libucrt:lcidtoname_downlevel.obj
 0002:00007008       ??_C@_1M@BDGHHBFL@?$AAn?$AAs?$AA?9?$AAz?$AAa@ 0000000180058008     libucrt:lcidtoname_downlevel.obj
 0002:00007018       ??_C@_1M@IDEHOAP@?$AAp?$AAa?$AA?9?$AAi?$AAn@ 0000000180058018     libucrt:lcidtoname_downlevel.obj
 0002:00007028       ??_C@_1M@HDBKGOGH@?$AAp?$AAl?$AA?9?$AAp?$AAl@ 0000000180058028     libucrt:lcidtoname_downlevel.obj
 0002:00007038       ??_C@_1M@LJLLCMEH@?$AAp?$AAt?$AA?9?$AAb?$AAr@ 0000000180058038     libucrt:lcidtoname_downlevel.obj
 0002:00007048       ??_C@_1M@NCMONAAL@?$AAp?$AAt?$AA?9?$AAp?$AAt@ 0000000180058048     libucrt:lcidtoname_downlevel.obj
 0002:00007058       ??_C@_1O@EAKMAJDN@?$AAq?$AAu?$AAz?$AA?9?$AAb?$AAo@ 0000000180058058     libucrt:lcidtoname_downlevel.obj
 0002:00007068       ??_C@_1O@BHHPIGDN@?$AAq?$AAu?$AAz?$AA?9?$AAe?$AAc@ 0000000180058068     libucrt:lcidtoname_downlevel.obj
 0002:00007078       ??_C@_1O@GBAPEKMJ@?$AAq?$AAu?$AAz?$AA?9?$AAp?$AAe@ 0000000180058078     libucrt:lcidtoname_downlevel.obj
 0002:00007088       ??_C@_1M@CLGLEFBO@?$AAr?$AAo?$AA?9?$AAr?$AAo@ 0000000180058088     libucrt:lcidtoname_downlevel.obj
 0002:00007098       ??_C@_1M@CEEDODME@?$AAr?$AAu?$AA?9?$AAr?$AAu@ 0000000180058098     libucrt:lcidtoname_downlevel.obj
 0002:000070a8       ??_C@_1M@HPKKKMPP@?$AAs?$AAa?$AA?9?$AAi?$AAn@ 00000001800580a8     libucrt:lcidtoname_downlevel.obj
 0002:000070b8       ??_C@_1M@BKMAIGOJ@?$AAs?$AAe?$AA?9?$AAf?$AAi@ 00000001800580b8     libucrt:lcidtoname_downlevel.obj
 0002:000070c8       ??_C@_1M@NDPIFLFI@?$AAs?$AAe?$AA?9?$AAn?$AAo@ 00000001800580c8     libucrt:lcidtoname_downlevel.obj
 0002:000070d8       ??_C@_1M@DANKKHJ@?$AAs?$AAe?$AA?9?$AAs?$AAe@ 00000001800580d8     libucrt:lcidtoname_downlevel.obj
 0002:000070e8       ??_C@_1M@PNBLONPJ@?$AAs?$AAk?$AA?9?$AAs?$AAk@ 00000001800580e8     libucrt:lcidtoname_downlevel.obj
 0002:000070f8       ??_C@_1M@LFMODOAL@?$AAs?$AAl?$AA?9?$AAs?$AAi@ 00000001800580f8     libucrt:lcidtoname_downlevel.obj
 0002:00007108       ??_C@_1O@DFKOMPG@?$AAs?$AAm?$AAa?$AA?9?$AAn?$AAo@ 0000000180058108     libucrt:lcidtoname_downlevel.obj
 0002:00007118       ??_C@_1O@NDKPBNNH@?$AAs?$AAm?$AAa?$AA?9?$AAs?$AAe@ 0000000180058118     libucrt:lcidtoname_downlevel.obj
 0002:00007128       ??_C@_1O@PLLKBHAB@?$AAs?$AAm?$AAj?$AA?9?$AAn?$AAo@ 0000000180058128     libucrt:lcidtoname_downlevel.obj
 0002:00007138       ??_C@_1O@CLEPOGCA@?$AAs?$AAm?$AAj?$AA?9?$AAs?$AAe@ 0000000180058138     libucrt:lcidtoname_downlevel.obj
 0002:00007148       ??_C@_1O@DLGJGKMK@?$AAs?$AAm?$AAn?$AA?9?$AAf?$AAi@ 0000000180058148     libucrt:lcidtoname_downlevel.obj
 0002:00007158       ??_C@_1O@OJDJGAJC@?$AAs?$AAm?$AAs?$AA?9?$AAf?$AAi@ 0000000180058158     libucrt:lcidtoname_downlevel.obj
 0002:00007168       ??_C@_1M@BOFOGHPB@?$AAs?$AAq?$AA?9?$AAa?$AAl@ 0000000180058168     libucrt:lcidtoname_downlevel.obj
 0002:00007178       ??_C@_1BG@LJBBIPGB@?$AAs?$AAr?$AA?9?$AAb?$AAa?$AA?9?$AAc?$AAy?$AAr?$AAl@ 0000000180058178     libucrt:lcidtoname_downlevel.obj
 0002:00007190       ??_C@_1BG@JLBENFOE@?$AAs?$AAr?$AA?9?$AAb?$AAa?$AA?9?$AAl?$AAa?$AAt?$AAn@ 0000000180058190     libucrt:lcidtoname_downlevel.obj
 0002:000071a8       ??_C@_1BG@KODPNHE@?$AAs?$AAr?$AA?9?$AAs?$AAp?$AA?9?$AAc?$AAy?$AAr?$AAl@ 00000001800581a8     libucrt:lcidtoname_downlevel.obj
 0002:000071c0       ??_C@_1BG@CIOGKHPB@?$AAs?$AAr?$AA?9?$AAs?$AAp?$AA?9?$AAl?$AAa?$AAt?$AAn@ 00000001800581c0     libucrt:lcidtoname_downlevel.obj
 0002:000071d8       ??_C@_1M@NGFJLMAC@?$AAs?$AAv?$AA?9?$AAf?$AAi@ 00000001800581d8     libucrt:lcidtoname_downlevel.obj
 0002:000071e8       ??_C@_1M@MPJEJAJC@?$AAs?$AAv?$AA?9?$AAs?$AAe@ 00000001800581e8     libucrt:lcidtoname_downlevel.obj
 0002:000071f8       ??_C@_1M@MPNDHLFK@?$AAs?$AAw?$AA?9?$AAk?$AAe@ 00000001800581f8     libucrt:lcidtoname_downlevel.obj
 0002:00007208       ??_C@_1O@KOHBJJI@?$AAs?$AAy?$AAr?$AA?9?$AAs?$AAy@ 0000000180058208     libucrt:lcidtoname_downlevel.obj
 0002:00007218       ??_C@_1M@LDCEFHA@?$AAt?$AAa?$AA?9?$AAi?$AAn@ 0000000180058218     libucrt:lcidtoname_downlevel.obj
 0002:00007228       ??_C@_1M@CNJOFAK@?$AAt?$AAe?$AA?9?$AAi?$AAn@ 0000000180058228     libucrt:lcidtoname_downlevel.obj
 0002:00007238       ??_C@_1M@GNAECACD@?$AAt?$AAh?$AA?9?$AAt?$AAh@ 0000000180058238     libucrt:lcidtoname_downlevel.obj
 0002:00007248       ??_C@_1M@CHBIHOJO@?$AAt?$AAn?$AA?9?$AAz?$AAa@ 0000000180058248     libucrt:lcidtoname_downlevel.obj
 0002:00007258       ??_C@_1M@GCCMIGPJ@?$AAt?$AAr?$AA?9?$AAt?$AAr@ 0000000180058258     libucrt:lcidtoname_downlevel.obj
 0002:00007268       ??_C@_1M@CELMCNBK@?$AAt?$AAt?$AA?9?$AAr?$AAu@ 0000000180058268     libucrt:lcidtoname_downlevel.obj
 0002:00007278       ??_C@_1M@KLMCELGA@?$AAu?$AAk?$AA?9?$AAu?$AAa@ 0000000180058278     libucrt:lcidtoname_downlevel.obj
 0002:00007288       ??_C@_1M@EPAJJAJF@?$AAu?$AAr?$AA?9?$AAp?$AAk@ 0000000180058288     libucrt:lcidtoname_downlevel.obj
 0002:00007298       ??_C@_1BG@GEGPMCDJ@?$AAu?$AAz?$AA?9?$AAu?$AAz?$AA?9?$AAc?$AAy?$AAr?$AAl@ 0000000180058298     libucrt:lcidtoname_downlevel.obj
 0002:000072b0       ??_C@_1BG@EGGKJILM@?$AAu?$AAz?$AA?9?$AAu?$AAz?$AA?9?$AAl?$AAa?$AAt?$AAn@ 00000001800582b0     libucrt:lcidtoname_downlevel.obj
 0002:000072c8       ??_C@_1M@GFOCLFF@?$AAv?$AAi?$AA?9?$AAv?$AAn@ 00000001800582c8     libucrt:lcidtoname_downlevel.obj
 0002:000072d8       ??_C@_1M@CPAMEDFI@?$AAx?$AAh?$AA?9?$AAz?$AAa@ 00000001800582d8     libucrt:lcidtoname_downlevel.obj
 0002:000072e8       ??_C@_1O@EBKIFIGN@?$AAz?$AAh?$AA?9?$AAc?$AAh?$AAs@ 00000001800582e8     libucrt:lcidtoname_downlevel.obj
 0002:000072f8       ??_C@_1O@NMHPGANE@?$AAz?$AAh?$AA?9?$AAc?$AAh?$AAt@ 00000001800582f8     libucrt:lcidtoname_downlevel.obj
 0002:00007308       ??_C@_1M@LPINJOMC@?$AAz?$AAh?$AA?9?$AAc?$AAn@ 0000000180058308     libucrt:lcidtoname_downlevel.obj
 0002:00007318       ??_C@_1M@OCJEJODD@?$AAz?$AAh?$AA?9?$AAh?$AAk@ 0000000180058318     libucrt:lcidtoname_downlevel.obj
 0002:00007328       ??_C@_1M@DNDLJINH@?$AAz?$AAh?$AA?9?$AAm?$AAo@ 0000000180058328     libucrt:lcidtoname_downlevel.obj
 0002:00007338       ??_C@_1M@MBFDNDND@?$AAz?$AAh?$AA?9?$AAs?$AAg@ 0000000180058338     libucrt:lcidtoname_downlevel.obj
 0002:00007348       ??_C@_1M@IMEPLEPE@?$AAz?$AAh?$AA?9?$AAt?$AAw@ 0000000180058348     libucrt:lcidtoname_downlevel.obj
 0002:00007358       ??_C@_1M@BBGHNHJP@?$AAz?$AAu?$AA?9?$AAz?$AAa@ 0000000180058358     libucrt:lcidtoname_downlevel.obj
 0002:00007370       ?large_power_data@?1??multiply_by_power_of_ten@__crt_strtox@@YA_NAEAUbig_integer@2@I@Z@4QBIB 0000000180058370     libucrt:cfout.obj
 0002:00007d18       ?small_powers_of_ten@?1??multiply_by_power_of_ten@__crt_strtox@@YA_NAEAUbig_integer@2@I@Z@4QBIB 0000000180058d18     libucrt:cfout.obj
 0002:00007d3c       ??_C@_01GBGANLPD@0@        0000000180058d3c     libucrt:cfout.obj
 0002:00007d40       ??_C@_05DNEBIAHO@1?$CDINF@ 0000000180058d40     libucrt:cfout.obj
 0002:00007d48       ??_C@_06IMKFLFPG@1?$CDQNAN@ 0000000180058d48     libucrt:cfout.obj
 0002:00007d50       ??_C@_06PGGFOGJG@1?$CDSNAN@ 0000000180058d50     libucrt:cfout.obj
 0002:00007d58       ??_C@_05PHHOCPM@1?$CDIND@  0000000180058d58     libucrt:cfout.obj
 0002:00007d60       __acrt_rg_language         0000000180058d60     libucrt:get_qualified_locale.obj
 0002:00008170       __acrt_rg_language_count   0000000180059170     libucrt:get_qualified_locale.obj
 0002:00008180       __acrt_rg_country          0000000180059180     libucrt:get_qualified_locale.obj
 0002:000082f0       __acrt_rg_country_count    00000001800592f0     libucrt:get_qualified_locale.obj
 0002:000082f8       ??_C@_1BC@LLOKLNP@?$AAa?$AAm?$AAe?$AAr?$AAi?$AAc?$AAa?$AAn@ 00000001800592f8     libucrt:get_qualified_locale.obj
 0002:00008310       ??_C@_1CC@HEIGCDGG@?$AAa?$AAm?$AAe?$AAr?$AAi?$AAc?$AAa?$AAn?$AA?5?$AAe?$AAn?$AAg?$AAl?$AAi?$AAs@ 0000000180059310     libucrt:get_qualified_locale.obj
 0002:00008338       ??_C@_1CC@IHCNOMIN@?$AAa?$AAm?$AAe?$AAr?$AAi?$AAc?$AAa?$AAn?$AA?9?$AAe?$AAn?$AAg?$AAl?$AAi?$AAs@ 0000000180059338     libucrt:get_qualified_locale.obj
 0002:00008360       ??_C@_1BG@GKAGPCGG@?$AAa?$AAu?$AAs?$AAt?$AAr?$AAa?$AAl?$AAi?$AAa?$AAn@ 0000000180059360     libucrt:get_qualified_locale.obj
 0002:00008378       ??_C@_1BA@GMENCENF@?$AAb?$AAe?$AAl?$AAg?$AAi?$AAa?$AAn@ 0000000180059378     libucrt:get_qualified_locale.obj
 0002:00008388       ??_C@_1BC@PJMIIAAN@?$AAc?$AAa?$AAn?$AAa?$AAd?$AAi?$AAa?$AAn@ 0000000180059388     libucrt:get_qualified_locale.obj
 0002:000083a0       ??_C@_17NOIMNFBF@?$AAc?$AAh?$AAh@ 00000001800593a0     libucrt:get_qualified_locale.obj
 0002:000083a8       ??_C@_17GGDALCHA@?$AAc?$AAh?$AAi@ 00000001800593a8     libucrt:get_qualified_locale.obj
 0002:000083b0       ??_C@_1BA@NPNJKIBL@?$AAc?$AAh?$AAi?$AAn?$AAe?$AAs?$AAe@ 00000001800593b0     libucrt:get_qualified_locale.obj
 0002:000083c0       ??_C@_1CC@DINBAMMJ@?$AAc?$AAh?$AAi?$AAn?$AAe?$AAs?$AAe?$AA?9?$AAh?$AAo?$AAn?$AAg?$AAk?$AAo?$AAn@ 00000001800593c0     libucrt:get_qualified_locale.obj
 0002:000083e8       ??_C@_1CG@IOBJPACO@?$AAc?$AAh?$AAi?$AAn?$AAe?$AAs?$AAe?$AA?9?$AAs?$AAi?$AAm?$AAp?$AAl?$AAi?$AAf@ 00000001800593e8     libucrt:get_qualified_locale.obj
 0002:00008410       ??_C@_1CE@GAJNDCKG@?$AAc?$AAh?$AAi?$AAn?$AAe?$AAs?$AAe?$AA?9?$AAs?$AAi?$AAn?$AAg?$AAa?$AAp?$AAo@ 0000000180059410     libucrt:get_qualified_locale.obj
 0002:00008438       ??_C@_1CI@PAJPIOOD@?$AAc?$AAh?$AAi?$AAn?$AAe?$AAs?$AAe?$AA?9?$AAt?$AAr?$AAa?$AAd?$AAi?$AAt?$AAi@ 0000000180059438     libucrt:get_qualified_locale.obj
 0002:00008460       ??_C@_1BM@NILJBMMD@?$AAd?$AAu?$AAt?$AAc?$AAh?$AA?9?$AAb?$AAe?$AAl?$AAg?$AAi?$AAa?$AAn@ 0000000180059460     libucrt:get_qualified_locale.obj
 0002:00008480       ??_C@_1CC@OOJPJNEJ@?$AAe?$AAn?$AAg?$AAl?$AAi?$AAs?$AAh?$AA?9?$AAa?$AAm?$AAe?$AAr?$AAi?$AAc?$AAa@ 0000000180059480     libucrt:get_qualified_locale.obj
 0002:000084a8       ??_C@_1BI@IOLFEEM@?$AAe?$AAn?$AAg?$AAl?$AAi?$AAs?$AAh?$AA?9?$AAa?$AAu?$AAs@ 00000001800594a8     libucrt:get_qualified_locale.obj
 0002:000084c0       ??_C@_1BO@HFFNLENJ@?$AAe?$AAn?$AAg?$AAl?$AAi?$AAs?$AAh?$AA?9?$AAb?$AAe?$AAl?$AAi?$AAz?$AAe@ 00000001800594c0     libucrt:get_qualified_locale.obj
 0002:000084e0       ??_C@_1BI@HAPKJMPO@?$AAe?$AAn?$AAg?$AAl?$AAi?$AAs?$AAh?$AA?9?$AAc?$AAa?$AAn@ 00000001800594e0     libucrt:get_qualified_locale.obj
 0002:000084f8       ??_C@_1CE@HLNDMIOJ@?$AAe?$AAn?$AAg?$AAl?$AAi?$AAs?$AAh?$AA?9?$AAc?$AAa?$AAr?$AAi?$AAb?$AAb?$AAe@ 00000001800594f8     libucrt:get_qualified_locale.obj
 0002:00008520       ??_C@_1BI@LDHJHHAC@?$AAe?$AAn?$AAg?$AAl?$AAi?$AAs?$AAh?$AA?9?$AAi?$AAr?$AAe@ 0000000180059520     libucrt:get_qualified_locale.obj
 0002:00008538       ??_C@_1CA@NJMMCFOC@?$AAe?$AAn?$AAg?$AAl?$AAi?$AAs?$AAh?$AA?9?$AAj?$AAa?$AAm?$AAa?$AAi?$AAc?$AAa@ 0000000180059538     libucrt:get_qualified_locale.obj
 0002:00008558       ??_C@_1BG@BHJEBBGG@?$AAe?$AAn?$AAg?$AAl?$AAi?$AAs?$AAh?$AA?9?$AAn?$AAz@ 0000000180059558     libucrt:get_qualified_locale.obj
 0002:00008570       ??_C@_1CK@FGOEJJCO@?$AAe?$AAn?$AAg?$AAl?$AAi?$AAs?$AAh?$AA?9?$AAs?$AAo?$AAu?$AAt?$AAh?$AA?5?$AAa@ 0000000180059570     libucrt:get_qualified_locale.obj
 0002:000085a0       ??_C@_1DE@PDBJPCJ@?$AAe?$AAn?$AAg?$AAl?$AAi?$AAs?$AAh?$AA?9?$AAt?$AAr?$AAi?$AAn?$AAi?$AAd?$AAa@ 00000001800595a0     libucrt:get_qualified_locale.obj
 0002:000085d8       ??_C@_1BG@JGCANDME@?$AAe?$AAn?$AAg?$AAl?$AAi?$AAs?$AAh?$AA?9?$AAu?$AAk@ 00000001800595d8     libucrt:get_qualified_locale.obj
 0002:000085f0       ??_C@_1BG@DINKMLE@?$AAe?$AAn?$AAg?$AAl?$AAi?$AAs?$AAh?$AA?9?$AAu?$AAs@ 00000001800595f0     libucrt:get_qualified_locale.obj
 0002:00008608       ??_C@_1BI@NMFDBHJE@?$AAe?$AAn?$AAg?$AAl?$AAi?$AAs?$AAh?$AA?9?$AAu?$AAs?$AAa@ 0000000180059608     libucrt:get_qualified_locale.obj
 0002:00008620       ??_C@_1BO@OIHKJKII@?$AAf?$AAr?$AAe?$AAn?$AAc?$AAh?$AA?9?$AAb?$AAe?$AAl?$AAg?$AAi?$AAa?$AAn@ 0000000180059620     libucrt:get_qualified_locale.obj
 0002:00008640       ??_C@_1CA@NKAELJKI@?$AAf?$AAr?$AAe?$AAn?$AAc?$AAh?$AA?9?$AAc?$AAa?$AAn?$AAa?$AAd?$AAi?$AAa?$AAn@ 0000000180059640     libucrt:get_qualified_locale.obj
 0002:00008660       ??_C@_1CE@MGKCNLGN@?$AAf?$AAr?$AAe?$AAn?$AAc?$AAh?$AA?9?$AAl?$AAu?$AAx?$AAe?$AAm?$AAb?$AAo?$AAu@ 0000000180059660     libucrt:get_qualified_locale.obj
 0002:00008688       ??_C@_1BK@CEGEAILM@?$AAf?$AAr?$AAe?$AAn?$AAc?$AAh?$AA?9?$AAs?$AAw?$AAi?$AAs?$AAs@ 0000000180059688     libucrt:get_qualified_locale.obj
 0002:000086a8       ??_C@_1CA@PAFKEOCC@?$AAg?$AAe?$AAr?$AAm?$AAa?$AAn?$AA?9?$AAa?$AAu?$AAs?$AAt?$AAr?$AAi?$AAa?$AAn@ 00000001800596a8     libucrt:get_qualified_locale.obj
 0002:000086c8       ??_C@_1CI@HCFHGOFD@?$AAg?$AAe?$AAr?$AAm?$AAa?$AAn?$AA?9?$AAl?$AAi?$AAc?$AAh?$AAt?$AAe?$AAn?$AAs@ 00000001800596c8     libucrt:get_qualified_locale.obj
 0002:000086f0       ??_C@_1CE@FEDDNPDG@?$AAg?$AAe?$AAr?$AAm?$AAa?$AAn?$AA?9?$AAl?$AAu?$AAx?$AAe?$AAm?$AAb?$AAo?$AAu@ 00000001800596f0     libucrt:get_qualified_locale.obj
 0002:00008718       ??_C@_1BK@LIMINNMN@?$AAg?$AAe?$AAr?$AAm?$AAa?$AAn?$AA?9?$AAs?$AAw?$AAi?$AAs?$AAs@ 0000000180059718     libucrt:get_qualified_locale.obj
 0002:00008738       ??_C@_1BM@LGMDBEPD@?$AAi?$AAr?$AAi?$AAs?$AAh?$AA?9?$AAe?$AAn?$AAg?$AAl?$AAi?$AAs?$AAh@ 0000000180059738     libucrt:get_qualified_locale.obj
 0002:00008758       ??_C@_1BM@NNCFBAEE@?$AAi?$AAt?$AAa?$AAl?$AAi?$AAa?$AAn?$AA?9?$AAs?$AAw?$AAi?$AAs?$AAs@ 0000000180059758     libucrt:get_qualified_locale.obj
 0002:00008778       ??_C@_1BE@FEDJNPIB@?$AAn?$AAo?$AAr?$AAw?$AAe?$AAg?$AAi?$AAa?$AAn@ 0000000180059778     libucrt:get_qualified_locale.obj
 0002:00008790       ??_C@_1CC@CILKDEIE@?$AAn?$AAo?$AAr?$AAw?$AAe?$AAg?$AAi?$AAa?$AAn?$AA?9?$AAb?$AAo?$AAk?$AAm?$AAa@ 0000000180059790     libucrt:get_qualified_locale.obj
 0002:000087b8       ??_C@_1CE@DHMMHEPL@?$AAn?$AAo?$AAr?$AAw?$AAe?$AAg?$AAi?$AAa?$AAn?$AA?9?$AAn?$AAy?$AAn?$AAo?$AAr@ 00000001800597b8     libucrt:get_qualified_locale.obj
 0002:000087e0       ??_C@_1CK@OPNMHECD@?$AAp?$AAo?$AAr?$AAt?$AAu?$AAg?$AAu?$AAe?$AAs?$AAe?$AA?9?$AAb?$AAr?$AAa?$AAz@ 00000001800597e0     libucrt:get_qualified_locale.obj
 0002:00008810       ??_C@_1CE@KEEHCDB@?$AAs?$AAp?$AAa?$AAn?$AAi?$AAs?$AAh?$AA?9?$AAa?$AAr?$AAg?$AAe?$AAn?$AAt?$AAi@ 0000000180059810     libucrt:get_qualified_locale.obj
 0002:00008838       ??_C@_1CA@GIAOLHJD@?$AAs?$AAp?$AAa?$AAn?$AAi?$AAs?$AAh?$AA?9?$AAb?$AAo?$AAl?$AAi?$AAv?$AAi?$AAa@ 0000000180059838     libucrt:get_qualified_locale.obj
 0002:00008858       ??_C@_1BM@OJNDFNPD@?$AAs?$AAp?$AAa?$AAn?$AAi?$AAs?$AAh?$AA?9?$AAc?$AAh?$AAi?$AAl?$AAe@ 0000000180059858     libucrt:get_qualified_locale.obj
 0002:00008878       ??_C@_1CC@OCOLPALL@?$AAs?$AAp?$AAa?$AAn?$AAi?$AAs?$AAh?$AA?9?$AAc?$AAo?$AAl?$AAo?$AAm?$AAb?$AAi@ 0000000180059878     libucrt:get_qualified_locale.obj
 0002:000088a0       ??_C@_1CG@BPOFMKBB@?$AAs?$AAp?$AAa?$AAn?$AAi?$AAs?$AAh?$AA?9?$AAc?$AAo?$AAs?$AAt?$AAa?$AA?5?$AAr@ 00000001800598a0     libucrt:get_qualified_locale.obj
 0002:000088c8       ??_C@_1DG@IGOBAPBB@?$AAs?$AAp?$AAa?$AAn?$AAi?$AAs?$AAh?$AA?9?$AAd?$AAo?$AAm?$AAi?$AAn?$AAi?$AAc@ 00000001800598c8     libucrt:get_qualified_locale.obj
 0002:00008900       ??_C@_1CA@JHAPGEGI@?$AAs?$AAp?$AAa?$AAn?$AAi?$AAs?$AAh?$AA?9?$AAe?$AAc?$AAu?$AAa?$AAd?$AAo?$AAr@ 0000000180059900     libucrt:get_qualified_locale.obj
 0002:00008920       ??_C@_1CI@LAPALJPP@?$AAs?$AAp?$AAa?$AAn?$AAi?$AAs?$AAh?$AA?9?$AAe?$AAl?$AA?5?$AAs?$AAa?$AAl?$AAv@ 0000000180059920     libucrt:get_qualified_locale.obj
 0002:00008948       ??_C@_1CE@PDGBOFOM@?$AAs?$AAp?$AAa?$AAn?$AAi?$AAs?$AAh?$AA?9?$AAg?$AAu?$AAa?$AAt?$AAe?$AAm?$AAa@ 0000000180059948     libucrt:get_qualified_locale.obj
 0002:00008970       ??_C@_1CC@NBEBAODI@?$AAs?$AAp?$AAa?$AAn?$AAi?$AAs?$AAh?$AA?9?$AAh?$AAo?$AAn?$AAd?$AAu?$AAr?$AAa@ 0000000180059970     libucrt:get_qualified_locale.obj
 0002:00008998       ??_C@_1CA@LLKGHBMF@?$AAs?$AAp?$AAa?$AAn?$AAi?$AAs?$AAh?$AA?9?$AAm?$AAe?$AAx?$AAi?$AAc?$AAa?$AAn@ 0000000180059998     libucrt:get_qualified_locale.obj
 0002:000089b8       ??_C@_1BO@LKNDOIGD@?$AAs?$AAp?$AAa?$AAn?$AAi?$AAs?$AAh?$AA?9?$AAm?$AAo?$AAd?$AAe?$AAr?$AAn@ 00000001800599b8     libucrt:get_qualified_locale.obj
 0002:000089d8       ??_C@_1CE@NMDMOEEB@?$AAs?$AAp?$AAa?$AAn?$AAi?$AAs?$AAh?$AA?9?$AAn?$AAi?$AAc?$AAa?$AAr?$AAa?$AAg@ 00000001800599d8     libucrt:get_qualified_locale.obj
 0002:00008a00       ??_C@_1BO@LLCBEJGB@?$AAs?$AAp?$AAa?$AAn?$AAi?$AAs?$AAh?$AA?9?$AAp?$AAa?$AAn?$AAa?$AAm?$AAa@ 0000000180059a00     libucrt:get_qualified_locale.obj
 0002:00008a20       ??_C@_1CC@FKPGGIHO@?$AAs?$AAp?$AAa?$AAn?$AAi?$AAs?$AAh?$AA?9?$AAp?$AAa?$AAr?$AAa?$AAg?$AAu?$AAa@ 0000000180059a20     libucrt:get_qualified_locale.obj
 0002:00008a48       ??_C@_1BK@CDEIHOOP@?$AAs?$AAp?$AAa?$AAn?$AAi?$AAs?$AAh?$AA?9?$AAp?$AAe?$AAr?$AAu@ 0000000180059a48     libucrt:get_qualified_locale.obj
 0002:00008a68       ??_C@_1CI@GAHAKKGP@?$AAs?$AAp?$AAa?$AAn?$AAi?$AAs?$AAh?$AA?9?$AAp?$AAu?$AAe?$AAr?$AAt?$AAo?$AA?5@ 0000000180059a68     libucrt:get_qualified_locale.obj
 0002:00008a90       ??_C@_1CA@NKJBCAGP@?$AAs?$AAp?$AAa?$AAn?$AAi?$AAs?$AAh?$AA?9?$AAu?$AAr?$AAu?$AAg?$AAu?$AAa?$AAy@ 0000000180059a90     libucrt:get_qualified_locale.obj
 0002:00008ab0       ??_C@_1CE@ODILCONM@?$AAs?$AAp?$AAa?$AAn?$AAi?$AAs?$AAh?$AA?9?$AAv?$AAe?$AAn?$AAe?$AAz?$AAu?$AAe@ 0000000180059ab0     libucrt:get_qualified_locale.obj
 0002:00008ad8       ??_C@_1CA@OBNMCGFO@?$AAs?$AAw?$AAe?$AAd?$AAi?$AAs?$AAh?$AA?9?$AAf?$AAi?$AAn?$AAl?$AAa?$AAn?$AAd@ 0000000180059ad8     libucrt:get_qualified_locale.obj
 0002:00008af8       ??_C@_1M@PIPDDPPI@?$AAs?$AAw?$AAi?$AAs?$AAs@ 0000000180059af8     libucrt:get_qualified_locale.obj
 0002:00008b04       ??_C@_15GMFIMNFM@?$AAu?$AAs@ 0000000180059b04     libucrt:get_qualified_locale.obj
 0002:00008b10       ??_C@_17HAEBFAGL@?$AAu?$AAs?$AAa@ 0000000180059b10     libucrt:get_qualified_locale.obj
 0002:00008b18       ??_C@_1BA@DPFJEPHB@?$AAa?$AAm?$AAe?$AAr?$AAi?$AAc?$AAa@ 0000000180059b18     libucrt:get_qualified_locale.obj
 0002:00008b28       ??_C@_1BA@ELOGGFK@?$AAb?$AAr?$AAi?$AAt?$AAa?$AAi?$AAn@ 0000000180059b28     libucrt:get_qualified_locale.obj
 0002:00008b38       ??_C@_1M@GHBGIGDA@?$AAc?$AAh?$AAi?$AAn?$AAa@ 0000000180059b38     libucrt:get_qualified_locale.obj
 0002:00008b48       ??_C@_1M@NCHEJOPO@?$AAc?$AAz?$AAe?$AAc?$AAh@ 0000000180059b48     libucrt:get_qualified_locale.obj
 0002:00008b58       ??_C@_1BA@BKPAPBLA@?$AAe?$AAn?$AAg?$AAl?$AAa?$AAn?$AAd@ 0000000180059b58     libucrt:get_qualified_locale.obj
 0002:00008b68       ??_C@_1BM@HKBCKIPC@?$AAg?$AAr?$AAe?$AAa?$AAt?$AA?5?$AAb?$AAr?$AAi?$AAt?$AAa?$AAi?$AAn@ 0000000180059b68     libucrt:get_qualified_locale.obj
 0002:00008b88       ??_C@_1BA@PPCHPGJB@?$AAh?$AAo?$AAl?$AAl?$AAa?$AAn?$AAd@ 0000000180059b88     libucrt:get_qualified_locale.obj
 0002:00008b98       ??_C@_1BE@JBMPEGDG@?$AAh?$AAo?$AAn?$AAg?$AA?9?$AAk?$AAo?$AAn?$AAg@ 0000000180059b98     libucrt:get_qualified_locale.obj
 0002:00008bb0       ??_C@_1BI@KOELBBPJ@?$AAn?$AAe?$AAw?$AA?9?$AAz?$AAe?$AAa?$AAl?$AAa?$AAn?$AAd@ 0000000180059bb0     libucrt:get_qualified_locale.obj
 0002:00008bc8       ??_C@_15HIEBHAIO@?$AAn?$AAz@ 0000000180059bc8     libucrt:get_qualified_locale.obj
 0002:00008bd0       ??_C@_1BC@CHBCPFPI@?$AAp?$AAr?$AA?5?$AAc?$AAh?$AAi?$AAn?$AAa@ 0000000180059bd0     libucrt:get_qualified_locale.obj
 0002:00008be8       ??_C@_1BC@JAOIIFKD@?$AAp?$AAr?$AA?9?$AAc?$AAh?$AAi?$AAn?$AAa@ 0000000180059be8     libucrt:get_qualified_locale.obj
 0002:00008c00       ??_C@_1BI@BEHPPHKC@?$AAp?$AAu?$AAe?$AAr?$AAt?$AAo?$AA?9?$AAr?$AAi?$AAc?$AAo@ 0000000180059c00     libucrt:get_qualified_locale.obj
 0002:00008c18       ??_C@_1O@PAEOFKDI@?$AAs?$AAl?$AAo?$AAv?$AAa?$AAk@ 0000000180059c18     libucrt:get_qualified_locale.obj
 0002:00008c28       ??_C@_1BK@FIHMCKAM@?$AAs?$AAo?$AAu?$AAt?$AAh?$AA?5?$AAa?$AAf?$AAr?$AAi?$AAc?$AAa@ 0000000180059c28     libucrt:get_qualified_locale.obj
 0002:00008c48       ??_C@_1BI@NAEOODKB@?$AAs?$AAo?$AAu?$AAt?$AAh?$AA?5?$AAk?$AAo?$AAr?$AAe?$AAa@ 0000000180059c48     libucrt:get_qualified_locale.obj
 0002:00008c60       ??_C@_1BK@FBDGGIFF@?$AAs?$AAo?$AAu?$AAt?$AAh?$AA?9?$AAa?$AAf?$AAr?$AAi?$AAc?$AAa@ 0000000180059c60     libucrt:get_qualified_locale.obj
 0002:00008c80       ??_C@_1BI@GHLEJDPK@?$AAs?$AAo?$AAu?$AAt?$AAh?$AA?9?$AAk?$AAo?$AAr?$AAe?$AAa@ 0000000180059c80     libucrt:get_qualified_locale.obj
 0002:00008c98       ??_C@_1CE@PLHLOMJF@?$AAt?$AAr?$AAi?$AAn?$AAi?$AAd?$AAa?$AAd?$AA?5?$AA?$CG?$AA?5?$AAt?$AAo?$AAb?$AAa@ 0000000180059c98     libucrt:get_qualified_locale.obj
 0002:00008cc0       ??_C@_1BO@MODIMHHI@?$AAu?$AAn?$AAi?$AAt?$AAe?$AAd?$AA?9?$AAk?$AAi?$AAn?$AAg?$AAd?$AAo?$AAm@ 0000000180059cc0     libucrt:get_qualified_locale.obj
 0002:00008ce0       ??_C@_1BM@FFHJONBJ@?$AAu?$AAn?$AAi?$AAt?$AAe?$AAd?$AA?9?$AAs?$AAt?$AAa?$AAt?$AAe?$AAs@ 0000000180059ce0     libucrt:get_qualified_locale.obj
 0002:00008d00       ??_C@_19MPDNHKDG@?$AAu?$AAt?$AAf?$AA8@ 0000000180059d00     libucrt:get_qualified_locale.obj
 0002:00008d10       ??_C@_17DNCLJFIF@?$AAA?$AAC?$AAP@ 0000000180059d10     libucrt:get_qualified_locale.obj
 0002:00008d18       ??_C@_1M@FPEIIFAM@?$AAu?$AAt?$AAf?$AA?9?$AA8@ 0000000180059d18     libucrt:get_qualified_locale.obj
 0002:00008d28       ??_C@_17CIKBIHLH@?$AAO?$AAC?$AAP@ 0000000180059d28     libucrt:get_qualified_locale.obj
 0002:00008d30       __rglangidNotDefault       0000000180059d30     libucrt:getqloc_downlevel.obj
 0002:00008d48       ??_C@_1DE@JNGNBFGO@?$AAR?$AAu?$AAn?$AAt?$AAi?$AAm?$AAe?$AA?5?$AAE?$AAr?$AAr?$AAo?$AAr?$AA?$CB?$AA?6@ 0000000180059d48     libucrt:report_runtime_error.obj
 0002:00008d80       ??_C@_1CO@EAEJAADC@?$AA?$DM?$AAp?$AAr?$AAo?$AAg?$AAr?$AAa?$AAm?$AA?5?$AAn?$AAa?$AAm?$AAe?$AA?5?$AAu@ 0000000180059d80     libucrt:report_runtime_error.obj
 0002:00008db0       ??_C@_17LGKOMLJ@?$AA?4?$AA?4?$AA?4@ 0000000180059db0     libucrt:report_runtime_error.obj
 0002:00008db8       ??_C@_15IABLJNFO@?$AA?6?$AA?6@ 0000000180059db8     libucrt:report_runtime_error.obj
 0002:00008dc0       ??_C@_1EK@MBDPDCGA@?$AAM?$AAi?$AAc?$AAr?$AAo?$AAs?$AAo?$AAf?$AAt?$AA?5?$AAV?$AAi?$AAs?$AAu?$AAa@ 0000000180059dc0     libucrt:report_runtime_error.obj
 0002:00008e10       __real@3ff0000000000000    0000000180059e10     libucrt:ceil.obj
 0002:00009070       ??_C@_1BA@BALFACEM@?$AAC?$AAO?$AAN?$AAO?$AAU?$AAT?$AA$@ 000000018005a070     libucrt:initcon.obj
 0002:00009080       __log10_256_lead           000000018005a080     libucrt:log10_256_lead_tail_table.obj
 0002:00009890       __log10_256_tail           000000018005a890     libucrt:log10_256_lead_tail_table.obj
 0002:0000a0a0       __log_F_inv_qword          000000018005b0a0     libucrt:log_f_inv_qword_table.obj
 0002:0000a8b0       ??_C@_04HIGFGEHP@logf@     000000018005b8b0     libucrt:log_special.obj
 0002:0000a8b8       ??_C@_06KDGOKGLH@log10f@   000000018005b8b8     libucrt:log_special.obj
 0002:0000a8c0       ??_C@_03MGHMBJCF@log@      000000018005b8c0     libucrt:log_special.obj
 0002:0000a8c4       ??_C@_05HGHHAHAP@log10@    000000018005b8c4     libucrt:log_special.obj
 0002:0000aab0       ??_C@_03KHJOGHMM@exp@      000000018005bab0     libucrt:fpexcept.obj
 0002:0000aab4       ??_C@_03JGHBODFD@pow@      000000018005bab4     libucrt:fpexcept.obj
 0002:0000aab8       ??_C@_04COOMCNPB@sinh@     000000018005bab8     libucrt:fpexcept.obj
 0002:0000aac0       ??_C@_04HPJJNFIM@cosh@     000000018005bac0     libucrt:fpexcept.obj
 0002:0000aac8       ??_C@_04FJHINJAO@tanh@     000000018005bac8     libucrt:fpexcept.obj
 0002:0000aad0       ??_C@_04FIHNOPOL@asin@     000000018005bad0     libucrt:fpexcept.obj
 0002:0000aad8       ??_C@_04PDIFKINK@acos@     000000018005bad8     libucrt:fpexcept.obj
 0002:0000aae0       ??_C@_04MLLJIGOK@atan@     000000018005bae0     libucrt:fpexcept.obj
 0002:0000aae8       ??_C@_05KNGEOGJB@atan2@    000000018005bae8     libucrt:fpexcept.obj
 0002:0000aaf0       ??_C@_04EIAKFFMI@sqrt@     000000018005baf0     libucrt:fpexcept.obj
 0002:0000aaf8       ??_C@_03BLEJJJBH@sin@      000000018005baf8     libucrt:fpexcept.obj
 0002:0000aafc       ??_C@_03LALBNOCG@cos@      000000018005bafc     libucrt:fpexcept.obj
 0002:0000ab00       ??_C@_03IIINPABG@tan@      000000018005bb00     libucrt:fpexcept.obj
 0002:0000ab04       ??_C@_04GFPJNGEK@ceil@     000000018005bb04     libucrt:fpexcept.obj
 0002:0000ab0c       ??_C@_05PBJFFIGL@floor@    000000018005bb0c     libucrt:fpexcept.obj
 0002:0000ab14       ??_C@_04ODHECPBC@fabs@     000000018005bb14     libucrt:fpexcept.obj
 0002:0000ab1c       ??_C@_04EHEDPDJG@modf@     000000018005bb1c     libucrt:fpexcept.obj
 0002:0000ab24       ??_C@_05CEJMAHNP@ldexp@    000000018005bb24     libucrt:fpexcept.obj
 0002:0000ab2c       ??_C@_05KBKMEMPO@_cabs@    000000018005bb2c     libucrt:fpexcept.obj
 0002:0000ab34       ??_C@_06MEIMCGCF@_hypot@   000000018005bb34     libucrt:fpexcept.obj
 0002:0000ab3c       ??_C@_04KEPJIHGP@fmod@     000000018005bb3c     libucrt:fpexcept.obj
 0002:0000ab44       ??_C@_05GKKHEGJL@frexp@    000000018005bb44     libucrt:fpexcept.obj
 0002:0000ab4c       ??_C@_03MJLDFKDL@_y0@      000000018005bb4c     libucrt:fpexcept.obj
 0002:0000ab50       ??_C@_03NAKIGLHK@_y1@      000000018005bb50     libucrt:fpexcept.obj
 0002:0000ab54       ??_C@_03ONILCKOB@_yn@      000000018005bb54     libucrt:fpexcept.obj
 0002:0000ab58       ??_C@_05JGDBENOH@_logb@    000000018005bb58     libucrt:fpexcept.obj
 0002:0000ab60       ??_C@_0L@KDOEJCKC@_nextafter@ 000000018005bb60     libucrt:fpexcept.obj
 0002:0000ab70       __real@0000000000000000    000000018005bb70     libucrt:fpexcept.obj
 0002:0000ab80       __xmm@80000000000000008000000000000000 000000018005bb80     libucrt:fpexcept.obj
 0002:0000ab90       _d_inf                     000000018005bb90     libucrt:util.obj
 0002:0000ab98       _d_ind                     000000018005bb98     libucrt:util.obj
 0002:0000aba0       _d_max                     000000018005bba0     libucrt:util.obj
 0002:0000aba8       _d_min                     000000018005bba8     libucrt:util.obj
 0002:0000abb0       _d_mzero                   000000018005bbb0     libucrt:util.obj
 0002:0000abc0       ??_7type_info@@6B@         000000018005bbc0     LIBCMT:std_type_info_static.obj
 0002:0000ac30       _load_config_used          000000018005bc30     LIBCMT:loadcfg.obj
 0002:0000ad80       __CastGuardVftablesStart   000000018005bd80     LIBCMT:guard_support.obj
 0002:0000ad88       __CastGuardVftablesEnd     000000018005bd88     LIBCMT:guard_support.obj
 0002:0000ad90       ??_R4DNameNode@@6B@        000000018005bd90     libvcruntime:undname.obj
 0002:0000adb8       ??_R3DNameNode@@8          000000018005bdb8     libvcruntime:undname.obj
 0002:0000add0       ??_R2DNameNode@@8          000000018005bdd0     libvcruntime:undname.obj
 0002:0000ade0       ??_R1A@?0A@EA@DNameNode@@8 000000018005bde0     libvcruntime:undname.obj
 0002:0000ae08       ??_R4charNode@@6B@         000000018005be08     libvcruntime:undname.obj
 0002:0000ae30       ??_R3charNode@@8           000000018005be30     libvcruntime:undname.obj
 0002:0000ae48       ??_R2charNode@@8           000000018005be48     libvcruntime:undname.obj
 0002:0000ae60       ??_R1A@?0A@EA@charNode@@8  000000018005be60     libvcruntime:undname.obj
 0002:0000ae88       ??_R4pcharNode@@6B@        000000018005be88     libvcruntime:undname.obj
 0002:0000aeb0       ??_R3pcharNode@@8          000000018005beb0     libvcruntime:undname.obj
 0002:0000aec8       ??_R2pcharNode@@8          000000018005bec8     libvcruntime:undname.obj
 0002:0000aee0       ??_R1A@?0A@EA@pcharNode@@8 000000018005bee0     libvcruntime:undname.obj
 0002:0000af08       ??_R4pDNameNode@@6B@       000000018005bf08     libvcruntime:undname.obj
